 node-opus

 Timestamp is 56907b64 (Fri Jan 08 22:15:48 2016)

 Preferred load address is 0000000180000000

 Start         Length     Name                   Class
 0001:00000000 00000013H .text$di                CODE
 0001:00000020 00055310H .text$mn                CODE
 0001:00055330 000002d8H .text$x                 CODE
 0001:00055610 00000000H .text$yd                CODE
 0002:00000000 00000228H .idata$5                DATA
 0002:00000228 00000008H .CRT$XCA                DATA
 0002:00000230 00000018H .CRT$XCU                DATA
 0002:00000248 00000008H .CRT$XCZ                DATA
 0002:00000250 00000008H .CRT$XIA                DATA
 0002:00000258 00000028H .CRT$XIC                DATA
 0002:00000280 00000008H .CRT$XIZ                DATA
 0002:00000288 00000008H .CRT$XPA                DATA
 0002:00000290 00000010H .CRT$XPX                DATA
 0002:000002a0 00000008H .CRT$XPXA               DATA
 0002:000002a8 00000008H .CRT$XPZ                DATA
 0002:000002b0 00000008H .CRT$XTA                DATA
 0002:000002b8 00000008H .CRT$XTZ                DATA
 0002:000002c0 00015300H .rdata                  DATA
 0002:000155c0 00000098H .rdata$debug            DATA
 0002:00015658 0000016cH .rdata$r                DATA
 0002:000157c8 00000008H .rtc$IAA                DATA
 0002:000157d0 00000008H .rtc$IZZ                DATA
 0002:000157d8 00000008H .rtc$TAA                DATA
 0002:000157e0 00000008H .rtc$TZZ                DATA
 0002:000157e8 00003dacH .xdata                  DATA
 0002:00019598 00000084H .xdata$x                DATA
 0002:0001961c 00000020H .didat$2                DATA
 0002:0001963c 00000020H .didat$3                DATA
 0002:00019660 00000270H .didat$4                DATA
 0002:000198d0 0000154eH .didat$6                DATA
 0002:0001ae20 00000270H .didat$7                DATA
 0002:0001b090 00003fe3H .edata                  DATA
 0002:0001f074 00000014H .idata$2                DATA
 0002:0001f088 00000014H .idata$3                DATA
 0002:0001f0a0 00000228H .idata$4                DATA
 0002:0001f2c8 00000500H .idata$6                DATA
 0003:00000000 000018d0H .data                   DATA
 0003:000018d0 00000070H .data$r                 DATA
 0003:00001940 00000270H .didat$5                DATA
 0003:00001bc0 000024a8H .bss                    DATA
 0004:00000000 0000294cH .pdata                  DATA
 0005:00000000 00000058H .rsrc$01                DATA
 0005:00000060 00000180H .rsrc$02                DATA

  Address         Publics by Value              Rva+Base               Lib:Object

 0000:00000000       ___safe_se_handler_count   0000000000000000     <absolute>
 0000:00000000       __guard_fids_count         0000000000000000     <absolute>
 0000:00000000       ___safe_se_handler_table   0000000000000000     <absolute>
 0000:00000000       __guard_fids_table         0000000000000000     <absolute>
 0000:00000000       __guard_flags              0000000000000000     <absolute>
 0000:00000000       __ImageBase                0000000180000000     <linker-defined>
 0001:00000020       ?impl@StreamedSource@ScriptCompiler@v8@@QEBAPEAU1internal@3@XZ 0000000180001020 f i node-opus.obj
 0001:00000020       ??DValue@String@v8@@QEBAPEBGXZ 0000000180001020 f i node-opus.obj
 0001:00000020       ??DValue@String@v8@@QEAAPEAGXZ 0000000180001020 f i node-opus.obj
 0001:00000020       ?total_heap_size@HeapStatistics@v8@@QEAA_KXZ 0000000180001020 f i node-opus.obj
 0001:00000020       ?Data@Contents@SharedArrayBuffer@v8@@QEBAPEAXXZ 0000000180001020 f i node-opus.obj
 0001:00000020       ??DUtf8Value@String@v8@@QEAAPEADXZ 0000000180001020 f i node-opus.obj
 0001:00000020       ??DUtf8Value@String@v8@@QEBAPEBDXZ 0000000180001020 f i node-opus.obj
 0001:00000020       ?object_type@HeapObjectStatistics@v8@@QEAAPEBDXZ 0000000180001020 f i node-opus.obj
 0001:00000020       ?space_name@HeapSpaceStatistics@v8@@QEAAPEBDXZ 0000000180001020 f i node-opus.obj
 0001:00000020       ?Data@Contents@ArrayBuffer@v8@@QEBAPEAXXZ 0000000180001020 f i node-opus.obj
 0001:00000020       ?GetIsolate@HandleScope@v8@@QEBAPEAVIsolate@2@XZ 0000000180001020 f i node-opus.obj
 0001:00000030       ??4Object@v8@@QEAAAEAV01@AEBV01@@Z 0000000180001030 f i node-opus.obj
 0001:00000030       ?Cast@Resolver@Promise@v8@@SAPEAV123@PEAVValue@3@@Z 0000000180001030 f i node-opus.obj
 0001:00000030       ??4ArrayBufferView@v8@@QEAAAEAV01@AEBV01@@Z 0000000180001030 f i node-opus.obj
 0001:00000030       ?Cast@RegExp@v8@@SAPEAV12@PEAVValue@2@@Z 0000000180001030 f i node-opus.obj
 0001:00000030       ??4V8@v8@@QEAAAEAV01@AEBV01@@Z 0000000180001030 f i node-opus.obj
 0001:00000030       ??4Int32@v8@@QEAAAEAV01@AEBV01@@Z 0000000180001030 f i node-opus.obj
 0001:00000030       ??4ExternalSourceStream@ScriptCompiler@v8@@QEAAAEAV012@AEBV012@@Z 0000000180001030 f i node-opus.obj
 0001:00000030       ??4SymbolObject@v8@@QEAAAEAV01@AEBV01@@Z 0000000180001030 f i node-opus.obj
 0001:00000030       ?Cast@Map@v8@@SAPEAV12@PEAVValue@2@@Z 0000000180001030 f i node-opus.obj
 0001:00000030       ?Cast@Float32Array@v8@@SAPEAV12@PEAVValue@2@@Z 0000000180001030 f i node-opus.obj
 0001:00000030       ?Cast@Array@v8@@SAPEAV12@PEAVValue@2@@Z 0000000180001030 f i node-opus.obj
 0001:00000030       ??4Value@v8@@QEAAAEAV01@AEBV01@@Z 0000000180001030 f i node-opus.obj
 0001:00000030       ??4DataView@v8@@QEAAAEAV01@AEBV01@@Z 0000000180001030 f i node-opus.obj
 0001:00000030       ?Cast@Uint16Array@v8@@SAPEAV12@PEAVValue@2@@Z 0000000180001030 f i node-opus.obj
 0001:00000030       ??4Data@v8@@QEAAAEAV01@AEBV01@@Z 0000000180001030 f i node-opus.obj
 0001:00000030       ??4Symbol@v8@@QEAAAEAV01@AEBV01@@Z 0000000180001030 f i node-opus.obj
 0001:00000030       ??4Set@v8@@QEAAAEAV01@AEBV01@@Z 0000000180001030 f i node-opus.obj
 0001:00000030       ?Cast@External@v8@@SAPEAV12@PEAVValue@2@@Z 0000000180001030 f i node-opus.obj
 0001:00000030       ??4Uint32@v8@@QEAAAEAV01@AEBV01@@Z 0000000180001030 f i node-opus.obj
 0001:00000030       ??4Script@v8@@QEAAAEAV01@AEBV01@@Z 0000000180001030 f i node-opus.obj
 0001:00000030       ??4Signature@v8@@QEAAAEAV01@AEBV01@@Z 0000000180001030 f i node-opus.obj
 0001:00000030       ?Cast@ArrayBuffer@v8@@SAPEAV12@PEAVValue@2@@Z 0000000180001030 f i node-opus.obj
 0001:00000030       ??4Function@v8@@QEAAAEAV01@AEBV01@@Z 0000000180001030 f i node-opus.obj
 0001:00000030       ??4Boolean@v8@@QEAAAEAV01@AEBV01@@Z 0000000180001030 f i node-opus.obj
 0001:00000030       ??4StackFrame@v8@@QEAAAEAV01@AEBV01@@Z 0000000180001030 f i node-opus.obj
 0001:00000030       ??0HandleScope@v8@@IEAA@XZ 0000000180001030 f i node-opus.obj
 0001:00000030       ?Cast@Float64Array@v8@@SAPEAV12@PEAVValue@2@@Z 0000000180001030 f i node-opus.obj
 0001:00000030       ??4Uint32Array@v8@@QEAAAEAV01@AEBV01@@Z 0000000180001030 f i node-opus.obj
 0001:00000030       ??4Name@v8@@QEAAAEAV01@AEBV01@@Z 0000000180001030 f i node-opus.obj
 0001:00000030       ??4String@v8@@QEAAAEAV01@AEBV01@@Z 0000000180001030 f i node-opus.obj
 0001:00000030       ?Cast@TypedArray@v8@@SAPEAV12@PEAVValue@2@@Z 0000000180001030 f i node-opus.obj
 0001:00000030       ??4FunctionTemplate@v8@@QEAAAEAV01@AEBV01@@Z 0000000180001030 f i node-opus.obj
 0001:00000030       ??4Int8Array@v8@@QEAAAEAV01@AEBV01@@Z 0000000180001030 f i node-opus.obj
 0001:00000030       ??4Resolver@Promise@v8@@QEAAAEAV012@AEBV012@@Z 0000000180001030 f i node-opus.obj
 0001:00000030       ??4JSON@v8@@QEAAAEAV01@AEBV01@@Z 0000000180001030 f i node-opus.obj
 0001:00000030       ??4Int16Array@v8@@QEAAAEAV01@AEBV01@@Z 0000000180001030 f i node-opus.obj
 0001:00000030       ?Cast@SymbolObject@v8@@SAPEAV12@PEAVValue@2@@Z 0000000180001030 f i node-opus.obj
 0001:00000030       ?Cast@Function@v8@@SAPEAV12@PEAVValue@2@@Z 0000000180001030 f i node-opus.obj
 0001:00000030       ??4BooleanObject@v8@@QEAAAEAV01@AEBV01@@Z 0000000180001030 f i node-opus.obj
 0001:00000030       ??4Uint8Array@v8@@QEAAAEAV01@AEBV01@@Z 0000000180001030 f i node-opus.obj
 0001:00000030       ??4SharedArrayBuffer@v8@@QEAAAEAV01@AEBV01@@Z 0000000180001030 f i node-opus.obj
 0001:00000030       ??4ArrayBuffer@v8@@QEAAAEAV01@AEBV01@@Z 0000000180001030 f i node-opus.obj
 0001:00000030       ??4StackTrace@v8@@QEAAAEAV01@AEBV01@@Z 0000000180001030 f i node-opus.obj
 0001:00000030       ?Cast@Boolean@v8@@SAPEAV12@PEAVValue@2@@Z 0000000180001030 f i node-opus.obj
 0001:00000030       ?Cast@DataView@v8@@SAPEAV12@PEAVValue@2@@Z 0000000180001030 f i node-opus.obj
 0001:00000030       ??4Float64Array@v8@@QEAAAEAV01@AEBV01@@Z 0000000180001030 f i node-opus.obj
 0001:00000030       ??4Integer@v8@@QEAAAEAV01@AEBV01@@Z 0000000180001030 f i node-opus.obj
 0001:00000030       ?Cast@Int8Array@v8@@SAPEAV12@PEAVValue@2@@Z 0000000180001030 f i node-opus.obj
 0001:00000030       ??4ScriptCompiler@v8@@QEAAAEAV01@AEBV01@@Z 0000000180001030 f i node-opus.obj
 0001:00000030       ??4Date@v8@@QEAAAEAV01@AEBV01@@Z 0000000180001030 f i node-opus.obj
 0001:00000030       ?Cast@StringObject@v8@@SAPEAV12@PEAVValue@2@@Z 0000000180001030 f i node-opus.obj
 0001:00000030       ?Cast@Integer@v8@@SAPEAV12@PEAVValue@2@@Z 0000000180001030 f i node-opus.obj
 0001:00000030       ??4Promise@v8@@QEAAAEAV01@AEBV01@@Z 0000000180001030 f i node-opus.obj
 0001:00000030       ??4External@v8@@QEAAAEAV01@AEBV01@@Z 0000000180001030 f i node-opus.obj
 0001:00000030       ??4ObjectTemplate@v8@@QEAAAEAV01@AEBV01@@Z 0000000180001030 f i node-opus.obj
 0001:00000030       ??4Exception@v8@@QEAAAEAV01@AEBV01@@Z 0000000180001030 f i node-opus.obj
 0001:00000030       ?Cast@NumberObject@v8@@SAPEAV12@PEAVValue@2@@Z 0000000180001030 f i node-opus.obj
 0001:00000030       ??4Array@v8@@QEAAAEAV01@AEBV01@@Z 0000000180001030 f i node-opus.obj
 0001:00000030       ??4AccessorSignature@v8@@QEAAAEAV01@AEBV01@@Z 0000000180001030 f i node-opus.obj
 0001:00000030       ?Cast@BooleanObject@v8@@SAPEAV12@PEAVValue@2@@Z 0000000180001030 f i node-opus.obj
 0001:00000030       ??4Template@v8@@QEAAAEAV01@AEBV01@@Z 0000000180001030 f i node-opus.obj
 0001:00000030       ??4Float32Array@v8@@QEAAAEAV01@AEBV01@@Z 0000000180001030 f i node-opus.obj
 0001:00000030       ?Cast@Object@v8@@SAPEAV12@PEAVValue@2@@Z 0000000180001030 f i node-opus.obj
 0001:00000030       ?Cast@Int32Array@v8@@SAPEAV12@PEAVValue@2@@Z 0000000180001030 f i node-opus.obj
 0001:00000030       ??4TypeSwitch@v8@@QEAAAEAV01@AEBV01@@Z 0000000180001030 f i node-opus.obj
 0001:00000030       ?Cast@Set@v8@@SAPEAV12@PEAVValue@2@@Z 0000000180001030 f i node-opus.obj
 0001:00000030       ??4Allocator@ArrayBuffer@v8@@QEAAAEAV012@AEBV012@@Z 0000000180001030 f i node-opus.obj
 0001:00000030       ??4Primitive@v8@@QEAAAEAV01@AEBV01@@Z 0000000180001030 f i node-opus.obj
 0001:00000030       ?Cast@Uint32Array@v8@@SAPEAV12@PEAVValue@2@@Z 0000000180001030 f i node-opus.obj
 0001:00000030       ?Cast@Int32@v8@@SAPEAV12@PEAVValue@2@@Z 0000000180001030 f i node-opus.obj
 0001:00000030       ?Cast@Uint32@v8@@SAPEAV12@PEAVValue@2@@Z 0000000180001030 f i node-opus.obj
 0001:00000030       ??4Message@v8@@QEAAAEAV01@AEBV01@@Z 0000000180001030 f i node-opus.obj
 0001:00000030       ?Cast@Symbol@v8@@SAPEAV12@PEAVValue@2@@Z 0000000180001030 f i node-opus.obj
 0001:00000030       ?Cast@Int16Array@v8@@SAPEAV12@PEAVValue@2@@Z 0000000180001030 f i node-opus.obj
 0001:00000030       ??4UnboundScript@v8@@QEAAAEAV01@AEBV01@@Z 0000000180001030 f i node-opus.obj
 0001:00000030       ??4Uint8ClampedArray@v8@@QEAAAEAV01@AEBV01@@Z 0000000180001030 f i node-opus.obj
 0001:00000030       ??4NativeWeakMap@v8@@QEAAAEAV01@AEBV01@@Z 0000000180001030 f i node-opus.obj
 0001:00000030       ??4StringObject@v8@@QEAAAEAV01@AEBV01@@Z 0000000180001030 f i node-opus.obj
 0001:00000030       ?Cast@Uint8Array@v8@@SAPEAV12@PEAVValue@2@@Z 0000000180001030 f i node-opus.obj
 0001:00000030       ?Cast@ArrayBufferView@v8@@SAPEAV12@PEAVValue@2@@Z 0000000180001030 f i node-opus.obj
 0001:00000030       ??4Int32Array@v8@@QEAAAEAV01@AEBV01@@Z 0000000180001030 f i node-opus.obj
 0001:00000030       ?Cast@Number@v8@@SAPEAV12@PEAVValue@2@@Z 0000000180001030 f i node-opus.obj
 0001:00000030       ?Cast@Name@v8@@SAPEAV12@PEAVValue@2@@Z 0000000180001030 f i node-opus.obj
 0001:00000030       ??4Context@v8@@QEAAAEAV01@AEBV01@@Z 0000000180001030 f i node-opus.obj
 0001:00000030       ?Cast@String@v8@@SAPEAV12@PEAVValue@2@@Z 0000000180001030 f i node-opus.obj
 0001:00000030       ??4PersistentHandleVisitor@v8@@QEAAAEAV01@AEBV01@@Z 0000000180001030 f i node-opus.obj
 0001:00000030       ?Cast@Promise@v8@@SAPEAV12@PEAVValue@2@@Z 0000000180001030 f i node-opus.obj
 0001:00000030       ??4RegExp@v8@@QEAAAEAV01@AEBV01@@Z 0000000180001030 f i node-opus.obj
 0001:00000030       ?Cast@SharedArrayBuffer@v8@@SAPEAV12@PEAVValue@2@@Z 0000000180001030 f i node-opus.obj
 0001:00000030       ?Cast@Uint8ClampedArray@v8@@SAPEAV12@PEAVValue@2@@Z 0000000180001030 f i node-opus.obj
 0001:00000030       ??4TypedArray@v8@@QEAAAEAV01@AEBV01@@Z 0000000180001030 f i node-opus.obj
 0001:00000030       ??4NumberObject@v8@@QEAAAEAV01@AEBV01@@Z 0000000180001030 f i node-opus.obj
 0001:00000030       ??4Map@v8@@QEAAAEAV01@AEBV01@@Z 0000000180001030 f i node-opus.obj
 0001:00000030       ??4Uint16Array@v8@@QEAAAEAV01@AEBV01@@Z 0000000180001030 f i node-opus.obj
 0001:00000030       ??4Number@v8@@QEAAAEAV01@AEBV01@@Z 0000000180001030 f i node-opus.obj
 0001:00000030       ?Cast@Date@v8@@SAPEAV12@PEAVValue@2@@Z 0000000180001030 f i node-opus.obj
 0001:00000030       ??4ExternalResourceVisitor@v8@@QEAAAEAV01@AEBV01@@Z 0000000180001030 f i node-opus.obj
 0001:00000040       ??1EscapableHandleScope@v8@@QEAA@XZ 0000000180001040 f i node-opus.obj
 0001:00000050       ?GetId@Script@v8@@QEAAHXZ  0000000180001050 f i node-opus.obj
 0001:00000070       ??0CachedData@ScriptCompiler@v8@@QEAA@XZ 0000000180001070 f i node-opus.obj
 0001:00000090       ??1ExternalSourceStream@ScriptCompiler@v8@@UEAA@XZ 0000000180001090 f i node-opus.obj
 0001:000000a0       ??0ExternalSourceStream@ScriptCompiler@v8@@QEAA@XZ 00000001800010a0 f i node-opus.obj
 0001:000000a0       ??0ExternalSourceStream@ScriptCompiler@v8@@QEAA@AEBV012@@Z 00000001800010a0 f i node-opus.obj
 0001:000000b0       ??_EExternalSourceStream@ScriptCompiler@v8@@UEAAPEAXI@Z 00000001800010b0 f i node-opus.obj
 0001:00000130       ??1ExternalStringResource@String@v8@@UEAA@XZ 0000000180001130 f i node-opus.obj
 0001:00000130       ??1ExternalStringResourceBase@String@v8@@UEAA@XZ 0000000180001130 f i node-opus.obj
 0001:00000130       ??1ExternalOneByteStringResource@String@v8@@UEAA@XZ 0000000180001130 f i node-opus.obj
 0001:00000130       ??1ExternalOneByteStringResourceImpl@v8@@UEAA@XZ 0000000180001130 f i node-opus.obj
 0001:00000140       ??0ExternalStringResourceBase@String@v8@@IEAA@XZ 0000000180001140 f i node-opus.obj
 0001:00000150       ?Dispose@ExternalStringResourceBase@String@v8@@MEAAXXZ 0000000180001150 f i node-opus.obj
 0001:00000170       ??0ExternalOneByteStringResource@String@v8@@IEAA@XZ 0000000180001170 f i node-opus.obj
 0001:00000170       ??0ExternalStringResource@String@v8@@IEAA@XZ 0000000180001170 f i node-opus.obj
 0001:00000180       ?length@Value@String@v8@@QEBAHXZ 0000000180001180 f i node-opus.obj
 0001:00000180       ?max_executable_size@ResourceConstraints@v8@@QEBAHXZ 0000000180001180 f i node-opus.obj
 0001:00000180       ?length@Utf8Value@String@v8@@QEBAHXZ 0000000180001180 f i node-opus.obj
 0001:00000190       ??_EExternalOneByteStringResource@String@v8@@UEAAPEAXI@Z 0000000180001190 f i node-opus.obj
 0001:00000190       ??_EExternalStringResourceBase@String@v8@@UEAAPEAXI@Z 0000000180001190 f i node-opus.obj
 0001:00000190       ??_EExternalStringResource@String@v8@@UEAAPEAXI@Z 0000000180001190 f i node-opus.obj
 0001:00000210       ?InternalFieldCount@Object@v8@@SAHAEBV?$PersistentBase@VObject@v8@@@2@@Z 0000000180001210 f i node-opus.obj
 0001:00000220       ?GetAlignedPointerFromInternalField@Object@v8@@SAPEAXAEBV?$PersistentBase@VObject@v8@@@2@H@Z 0000000180001220 f i node-opus.obj
 0001:00000250       ?NewInstance@Function@v8@@QEBA?AV?$MaybeLocal@VObject@v8@@@2@V?$Local@VContext@v8@@@2@@Z 0000000180001250 f i node-opus.obj
 0001:00000280       ??1Allocator@ArrayBuffer@v8@@UEAA@XZ 0000000180001280 f i node-opus.obj
 0001:00000290       ??0Contents@ArrayBuffer@v8@@QEAA@XZ 0000000180001290 f i node-opus.obj
 0001:00000290       ??0Contents@SharedArrayBuffer@v8@@QEAA@XZ 0000000180001290 f i node-opus.obj
 0001:000002a0       ?begin@ExtensionConfiguration@v8@@QEBAPEAPEBDXZ 00000001800012a0 f i node-opus.obj
 0001:000002a0       ?space_size@HeapSpaceStatistics@v8@@QEAA_KXZ 00000001800012a0 f i node-opus.obj
 0001:000002a0       ?ByteLength@Contents@ArrayBuffer@v8@@QEBA_KXZ 00000001800012a0 f i node-opus.obj
 0001:000002a0       ?object_sub_type@HeapObjectStatistics@v8@@QEAAPEBDXZ 00000001800012a0 f i node-opus.obj
 0001:000002a0       ?total_heap_size_executable@HeapStatistics@v8@@QEAA_KXZ 00000001800012a0 f i node-opus.obj
 0001:000002a0       ?name@Extension@v8@@QEBAPEBDXZ 00000001800012a0 f i node-opus.obj
 0001:000002a0       ?data@ExternalOneByteStringResourceImpl@v8@@UEBAPEBDXZ 00000001800012a0 f i node-opus.obj
 0001:000002a0       ?ByteLength@Contents@SharedArrayBuffer@v8@@QEBA_KXZ 00000001800012a0 f i node-opus.obj
 0001:000002b0       ??0Allocator@ArrayBuffer@v8@@QEAA@AEBV012@@Z 00000001800012b0 f i node-opus.obj
 0001:000002b0       ??0Allocator@ArrayBuffer@v8@@QEAA@XZ 00000001800012b0 f i node-opus.obj
 0001:000002c0       ??_EAllocator@ArrayBuffer@v8@@UEAAPEAXI@Z 00000001800012c0 f i node-opus.obj
 0001:00000340       ??4Contents@ArrayBuffer@v8@@QEAAAEAV012@AEBV012@@Z 0000000180001340 f i node-opus.obj
 0001:00000340       ??4Contents@SharedArrayBuffer@v8@@QEAAAEAV012@AEBV012@@Z 0000000180001340 f i node-opus.obj
 0001:00000340       ??4StartupData@v8@@QEAAAEAV01@AEBV01@@Z 0000000180001340 f i node-opus.obj
 0001:00000350       ?SetIndexedPropertyHandler@ObjectTemplate@v8@@QEAAXP6AXIAEBV?$PropertyCallbackInfo@VValue@v8@@@2@@ZP6AXIV?$Local@VValue@v8@@@2@0@ZP6AXIAEBV?$PropertyCallbackInfo@VInteger@v8@@@2@@ZP6AXIAEBV?$PropertyCallbackInfo@VBoolean@v8@@@2@@ZP6AXAEBV?$PropertyCallbackInfo@VArray@v8@@@2@@Z2@Z 0000000180001350 f i node-opus.obj
 0001:000003a0       ??0ExternalOneByteStringResourceImpl@v8@@QEAA@XZ 00000001800013a0 f i node-opus.obj
 0001:000003c0       ??0ExternalOneByteStringResourceImpl@v8@@QEAA@PEBD_K@Z 00000001800013c0 f i node-opus.obj
 0001:000003e0       ?source_length@Extension@v8@@QEBA_KXZ 00000001800013e0 f i node-opus.obj
 0001:000003e0       ?object_count@HeapObjectStatistics@v8@@QEAA_KXZ 00000001800013e0 f i node-opus.obj
 0001:000003e0       ?total_physical_size@HeapStatistics@v8@@QEAA_KXZ 00000001800013e0 f i node-opus.obj
 0001:000003e0       ?stack_limit@ResourceConstraints@v8@@QEBAPEAIXZ 00000001800013e0 f i node-opus.obj
 0001:000003e0       ?space_used_size@HeapSpaceStatistics@v8@@QEAA_KXZ 00000001800013e0 f i node-opus.obj
 0001:000003e0       ?length@ExternalOneByteStringResourceImpl@v8@@UEBA_KXZ 00000001800013e0 f i node-opus.obj
 0001:000003f0       ??_EExternalOneByteStringResourceImpl@v8@@UEAAPEAXI@Z 00000001800013f0 f i node-opus.obj
 0001:00000470       ??1Extension@v8@@UEAA@XZ   0000000180001470 f i node-opus.obj
 0001:00000490       ?GetNativeFunctionTemplate@Extension@v8@@UEAA?AV?$Local@VFunctionTemplate@v8@@@2@PEAVIsolate@2@V?$Local@VString@v8@@@2@@Z 0000000180001490 f i node-opus.obj
 0001:000004a0       ?source@Extension@v8@@QEBAPEBVExternalOneByteStringResource@String@2@XZ 00000001800014a0 f i node-opus.obj
 0001:000004b0       ?dependency_count@Extension@v8@@QEAAHXZ 00000001800014b0 f i node-opus.obj
 0001:000004c0       ?dependencies@Extension@v8@@QEAAPEAPEBDXZ 00000001800014c0 f i node-opus.obj
 0001:000004d0       ?set_auto_enable@Extension@v8@@QEAAX_N@Z 00000001800014d0 f i node-opus.obj
 0001:000004e0       ?auto_enable@Extension@v8@@QEAA_NXZ 00000001800014e0 f i node-opus.obj
 0001:000004f0       ??_EExtension@v8@@UEAAPEAXI@Z 00000001800014f0 f i node-opus.obj
 0001:00000590       ?max_semi_space_size@ResourceConstraints@v8@@QEBAHXZ 0000000180001590 f i node-opus.obj
 0001:000005a0       ?set_max_semi_space_size@ResourceConstraints@v8@@QEAAXH@Z 00000001800015a0 f i node-opus.obj
 0001:000005b0       opus_repacketizer_get_nb_frames 00000001800015b0 f i libopus:repacketizer.obj
 0001:000005b0       ?max_old_space_size@ResourceConstraints@v8@@QEBAHXZ 00000001800015b0 f i node-opus.obj
 0001:000005c0       ?set_max_old_space_size@ResourceConstraints@v8@@QEAAXH@Z 00000001800015c0 f i node-opus.obj
 0001:000005d0       ?set_max_executable_size@ResourceConstraints@v8@@QEAAXH@Z 00000001800015d0 f i node-opus.obj
 0001:000005e0       ?set_stack_limit@ResourceConstraints@v8@@QEAAXPEAI@Z 00000001800015e0 f i node-opus.obj
 0001:000005f0       ?max_available_threads@ResourceConstraints@v8@@QEBAHXZ 00000001800015f0 f i node-opus.obj
 0001:00000600       ?set_max_available_threads@ResourceConstraints@v8@@QEAAXH@Z 0000000180001600 f i node-opus.obj
 0001:00000610       ?physical_space_size@HeapSpaceStatistics@v8@@QEAA_KXZ 0000000180001610 f i node-opus.obj
 0001:00000610       ?used_heap_size@HeapStatistics@v8@@QEAA_KXZ 0000000180001610 f i node-opus.obj
 0001:00000610       ?code_range_size@ResourceConstraints@v8@@QEBA_KXZ 0000000180001610 f i node-opus.obj
 0001:00000620       ?set_code_range_size@ResourceConstraints@v8@@QEAAX_K@Z 0000000180001620 f i node-opus.obj
 0001:00000630       ??4ResourceConstraints@v8@@QEAAAEAV01@AEBV01@@Z 0000000180001630 f i node-opus.obj
 0001:00000630       ??4HeapSpaceStatistics@v8@@QEAAAEAV01@AEBV01@@Z 0000000180001630 f i node-opus.obj
 0001:00000650       ?object_size@HeapObjectStatistics@v8@@QEAA_KXZ 0000000180001650 f i node-opus.obj
 0001:00000650       ?total_available_size@HeapStatistics@v8@@QEAA_KXZ 0000000180001650 f i node-opus.obj
 0001:00000650       ?space_available_size@HeapSpaceStatistics@v8@@QEAA_KXZ 0000000180001650 f i node-opus.obj
 0001:00000660       ?heap_size_limit@HeapStatistics@v8@@QEAA_KXZ 0000000180001660 f i node-opus.obj
 0001:00000670       ??4HeapStatistics@v8@@QEAAAEAV01@AEBV01@@Z 0000000180001670 f i node-opus.obj
 0001:00000690       ??4HeapObjectStatistics@v8@@QEAAAEAV01@AEBV01@@Z 0000000180001690 f i node-opus.obj
 0001:000006b0       ??1ExternalResourceVisitor@v8@@UEAA@XZ 00000001800016b0 f i node-opus.obj
 0001:000006b0       ??1PersistentHandleVisitor@v8@@UEAA@XZ 00000001800016b0 f i node-opus.obj
 0001:000006c0       ?VisitPersistentHandle@PersistentHandleVisitor@v8@@UEAAXPEAV?$Persistent@VValue@v8@@V?$NonCopyablePersistentTraits@VValue@v8@@@2@@2@G@Z 00000001800016c0 f i node-opus.obj
 0001:000006c0       ?VisitExternalString@ExternalResourceVisitor@v8@@UEAAXV?$Local@VString@v8@@@2@@Z 00000001800016c0 f i node-opus.obj
 0001:000006d0       ??0ExternalResourceVisitor@v8@@QEAA@XZ 00000001800016d0 f i node-opus.obj
 0001:000006d0       ??0PersistentHandleVisitor@v8@@QEAA@AEBV01@@Z 00000001800016d0 f i node-opus.obj
 0001:000006d0       ??0ExternalResourceVisitor@v8@@QEAA@AEBV01@@Z 00000001800016d0 f i node-opus.obj
 0001:000006d0       ??0PersistentHandleVisitor@v8@@QEAA@XZ 00000001800016d0 f i node-opus.obj
 0001:000006e0       ??_EExternalResourceVisitor@v8@@UEAAPEAXI@Z 00000001800016e0 f i node-opus.obj
 0001:000006e0       ??_EPersistentHandleVisitor@v8@@UEAAPEAXI@Z 00000001800016e0 f i node-opus.obj
 0001:00000760       ??0Scope@Isolate@v8@@QEAA@PEAV12@@Z 0000000180001760 f i node-opus.obj
 0001:00000780       ??1Scope@Isolate@v8@@QEAA@XZ 0000000180001780 f i node-opus.obj
 0001:00000790       ?JSStackComparableAddress@TryCatch@v8@@SAPEAXPEAV12@@Z 0000000180001790 f i node-opus.obj
 0001:000007a0       ??0ExtensionConfiguration@v8@@QEAA@XZ 00000001800017a0 f i node-opus.obj
 0001:000007b0       ??0ExtensionConfiguration@v8@@QEAA@HQEAPEBD@Z 00000001800017b0 f i node-opus.obj
 0001:000007c0       ?end@ExtensionConfiguration@v8@@QEBAPEAPEBDXZ 00000001800017c0 f i node-opus.obj
 0001:000007d0       ??0Unlocker@v8@@QEAA@PEAVIsolate@1@@Z 00000001800017d0 f i node-opus.obj
 0001:000007f0       ??4Unlocker@v8@@QEAAAEAV01@AEBV01@@Z 00000001800017f0 f i node-opus.obj
 0001:00000800       ??0Locker@v8@@QEAA@PEAVIsolate@1@@Z 0000000180001800 f i node-opus.obj
 0001:00000820       ?New@Boolean@v8@@SA?AV?$Local@VBoolean@v8@@@2@PEAVIsolate@2@_N@Z 0000000180001820 f i node-opus.obj
 0001:00000850       ?Set@Template@v8@@QEAAXPEAVIsolate@2@PEBDV?$Local@VData@v8@@@2@@Z 0000000180001850 f i node-opus.obj
 0001:000008b0       ?GetInternalField@Object@v8@@QEAA?AV?$Local@VValue@v8@@@2@H@Z 00000001800018b0 f i node-opus.obj
 0001:00000900       ?GetAlignedPointerFromInternalField@Object@v8@@QEAAPEAXH@Z 0000000180001900 f i node-opus.obj
 0001:00000920       ?Empty@String@v8@@SA?AV?$Local@VString@v8@@@2@PEAVIsolate@2@@Z 0000000180001920 f i node-opus.obj
 0001:00000930       ?GetExternalStringResource@String@v8@@QEBAPEAVExternalStringResource@12@XZ 0000000180001930 f i node-opus.obj
 0001:00000950       ?GetExternalStringResourceBase@String@v8@@QEBAPEAVExternalStringResourceBase@12@PEAW4Encoding@12@@Z 0000000180001950 f i node-opus.obj
 0001:00000980       ?IsUndefined@Value@v8@@QEBA_NXZ 0000000180001980 f i node-opus.obj
 0001:000009b0       ?QuickIsUndefined@Value@v8@@AEBA_NXZ 00000001800019b0 f i node-opus.obj
 0001:000009e0       ?IsNull@Value@v8@@QEBA_NXZ 00000001800019e0 f i node-opus.obj
 0001:00000a10       ?QuickIsNull@Value@v8@@AEBA_NXZ 0000000180001a10 f i node-opus.obj
 0001:00000a40       ?IsString@Value@v8@@QEBA_NXZ 0000000180001a40 f i node-opus.obj
 0001:00000a70       ?QuickIsString@Value@v8@@AEBA_NXZ 0000000180001a70 f i node-opus.obj
 0001:00000aa0       ?ToBoolean@Value@v8@@QEBA?AV?$Local@VBoolean@v8@@@2@XZ 0000000180001aa0 f i node-opus.obj
 0001:00000b10       ?ToNumber@Value@v8@@QEBA?AV?$Local@VNumber@v8@@@2@XZ 0000000180001b10 f i node-opus.obj
 0001:00000b80       ?ToString@Value@v8@@QEBA?AV?$Local@VString@v8@@@2@XZ 0000000180001b80 f i node-opus.obj
 0001:00000bf0       ?ToDetailString@Value@v8@@QEBA?AV?$Local@VString@v8@@@2@XZ 0000000180001bf0 f i node-opus.obj
 0001:00000c60       ?ToObject@Value@v8@@QEBA?AV?$Local@VObject@v8@@@2@XZ 0000000180001c60 f i node-opus.obj
 0001:00000cd0       ?ToInteger@Value@v8@@QEBA?AV?$Local@VInteger@v8@@@2@XZ 0000000180001cd0 f i node-opus.obj
 0001:00000d40       ?ToUint32@Value@v8@@QEBA?AV?$Local@VUint32@v8@@@2@XZ 0000000180001d40 f i node-opus.obj
 0001:00000db0       ?ToInt32@Value@v8@@QEBA?AV?$Local@VInt32@v8@@@2@XZ 0000000180001db0 f i node-opus.obj
 0001:00000e20       ?SetData@Isolate@v8@@QEAAXIPEAX@Z 0000000180001e20 f i node-opus.obj
 0001:00000e30       ?GetData@Isolate@v8@@QEAAPEAXI@Z 0000000180001e30 f i node-opus.obj
 0001:00000e40       ?GetNumberOfDataSlots@Isolate@v8@@SAIXZ 0000000180001e40 f i node-opus.obj
 0001:00000e50       ?AdjustAmountOfExternalAllocatedMemory@Isolate@v8@@QEAA_J_J@Z 0000000180001e50 f i node-opus.obj
 0001:00000eb0       ?GetEmbedderData@Context@v8@@QEAA?AV?$Local@VValue@v8@@@2@H@Z 0000000180001eb0 f i node-opus.obj
 0001:00000ee0       ?GetAlignedPointerFromEmbedderData@Context@v8@@QEAAPEAXH@Z 0000000180001ee0 f i node-opus.obj
 0001:00000f00       ?SetAllowCodeGenerationFromStringsCallback@V8@v8@@SAXP6A_NV?$Local@VContext@v8@@@2@@Z@Z 0000000180001f00 f i node-opus.obj
 0001:00000f30       ?IsDead@V8@v8@@SA_NXZ      0000000180001f30 f i node-opus.obj
 0001:00000f50       ?AddMessageListener@V8@v8@@SA_NP6AXV?$Local@VMessage@v8@@@2@V?$Local@VValue@v8@@@2@@Z1@Z 0000000180001f50 f i node-opus.obj
 0001:00000f80       ?RemoveMessageListeners@V8@v8@@SAXP6AXV?$Local@VMessage@v8@@@2@V?$Local@VValue@v8@@@2@@Z@Z 0000000180001f80 f i node-opus.obj
 0001:00000fb0       ?SetFailedAccessCheckCallbackFunction@V8@v8@@SAXP6AXV?$Local@VObject@v8@@@2@W4AccessType@2@V?$Local@VValue@v8@@@2@@Z@Z 0000000180001fb0 f i node-opus.obj
 0001:00000fe0       ?SetCaptureStackTraceForUncaughtExceptions@V8@v8@@SAX_NHW4StackTraceOptions@StackTrace@2@@Z 0000000180001fe0 f i node-opus.obj
 0001:00001020       ?SetFatalErrorHandler@V8@v8@@SAXP6AXPEBD0@Z@Z 0000000180002020 f i node-opus.obj
 0001:00001050       ?RemoveGCPrologueCallback@V8@v8@@SAXP6AXW4GCType@2@W4GCCallbackFlags@2@@Z@Z 0000000180002050 f i node-opus.obj
 0001:00001080       ?RemoveGCEpilogueCallback@V8@v8@@SAXP6AXW4GCType@2@W4GCCallbackFlags@2@@Z@Z 0000000180002080 f i node-opus.obj
 0001:000010b0       ?AddMemoryAllocationCallback@V8@v8@@SAXP6AXW4ObjectSpace@2@W4AllocationAction@2@H@Z01@Z 00000001800020b0 f i node-opus.obj
 0001:000010f0       ?RemoveMemoryAllocationCallback@V8@v8@@SAXP6AXW4ObjectSpace@2@W4AllocationAction@2@H@Z@Z 00000001800020f0 f i node-opus.obj
 0001:00001120       ?TerminateExecution@V8@v8@@SAXPEAVIsolate@2@@Z 0000000180002120 f i node-opus.obj
 0001:00001130       ?IsExecutionTerminating@V8@v8@@SA_NPEAVIsolate@2@@Z 0000000180002130 f i node-opus.obj
 0001:00001150       ?CancelTerminateExecution@V8@v8@@SAXPEAVIsolate@2@@Z 0000000180002150 f i node-opus.obj
 0001:00001160       ?VisitExternalResources@V8@v8@@SAXPEAVExternalResourceVisitor@2@@Z 0000000180002160 f i node-opus.obj
 0001:00001190       ?VisitHandlesWithClassIds@V8@v8@@SAXPEAVPersistentHandleVisitor@2@@Z 0000000180002190 f i node-opus.obj
 0001:000011c0       ?VisitHandlesWithClassIds@V8@v8@@SAXPEAVIsolate@2@PEAVPersistentHandleVisitor@2@@Z 00000001800021c0 f i node-opus.obj
 0001:000011d0       ?VisitHandlesForPartialDependence@V8@v8@@SAXPEAVIsolate@2@PEAVPersistentHandleVisitor@2@@Z 00000001800021d0 f i node-opus.obj
 0001:000011e0       ??1ObjectWrap@node@@UEAA@XZ 00000001800021e0 f i node-opus.obj
 0001:00001250       ?Wrap@ObjectWrap@node@@IEAAXV?$Local@VObject@v8@@@v8@@@Z 0000000180002250 f i node-opus.obj
 0001:00001320       ?Ref@ObjectWrap@node@@MEAAXXZ 0000000180002320 f i node-opus.obj
 0001:00001360       ?Unref@ObjectWrap@node@@MEAAXXZ 0000000180002360 f i node-opus.obj
 0001:00001410       ?WeakCallback@ObjectWrap@node@@CAXAEBV?$WeakCallbackData@VObject@v8@@VObjectWrap@node@@@v8@@@Z 0000000180002410 f i node-opus.obj
 0001:00001520       ??_EObjectWrap@node@@UEAAPEAXI@Z 0000000180002520 f i * CIL library *:* CIL module *
 0001:00001520       ??_GObjectWrap@node@@UEAAPEAXI@Z 0000000180002520 f i node-opus.obj
 0001:00001600       ?New@?$Factory@VFunctionTemplate@v8@@@imp@Nan@@SA?AV?$Local@VFunctionTemplate@v8@@@v8@@P6AXAEBV?$FunctionCallbackInfo@VValue@v8@@@3@@ZV?$Local@VValue@v8@@@5@V?$Local@VSignature@v8@@@5@@Z 0000000180002600 f i node-opus.obj
 0001:00001790       ?getDecodeError@@YAPEBDH@Z 0000000180002790 f   node-opus.obj
 0001:00001810       ?Encode@OpusEncoder@@SAXAEBV?$FunctionCallbackInfo@VValue@v8@@@Nan@@@Z 0000000180002810 f i node-opus.obj
 0001:00001a70       ?Decode@OpusEncoder@@SAXAEBV?$FunctionCallbackInfo@VValue@v8@@@Nan@@@Z 0000000180002a70 f i node-opus.obj
 0001:00001ce0       ?SetBitrate@OpusEncoder@@SAXAEBV?$FunctionCallbackInfo@VValue@v8@@@Nan@@@Z 0000000180002ce0 f i node-opus.obj
 0001:00001e00       ?GetBitrate@OpusEncoder@@SAXAEBV?$FunctionCallbackInfo@VValue@v8@@@Nan@@@Z 0000000180002e00 f i node-opus.obj
 0001:00001ee0       ?New@OpusEncoder@@SAXAEBV?$FunctionCallbackInfo@VValue@v8@@@Nan@@@Z 0000000180002ee0 f i node-opus.obj
 0001:00002140       ?Init@OpusEncoder@@SAXV?$Local@VObject@v8@@@v8@@@Z 0000000180003140 f i node-opus.obj
 0001:00002420       ??_GOpusEncoder@@UEAAPEAXI@Z 0000000180003420 f i node-opus.obj
 0001:00002420       ??_EOpusEncoder@@UEAAPEAXI@Z 0000000180003420 f i * CIL library *:* CIL module *
 0001:000024a0       ?NodeInit@@YAXV?$Local@VObject@v8@@@v8@@@Z 00000001800034a0 f   node-opus.obj
 0001:000024c0       ??$Unwrap@VOpusEncoder@@@ObjectWrap@node@@SAPEAVOpusEncoder@@V?$Local@VObject@v8@@@v8@@@Z 00000001800034c0 f i node-opus.obj
 0001:00002590       opus_decoder_get_size      0000000180003590 f   libopus:opus_decoder.obj
 0001:000025d0       opus_decoder_init          00000001800035d0 f   libopus:opus_decoder.obj
 0001:00002700       opus_decoder_create        0000000180003700 f   libopus:opus_decoder.obj
 0001:000039a0       opus_decode_native         00000001800049a0 f   libopus:opus_decoder.obj
 0001:00003d00       opus_decode                0000000180004d00 f   libopus:opus_decoder.obj
 0001:00003e80       opus_decode_float          0000000180004e80 f   libopus:opus_decoder.obj
 0001:00003ec0       opus_decoder_ctl           0000000180004ec0 f   libopus:opus_decoder.obj
 0001:000040b0       ??3@YAXPEAX@Z              00000001800050b0 f   LIBCMT:delete.obj
 0001:000040b0       opus_encoder_destroy       00000001800050b0 f   libopus:opus_encoder.obj
 0001:000040b0       opus_decoder_destroy       00000001800050b0 f   libopus:opus_decoder.obj
 0001:000040b0       opus_repacketizer_destroy  00000001800050b0 f   libopus:repacketizer.obj
 0001:000040c0       opus_packet_get_bandwidth  00000001800050c0 f   libopus:opus_decoder.obj
 0001:00004110       opus_packet_get_nb_channels 0000000180005110 f   libopus:opus_decoder.obj
 0001:00004120       opus_packet_get_nb_frames  0000000180005120 f   libopus:opus_decoder.obj
 0001:00004160       opus_packet_get_nb_samples 0000000180005160 f   libopus:opus_decoder.obj
 0001:000041f0       opus_decoder_get_nb_samples 00000001800051f0 f   libopus:opus_decoder.obj
 0001:00004370       opus_encoder_get_size      0000000180005370 f   libopus:opus_encoder.obj
 0001:000043b0       opus_encoder_init          00000001800053b0 f   libopus:opus_encoder.obj
 0001:00005930       opus_encoder_create        0000000180006930 f   libopus:opus_encoder.obj
 0001:00006540       downmix_float              0000000180007540 f   libopus:opus_encoder.obj
 0001:000069b0       downmix_int                00000001800079b0 f   libopus:opus_encoder.obj
 0001:00006e20       frame_size_select          0000000180007e20 f   libopus:opus_encoder.obj
 0001:00006f00       compute_frame_size         0000000180007f00 f   libopus:opus_encoder.obj
 0001:00007010       compute_stereo_width       0000000180008010 f   libopus:opus_encoder.obj
 0001:00007360       opus_encode_native         0000000180008360 f   libopus:opus_encoder.obj
 0001:000095c0       opus_encode                000000018000a5c0 f   libopus:opus_encoder.obj
 0001:00009740       opus_encode_float          000000018000a740 f   libopus:opus_encoder.obj
 0001:00009830       opus_encoder_ctl           000000018000a830 f   libopus:opus_encoder.obj
 0001:0000a090       opus_pcm_soft_clip         000000018000b090 f   libopus:opus.obj
 0001:0000a970       opus_packet_get_samples_per_frame 000000018000b970 f   libopus:opus.obj
 0001:0000aa00       opus_packet_parse_impl     000000018000ba00 f   libopus:opus.obj
 0001:0000adc0       opus_packet_parse          000000018000bdc0 f   libopus:opus.obj
 0001:0000aeb0       ec_dec_bit_logp            000000018000beb0 f   libopus:entdec.obj
 0001:0000af00       ec_dec_uint                000000018000bf00 f   libopus:entdec.obj
 0001:0000b040       ec_dec_bits                000000018000c040 f   libopus:entdec.obj
 0001:0000b0c0       celt_decoder_init          000000018000c0c0 f   libopus:celt_decoder.obj
 0001:0000cdd0       celt_decode_with_ec        000000018000ddd0 f   libopus:celt_decoder.obj
 0001:0000e1f0       opus_custom_decoder_ctl    000000018000f1f0 f   libopus:celt_decoder.obj
 0001:0000e420       silk_InitDecoder           000000018000f420 f   libopus:dec_API.obj
 0001:0000e540       silk_Decode                000000018000f540 f   libopus:dec_API.obj
 0001:0000f330       silk_lin2log               0000000180010330 f   libopus:lin2log.obj
 0001:0000f3a0       opus_repacketizer_get_size 00000001800103a0 f   libopus:repacketizer.obj
 0001:0000f3b0       opus_repacketizer_init     00000001800103b0 f   libopus:repacketizer.obj
 0001:0000f3c0       opus_repacketizer_create   00000001800103c0 f   libopus:repacketizer.obj
 0001:0000f510       opus_repacketizer_cat      0000000180010510 f   libopus:repacketizer.obj
 0001:0000f520       opus_repacketizer_out_range_impl 0000000180010520 f   libopus:repacketizer.obj
 0001:0000f8f0       opus_repacketizer_out_range 00000001800108f0 f   libopus:repacketizer.obj
 0001:0000f910       opus_repacketizer_out      0000000180010910 f   libopus:repacketizer.obj
 0001:0000f940       opus_packet_pad            0000000180010940 f   libopus:repacketizer.obj
 0001:0000fa20       opus_packet_unpad          0000000180010a20 f   libopus:repacketizer.obj
 0001:0000fac0       opus_multistream_packet_pad 0000000180010ac0 f   libopus:repacketizer.obj
 0001:0000fbd0       opus_multistream_packet_unpad 0000000180010bd0 f   libopus:repacketizer.obj
 0001:0000ff00       celt_encoder_init          0000000180010f00 f   libopus:celt_encoder.obj
 0001:000106f0       patch_transient_decision   00000001800116f0 f   libopus:celt_encoder.obj
 0001:00011020       celt_preemphasis           0000000180012020 f   libopus:celt_encoder.obj
 0001:00014290       celt_encode_with_ec        0000000180015290 f   libopus:celt_encoder.obj
 0001:00016dd0       opus_custom_encoder_ctl    0000000180017dd0 f   libopus:celt_encoder.obj
 0001:000171a0       silk_InitEncoder           00000001800181a0 f   libopus:enc_API.obj
 0001:00017300       silk_Encode                0000000180018300 f   libopus:enc_API.obj
 0001:00018640       ec_encode                  0000000180019640 f   libopus:entenc.obj
 0001:00018690       ec_enc_uint                0000000180019690 f   libopus:entenc.obj
 0001:00018780       ec_enc_bits                0000000180019780 f   libopus:entenc.obj
 0001:00018810       ec_enc_done                0000000180019810 f   libopus:entenc.obj
 0001:00018c50       tonality_get_info          0000000180019c50 f   libopus:analysis.obj
 0001:0001afc0       run_analysis               000000018001bfc0 f   libopus:analysis.obj
 0001:0001b100       silk_log2lin               000000018001c100 f   libopus:log2lin.obj
 0001:0001b4a0       compute_band_energies      000000018001c4a0 f   libopus:bands.obj
 0001:0001b630       normalise_bands            000000018001c630 f   libopus:bands.obj
 0001:0001b7b0       denormalise_bands          000000018001c7b0 f   libopus:bands.obj
 0001:0001b970       anti_collapse              000000018001c970 f   libopus:bands.obj
 0001:0001c440       spreading_decision         000000018001d440 f   libopus:bands.obj
 0001:0001ccd0       haar1                      000000018001dcd0 f   libopus:bands.obj
 0001:0001ec10       quant_all_bands            000000018001fc10 f   libopus:bands.obj
 0001:0001f5b0       comb_filter                00000001800205b0 f   libopus:celt.obj
 0001:0001fd90       init_caps                  0000000180020d90 f   libopus:celt.obj
 0001:0001fe40       opus_strerror              0000000180020e40 f   libopus:celt.obj
 0001:0001fe70       opus_get_version_string    0000000180020e70 f   libopus:celt.obj
 0001:000204e0       quant_coarse_energy        00000001800214e0 f   libopus:quant_bands.obj
 0001:00020ab0       quant_fine_energy          0000000180021ab0 f   libopus:quant_bands.obj
 0001:00020ce0       quant_energy_finalise      0000000180021ce0 f   libopus:quant_bands.obj
 0001:00020ed0       unquant_coarse_energy      0000000180021ed0 f   libopus:quant_bands.obj
 0001:000211b0       unquant_fine_energy        00000001800221b0 f   libopus:quant_bands.obj
 0001:00021300       unquant_energy_finalise    0000000180022300 f   libopus:quant_bands.obj
 0001:000214b0       amp2Log2                   00000001800224b0 f   libopus:quant_bands.obj
 0001:00021f10       pitch_downsample           0000000180022f10 f   libopus:pitch.obj
 0001:000222d0       celt_pitch_xcorr           00000001800232d0 f   libopus:pitch.obj
 0001:000223b0       pitch_search               00000001800233b0 f   libopus:pitch.obj
 0001:00022700       remove_doubling            0000000180023700 f   libopus:pitch.obj
 0001:00022c40       _celt_lpc                  0000000180023c40 f   libopus:celt_lpc.obj
 0001:00022f00       celt_fir_c                 0000000180023f00 f   libopus:celt_lpc.obj
 0001:00023340       celt_iir                   0000000180024340 f   libopus:celt_lpc.obj
 0001:000237e0       _celt_autocorr             00000001800247e0 f   libopus:celt_lpc.obj
 0001:00024160       alg_quant                  0000000180025160 f   libopus:vq.obj
 0001:00024630       alg_unquant                0000000180025630 f   libopus:vq.obj
 0001:00024750       renormalise_vector         0000000180025750 f   libopus:vq.obj
 0001:00024860       stereo_itheta              0000000180025860 f   libopus:vq.obj
 0001:00025330       compute_allocation         0000000180026330 f   libopus:rate.obj
 0001:00025930       clt_mdct_forward           0000000180026930 f   libopus:mdct.obj
 0001:000263c0       clt_mdct_backward          00000001800273c0 f   libopus:mdct.obj
 0001:00026bf0       opus_custom_mode_create    0000000180027bf0 f   libopus:modes.obj
 0001:00026c70       silk_stereo_decode_pred    0000000180027c70 f   libopus:stereo_decode_pred.obj
 0001:00026e70       silk_resampler_init        0000000180027e70 f   libopus:resampler.obj
 0001:00027220       silk_resampler             0000000180028220 f   libopus:resampler.obj
 0001:000273b0       silk_decode_pulses         00000001800283b0 f   libopus:decode_pulses.obj
 0001:00027830       silk_decode_frame          0000000180028830 f   libopus:decode_frame.obj
 0001:00027ac0       silk_decode_indices        0000000180028ac0 f   libopus:decode_indices.obj
 0001:00028610       silk_stereo_MS_to_LR       0000000180029610 f   libopus:stereo_MS_to_LR.obj
 0001:000288b0       silk_decoder_set_fs        00000001800298b0 f   libopus:decoder_set_fs.obj
 0001:00028a80       silk_control_SNR           0000000180029a80 f   libopus:control_SNR.obj
 0001:00028b90       silk_init_encoder          0000000180029b90 f   libopus:init_encoder.obj
 0001:00028cd0       silk_encode_pulses         0000000180029cd0 f   libopus:encode_pulses.obj
 0001:000294b0       silk_control_encoder       000000018002a4b0 f   libopus:control_codec.obj
 0001:00029e20       silk_encode_frame_FLP      000000018002ae20 f   libopus:encode_frame_FLP.obj
 0001:0002ac90       silk_stereo_LR_to_MS       000000018002bc90 f   libopus:stereo_LR_to_MS.obj
 0001:0002b4d0       check_control_input        000000018002c4d0 f   libopus:check_control_input.obj
 0001:0002b610       silk_encode_indices        000000018002c610 f   libopus:encode_indices.obj
 0001:0002bf30       silk_stereo_encode_pred    000000018002cf30 f   libopus:stereo_encode_pred.obj
 0001:0002c080       silk_HP_variable_cutoff    000000018002d080 f   libopus:HP_variable_cutoff.obj
 0001:0002c550       mlp_process                000000018002d550 f   libopus:mlp.obj
 0001:0002d6f0       opus_fft_impl              000000018002e6f0 f   libopus:kiss_fft.obj
 0001:0002d870       opus_fft                   000000018002e870 f   libopus:kiss_fft.obj
 0001:0002da80       ec_laplace_encode          000000018002ea80 f   libopus:laplace.obj
 0001:0002dbc0       ec_laplace_decode          000000018002ebc0 f   libopus:laplace.obj
 0001:0002dfa0       decode_pulses              000000018002efa0 f   libopus:cwrs.obj
 0001:0002e0e0       silk_CNG_Reset             000000018002f0e0 f   libopus:CNG.obj
 0001:0002e150       silk_CNG                   000000018002f150 f   libopus:CNG.obj
 0001:0002f4b0       silk_PLC_glue_frames       00000001800304b0 f   libopus:PLC.obj
 0001:0002f680       silk_resampler_private_up2_HQ 0000000180030680 f   libopus:resampler_private_up2_HQ.obj
 0001:0002f940       silk_resampler_private_IIR_FIR 0000000180030940 f   libopus:resampler_private_IIR_FIR.obj
 0001:00030070       silk_resampler_private_down_FIR 0000000180031070 f   libopus:resampler_private_down_FIR.obj
 0001:00030220       silk_encode_signs          0000000180031220 f   libopus:code_signs.obj
 0001:00030340       silk_decode_signs          0000000180031340 f   libopus:code_signs.obj
 0001:00030520       silk_shell_encoder         0000000180031520 f   libopus:shell_coder.obj
 0001:00030bb0       silk_shell_decoder         0000000180031bb0 f   libopus:shell_coder.obj
 0001:00030d80       silk_decode_parameters     0000000180031d80 f   libopus:decode_parameters.obj
 0001:000312a0       silk_decode_core           00000001800322a0 f   libopus:decode_core.obj
 0001:00031b20       silk_VAD_GetSA_Q8_c        0000000180032b20 f   libopus:VAD.obj
 0001:00032430       silk_control_audio_bandwidth 0000000180033430 f   libopus:control_audio_bandwidth.obj
 0001:00033200       silk_noise_shape_analysis_FLP 0000000180034200 f   libopus:noise_shape_analysis_FLP.obj
 0001:00033d30       silk_NLSF2A_FLP            0000000180034d30 f   libopus:wrappers_FLP.obj
 0001:00033ec0       silk_NSQ_wrapper_FLP       0000000180034ec0 f   libopus:wrappers_FLP.obj
 0001:00034310       silk_quant_LTP_gains_FLP   0000000180035310 f   libopus:wrappers_FLP.obj
 0001:000345b0       silk_process_gains_FLP     00000001800355b0 f   libopus:process_gains_FLP.obj
 0001:00034b50       silk_LP_variable_cutoff    0000000180035b50 f   libopus:LP_variable_cutoff.obj
 0001:00034c10       silk_gains_quant           0000000180035c10 f   libopus:gain_quant.obj
 0001:00034de0       silk_gains_dequant         0000000180035de0 f   libopus:gain_quant.obj
 0001:00035060       silk_prefilter_FLP         0000000180036060 f   libopus:prefilter_FLP.obj
 0001:00035780       silk_find_pred_coefs_FLP   0000000180036780 f   libopus:find_pred_coefs_FLP.obj
 0001:00035ba0       silk_find_pitch_lags_FLP   0000000180036ba0 f   libopus:find_pitch_lags_FLP.obj
 0001:00035fb0       silk_stereo_quant_pred     0000000180036fb0 f   libopus:stereo_quant_pred.obj
 0001:000360c0       silk_stereo_find_predictor 00000001800370c0 f   libopus:stereo_find_predictor.obj
 0001:00036350       silk_NLSF2A                0000000180037350 f   libopus:NLSF2A.obj
 0001:00036910       silk_sum_sqr_shift         0000000180037910 f   libopus:sum_sqr_shift.obj
 0001:00036ad0       silk_LPC_inverse_pred_gain 0000000180037ad0 f   libopus:LPC_inv_pred_gain.obj
 0001:00036d20       silk_LPC_analysis_filter   0000000180037d20 f   libopus:LPC_analysis_filter.obj
 0001:00036e80       silk_decode_pitch          0000000180037e80 f   libopus:decode_pitch.obj
 0001:00036f50       silk_NLSF_decode           0000000180037f50 f   libopus:NLSF_decode.obj
 0001:00037210       silk_ana_filt_bank_1       0000000180038210 f   libopus:ana_filt_bank_1.obj
 0001:00037330       silk_bwexpander_FLP        0000000180038330 f   libopus:bwexpander_FLP.obj
 0001:000373e0       silk_warped_autocorrelation_FLP 00000001800383e0 f   libopus:warped_autocorrelation_FLP.obj
 0001:000375d0       silk_apply_sine_window_FLP 00000001800385d0 f   libopus:apply_sine_window_FLP.obj
 0001:000376d0       silk_autocorrelation_FLP   00000001800386d0 f   libopus:autocorrelation_FLP.obj
 0001:000378d0       silk_energy_FLP            00000001800388d0 f   libopus:energy_FLP.obj
 0001:00037a00       silk_levinsondurbin_FLP    0000000180038a00 f   libopus:levinsondurbin_FLP.obj
 0001:00037cf0       silk_LPC_inverse_pred_gain_FLP 0000000180038cf0 f   libopus:LPC_inv_pred_gain_FLP.obj
 0001:00037f90       silk_NSQ_c                 0000000180038f90 f   libopus:NSQ.obj
 0001:00038d80       silk_quant_LTP_gains       0000000180039d80 f   libopus:quant_LTP_gains.obj
 0001:00039120       silk_process_NLSFs         000000018003a120 f   libopus:process_NLSFs.obj
 0001:000395c0       silk_A2NLSF                000000018003a5c0 f   libopus:A2NLSF.obj
 0001:000399f0       silk_NSQ_del_dec_c         000000018003a9f0 f   libopus:NSQ_del_dec.obj
 0001:0003b350       silk_biquad_alt            000000018003c350 f   libopus:biquad_alt.obj
 0001:0003b4c0       silk_find_LTP_FLP          000000018003c4c0 f   libopus:find_LTP_FLP.obj
 0001:0003bb30       silk_residual_energy_covar_FLP 000000018003cb30 f   libopus:residual_energy_FLP.obj
 0001:0003bdb0       silk_residual_energy_FLP   000000018003cdb0 f   libopus:residual_energy_FLP.obj
 0001:0003c010       silk_find_LPC_FLP          000000018003d010 f   libopus:find_LPC_FLP.obj
 0001:0003c380       silk_scale_copy_vector_FLP 000000018003d380 f   libopus:scale_copy_vector_FLP.obj
 0001:0003c560       silk_LTP_analysis_filter_FLP 000000018003d560 f   libopus:LTP_analysis_filter_FLP.obj
 0001:0003c6d0       silk_pitch_analysis_core_FLP 000000018003d6d0 f   libopus:pitch_analysis_core_FLP.obj
 0001:0003f4f0       silk_schur_FLP             00000001800404f0 f   libopus:schur_FLP.obj
 0001:0003f7a0       silk_k2a_FLP               00000001800407a0 f   libopus:k2a_FLP.obj
 0001:0003f940       silk_inner_prod_aligned_scale 0000000180040940 f   libopus:inner_prod_aligned.obj
 0001:0003fae0       silk_NLSF_stabilize        0000000180040ae0 f   libopus:NLSF_stabilize.obj
 0001:0003fdd0       silk_NLSF_VQ_weights_laroia 0000000180040dd0 f   libopus:NLSF_VQ_weights_laroia.obj
 0001:0003ff30       silk_inner_product_FLP     0000000180040f30 f   libopus:inner_product_FLP.obj
 0001:000400d0       silk_VQ_WMat_EC_c          00000001800410d0 f   libopus:VQ_WMat_EC.obj
 0001:00040370       silk_NLSF_encode           0000000180041370 f   libopus:NLSF_encode.obj
 0001:00040f30       silk_corrVector_FLP        0000000180041f30 f   libopus:corrMatrix_FLP.obj
 0001:00041100       silk_corrMatrix_FLP        0000000180042100 f   libopus:corrMatrix_FLP.obj
 0001:00041480       silk_burg_modified_FLP     0000000180042480 f   libopus:burg_modified_FLP.obj
 0001:00042510       silk_insertion_sort_decreasing_FLP 0000000180043510 f   libopus:sort_FLP.obj
 0001:00042820       silk_resampler_down2_3     0000000180043820 f   libopus:resampler_down2_3.obj
 0001:00042a10       silk_insertion_sort_increasing 0000000180043a10 f   libopus:sort.obj
 0001:00042bc0       silk_NLSF_del_dec_quant    0000000180043bc0 f   libopus:NLSF_del_dec_quant.obj
 0001:00043110       silk_NLSF_VQ               0000000180044110 f   libopus:NLSF_VQ.obj
 0001:000431b0       __imp_load_?Length@Buffer@node@@YA_KV?$Local@VObject@v8@@@v8@@@Z 00000001800441b0 f   node:node.exe
 0001:000431bc       __tailMerge_node_exe       00000001800441bc f i node:node.exe
 0001:00043235       __imp_load_?Data@Buffer@node@@YAPEADV?$Local@VObject@v8@@@v8@@@Z 0000000180044235 f   node:node.exe
 0001:00043241       __imp_load_?Copy@Buffer@node@@YA?AV?$MaybeLocal@VObject@v8@@@v8@@PEAVIsolate@4@PEBD_K@Z 0000000180044241 f   node:node.exe
 0001:0004324d       __imp_load_node_module_register 000000018004424d f   node:node.exe
 0001:00043259       __imp_load_?Initialize@Locker@v8@@AEAAXPEAVIsolate@2@@Z 0000000180044259 f   node:node.exe
 0001:00043265       __imp_load_?GetId@UnboundScript@v8@@QEAAHXZ 0000000180044265 f   node:node.exe
 0001:00043271       __imp_load_?GetUnboundScript@Script@v8@@QEAA?AV?$Local@VUnboundScript@v8@@@2@XZ 0000000180044271 f   node:node.exe
 0001:0004327d       __imp_load_?ToLocalEmpty@V8@v8@@CAXXZ 000000018004427d f   node:node.exe
 0001:00043289       __imp_load_?ClearWeak@V8@v8@@CAPEAXPEAPEAVObject@internal@2@@Z 0000000180044289 f   node:node.exe
 0001:00043295       __imp_load_?MakeWeak@V8@v8@@CAXPEAPEAVObject@internal@2@PEAXP6AXAEBV?$WeakCallbackData@VValue@v8@@X@2@@Z@Z 0000000180044295 f   node:node.exe
 0001:000432a1       __imp_load_?DisposeGlobal@V8@v8@@CAXPEAPEAVObject@internal@2@@Z 00000001800442a1 f   node:node.exe
 0001:000432ad       __imp_load_?GlobalizeReference@V8@v8@@CAPEAPEAVObject@internal@2@PEAVIsolate@42@PEAPEAV342@@Z 00000001800442ad f   node:node.exe
 0001:000432b9       __imp_load_?Escape@EscapableHandleScope@v8@@AEAAPEAPEAVObject@internal@2@PEAPEAV342@@Z 00000001800442b9 f   node:node.exe
 0001:000432c5       __imp_load_??0EscapableHandleScope@v8@@QEAA@PEAVIsolate@1@@Z 00000001800442c5 f   node:node.exe
 0001:000432d1       __imp_load_?Int32Value@Value@v8@@QEBAHXZ 00000001800442d1 f   node:node.exe
 0001:000432dd       __imp_load_?ToInt32@Value@v8@@QEBA?AV?$MaybeLocal@VInt32@v8@@@2@V?$Local@VContext@v8@@@2@@Z 00000001800442dd f   node:node.exe
 0001:000432e9       __imp_load_?ToUint32@Value@v8@@QEBA?AV?$MaybeLocal@VUint32@v8@@@2@V?$Local@VContext@v8@@@2@@Z 00000001800442e9 f   node:node.exe
 0001:000432f5       __imp_load_?ToInteger@Value@v8@@QEBA?AV?$MaybeLocal@VInteger@v8@@@2@V?$Local@VContext@v8@@@2@@Z 00000001800442f5 f   node:node.exe
 0001:00043301       __imp_load_?ToObject@Value@v8@@QEBA?AV?$MaybeLocal@VObject@v8@@@2@V?$Local@VContext@v8@@@2@@Z 0000000180044301 f   node:node.exe
 0001:0004330d       __imp_load_?ToDetailString@Value@v8@@QEBA?AV?$MaybeLocal@VString@v8@@@2@V?$Local@VContext@v8@@@2@@Z 000000018004430d f   node:node.exe
 0001:00043319       __imp_load_?ToString@Value@v8@@QEBA?AV?$MaybeLocal@VString@v8@@@2@V?$Local@VContext@v8@@@2@@Z 0000000180044319 f   node:node.exe
 0001:00043325       __imp_load_?ToNumber@Value@v8@@QEBA?AV?$MaybeLocal@VNumber@v8@@@2@V?$Local@VContext@v8@@@2@@Z 0000000180044325 f   node:node.exe
 0001:00043331       __imp_load_?ToBoolean@Value@v8@@QEBA?AV?$MaybeLocal@VBoolean@v8@@@2@V?$Local@VContext@v8@@@2@@Z 0000000180044331 f   node:node.exe
 0001:0004333d       __imp_load_?IsNumber@Value@v8@@QEBA_NXZ 000000018004433d f   node:node.exe
 0001:00043349       __imp_load_?IsObject@Value@v8@@QEBA_NXZ 0000000180044349 f   node:node.exe
 0001:00043355       __imp_load_?SetClassName@FunctionTemplate@v8@@QEAAXV?$Local@VString@v8@@@2@@Z 0000000180044355 f   node:node.exe
 0001:00043361       __imp_load_?PrototypeTemplate@FunctionTemplate@v8@@QEAA?AV?$Local@VObjectTemplate@v8@@@2@XZ 0000000180044361 f   node:node.exe
 0001:0004336d       __imp_load_?InstanceTemplate@FunctionTemplate@v8@@QEAA?AV?$Local@VObjectTemplate@v8@@@2@XZ 000000018004436d f   node:node.exe
 0001:00043379       __imp_load_?GetFunction@FunctionTemplate@v8@@QEAA?AV?$Local@VFunction@v8@@@2@XZ 0000000180044379 f   node:node.exe
 0001:00043385       __imp_load_?New@FunctionTemplate@v8@@SA?AV?$Local@VFunctionTemplate@v8@@@2@PEAVIsolate@2@P6AXAEBV?$FunctionCallbackInfo@VValue@v8@@@2@@ZV?$Local@VValue@v8@@@2@V?$Local@VSignature@v8@@@2@H@Z 0000000180044385 f   node:node.exe
 0001:00043391       __imp_load_?TypeError@Exception@v8@@SA?AV?$Local@VValue@v8@@@2@V?$Local@VString@v8@@@2@@Z 0000000180044391 f   node:node.exe
 0001:0004339d       __imp_load_?NewFromUtf8@String@v8@@SA?AV?$MaybeLocal@VString@v8@@@2@PEAVIsolate@2@PEBDW4NewStringType@2@H@Z 000000018004439d f   node:node.exe
 0001:000433a9       __imp_load_?CreateHandle@HandleScope@v8@@KAPEAPEAVObject@internal@2@PEAVIsolate@42@PEAV342@@Z 00000001800443a9 f   node:node.exe
 0001:000433b5       __imp_load_?CreateHandle@HandleScope@v8@@CAPEAPEAVObject@internal@2@PEAVHeapObject@42@PEAV342@@Z 00000001800443b5 f   node:node.exe
 0001:000433c1       __imp_load_??1HandleScope@v8@@QEAA@XZ 00000001800443c1 f   node:node.exe
 0001:000433cd       __imp_load_??0HandleScope@v8@@QEAA@PEAVIsolate@1@@Z 00000001800443cd f   node:node.exe
 0001:000433d9       __imp_load_?SlowGetAlignedPointerFromInternalField@Object@v8@@AEAAPEAXH@Z 00000001800443d9 f   node:node.exe
 0001:000433e5       __imp_load_?SlowGetInternalField@Object@v8@@AEAA?AV?$Local@VValue@v8@@@2@H@Z 00000001800443e5 f   node:node.exe
 0001:000433f1       __imp_load_?SetAlignedPointerInInternalField@Object@v8@@QEAAXHPEAX@Z 00000001800443f1 f   node:node.exe
 0001:000433fd       __imp_load_?SetInternalField@Object@v8@@QEAAXHV?$Local@VValue@v8@@@2@@Z 00000001800443fd f   node:node.exe
 0001:00043409       __imp_load_?InternalFieldCount@Object@v8@@QEAAHXZ 0000000180044409 f   node:node.exe
 0001:00043415       __imp_load_?Set@Object@v8@@QEAA_NV?$Local@VValue@v8@@@2@0@Z 0000000180044415 f   node:node.exe
 0001:00043421       __imp_load_?Initialize@Unlocker@v8@@AEAAXPEAVIsolate@2@@Z 0000000180044421 f   node:node.exe
 0001:0004342d       __imp_load_?Set@Template@v8@@QEAAXV?$Local@VName@v8@@@2@V?$Local@VData@v8@@@2@W4PropertyAttribute@2@@Z 000000018004442d f   node:node.exe
 0001:00043439       __imp_load_?SetInternalFieldCount@ObjectTemplate@v8@@QEAAXH@Z 0000000180044439 f   node:node.exe
 0001:00043445       __imp_load_?SetHandler@ObjectTemplate@v8@@QEAAXAEBUIndexedPropertyHandlerConfiguration@2@@Z 0000000180044445 f   node:node.exe
 0001:00043451       __imp_load_?NewInstance@ObjectTemplate@v8@@QEAA?AV?$MaybeLocal@VObject@v8@@@2@V?$Local@VContext@v8@@@2@@Z 0000000180044451 f   node:node.exe
 0001:0004345d       __imp_load_?New@ObjectTemplate@v8@@SA?AV?$Local@VObjectTemplate@v8@@@2@PEAVIsolate@2@V?$Local@VFunctionTemplate@v8@@@2@@Z 000000018004445d f   node:node.exe
 0001:00043469       __imp_load_?New@Integer@v8@@SA?AV?$Local@VInteger@v8@@@2@PEAVIsolate@2@H@Z 0000000180044469 f   node:node.exe
 0001:00043475       __imp_load_?NewInstance@Function@v8@@QEBA?AV?$MaybeLocal@VObject@v8@@@2@V?$Local@VContext@v8@@@2@HQEAV?$Local@VValue@v8@@@2@@Z 0000000180044475 f   node:node.exe
 0001:00043481       __imp_load_?CollectAllGarbage@Isolate@v8@@AEAAXPEBD@Z 0000000180044481 f   node:node.exe
 0001:0004348d       __imp_load_?VisitHandlesForPartialDependence@Isolate@v8@@QEAAXPEAVPersistentHandleVisitor@2@@Z 000000018004448d f   node:node.exe
 0001:00043499       __imp_load_?VisitHandlesWithClassIds@Isolate@v8@@QEAAXPEAVPersistentHandleVisitor@2@@Z 0000000180044499 f   node:node.exe
 0001:000434a5       __imp_load_?VisitExternalResources@Isolate@v8@@QEAAXPEAVExternalResourceVisitor@2@@Z 00000001800444a5 f   node:node.exe
 0001:000434b1       __imp_load_?RemoveMemoryAllocationCallback@Isolate@v8@@QEAAXP6AXW4ObjectSpace@2@W4AllocationAction@2@H@Z@Z 00000001800444b1 f   node:node.exe
 0001:000434bd       __imp_load_?AddMemoryAllocationCallback@Isolate@v8@@QEAAXP6AXW4ObjectSpace@2@W4AllocationAction@2@H@Z01@Z 00000001800444bd f   node:node.exe
 0001:000434c9       __imp_load_?SetCaptureStackTraceForUncaughtExceptions@Isolate@v8@@QEAAX_NHW4StackTraceOptions@StackTrace@2@@Z 00000001800444c9 f   node:node.exe
 0001:000434d5       __imp_load_?SetFailedAccessCheckCallbackFunction@Isolate@v8@@QEAAXP6AXV?$Local@VObject@v8@@@2@W4AccessType@2@V?$Local@VValue@v8@@@2@@Z@Z 00000001800444d5 f   node:node.exe
 0001:000434e1       __imp_load_?RemoveMessageListeners@Isolate@v8@@QEAAXP6AXV?$Local@VMessage@v8@@@2@V?$Local@VValue@v8@@@2@@Z@Z 00000001800444e1 f   node:node.exe
 0001:000434ed       __imp_load_?AddMessageListener@Isolate@v8@@QEAA_NP6AXV?$Local@VMessage@v8@@@2@V?$Local@VValue@v8@@@2@@Z1@Z 00000001800444ed f   node:node.exe
 0001:000434f9       __imp_load_?IsDead@Isolate@v8@@QEAA_NXZ 00000001800444f9 f   node:node.exe
 0001:00043505       __imp_load_?SetAllowCodeGenerationFromStringsCallback@Isolate@v8@@QEAAXP6A_NV?$Local@VContext@v8@@@2@@Z@Z 0000000180044505 f   node:node.exe
 0001:00043511       __imp_load_?SetFatalErrorHandler@Isolate@v8@@QEAAXP6AXPEBD0@Z@Z 0000000180044511 f   node:node.exe
 0001:0004351d       __imp_load_?CancelTerminateExecution@Isolate@v8@@QEAAXXZ 000000018004451d f   node:node.exe
 0001:00043529       __imp_load_?IsExecutionTerminating@Isolate@v8@@QEAA_NXZ 0000000180044529 f   node:node.exe
 0001:00043535       __imp_load_?TerminateExecution@Isolate@v8@@QEAAXXZ 0000000180044535 f   node:node.exe
 0001:00043541       __imp_load_?RemoveGCEpilogueCallback@Isolate@v8@@QEAAXP6AXPEAV12@W4GCType@2@W4GCCallbackFlags@2@@Z@Z 0000000180044541 f   node:node.exe
 0001:0004354d       __imp_load_?RemoveGCPrologueCallback@Isolate@v8@@QEAAXP6AXPEAV12@W4GCType@2@W4GCCallbackFlags@2@@Z@Z 000000018004454d f   node:node.exe
 0001:00043559       __imp_load_?ThrowException@Isolate@v8@@QEAA?AV?$Local@VValue@v8@@@2@V32@@Z 0000000180044559 f   node:node.exe
 0001:00043565       __imp_load_?GetCurrentContext@Isolate@v8@@QEAA?AV?$Local@VContext@v8@@@2@XZ 0000000180044565 f   node:node.exe
 0001:00043571       __imp_load_?Exit@Isolate@v8@@QEAAXXZ 0000000180044571 f   node:node.exe
 0001:0004357d       __imp_load_?Enter@Isolate@v8@@QEAAXXZ 000000018004457d f   node:node.exe
 0001:00043589       __imp_load_?GetCurrent@Isolate@v8@@SAPEAV12@XZ 0000000180044589 f   node:node.exe
 0001:00043595       __imp_load_?ResetToBookmark@ExternalSourceStream@ScriptCompiler@v8@@UEAAXXZ 0000000180044595 f   node:node.exe
 0001:000435a1       ?ResetToBookmark@ExternalSourceStream@ScriptCompiler@v8@@UEAAXXZ 00000001800445a1 f   node:node.exe
 0001:000435a7       __imp_load_?SetBookmark@ExternalSourceStream@ScriptCompiler@v8@@UEAA_NXZ 00000001800445a7 f   node:node.exe
 0001:000435b3       ?SetBookmark@ExternalSourceStream@ScriptCompiler@v8@@UEAA_NXZ 00000001800445b3 f   node:node.exe
 0001:000435b9       __imp_load_?Value@External@v8@@QEBAPEAXXZ 00000001800445b9 f   node:node.exe
 0001:000435c5       __imp_load_?New@External@v8@@SA?AV?$Local@VExternal@v8@@@2@PEAVIsolate@2@PEAX@Z 00000001800445c5 f   node:node.exe
 0001:000435d4       ??0bad_alloc@std@@QEAA@AEBV01@@Z 00000001800445d4 f i libcpmt:xthrow.obj
 0001:000435f8       ??1bad_alloc@std@@UEAA@XZ  00000001800445f8 f i libcpmt:xthrow.obj
 0001:00043608       ??_Ebad_alloc@std@@UEAAPEAXI@Z 0000000180044608 f i libcpmt:xthrow.obj
 0001:00043608       ??_Gbad_alloc@std@@UEAAPEAXI@Z 0000000180044608 f i libcpmt:xthrow.obj
 0001:00043644       ??_U@YAPEAX_K@Z            0000000180044644 f   libcpmt:newaop.obj
 0001:00043660       __security_check_cookie    0000000180044660 f   LIBCMT:amdsecgs.obj
 0001:00043690       memcpy                     0000000180044690 f   LIBCMT:memcpy.obj
 0001:00043690       memmove                    0000000180044690 f   LIBCMT:memcpy.obj
 0001:00043bf8       _wassert                   0000000180044bf8 f   LIBCMT:wassert.obj
 0001:0004455c       __onexitinit               000000018004555c f   LIBCMT:onexit.obj
 0001:000445a0       _onexit                    00000001800455a0 f   LIBCMT:onexit.obj
 0001:000446ac       atexit                     00000001800456ac f   LIBCMT:onexit.obj
 0001:000446c4       _purecall                  00000001800456c4 f   LIBCMT:purevirt.obj
 0001:000446f0       ??2@YAPEAX_K@Z             00000001800456f0 f   LIBCMT:new.obj
 0001:0004475c       ??0_LocaleUpdate@@QEAA@PEAUlocaleinfo_struct@@@Z 000000018004575c f i LIBCMT:stricmp.obj
 0001:00044804       __ascii_stricmp            0000000180045804 f   LIBCMT:stricmp.obj
 0001:00044840       _stricmp                   0000000180045840 f   LIBCMT:stricmp.obj
 0001:00044888       _stricmp_l                 0000000180045888 f   LIBCMT:stricmp.obj
 0001:0004493c       _CRT_INIT                  000000018004593c f   LIBCMT:dllcrt0.obj
 0001:00044a9c       _DllMainCRTStartup         0000000180045a9c f   LIBCMT:dllcrt0.obj
 0001:00044bfc       free                       0000000180045bfc f   LIBCMT:free.obj
 0001:00044c3c       malloc                     0000000180045c3c f   LIBCMT:malloc.obj
 0001:00044cf4       __raise_securityfailure    0000000180045cf4 f   LIBCMT:gs_report.obj
 0001:00044d40       __report_gsfailure         0000000180045d40 f   LIBCMT:gs_report.obj
 0001:00044e14       __report_rangecheckfailure 0000000180045e14 f   LIBCMT:gs_report.obj
 0001:00044e28       __report_securityfailure   0000000180045e28 f   LIBCMT:gs_report.obj
 0001:00044ee0       strlen                     0000000180045ee0 f   LIBCMT:strlen.obj
 0001:00044f88       _CxxThrowException         0000000180045f88 f   LIBCMT:throw.obj
 0001:00045050       ??_Gtype_info@@UEAAPEAXI@Z 0000000180046050 f i LIBCMT:typinfo.obj
 0001:00045050       ??_Etype_info@@UEAAPEAXI@Z 0000000180046050 f i LIBCMT:typinfo.obj
 0001:0004508c       _fpmath                    000000018004608c f   LIBCMT:fpinit.obj
 0001:00045094       _cfltcvt_init              0000000180046094 f   LIBCMT:fpinit.obj
 0001:0004511c       ??0exception@std@@QEAA@AEBQEBDH@Z 000000018004611c f   LIBCMT:stdexcpt.obj
 0001:00045138       ??0exception@std@@QEAA@AEBV01@@Z 0000000180046138 f   LIBCMT:stdexcpt.obj
 0001:00045164       ??1exception@std@@UEAA@XZ  0000000180046164 f   LIBCMT:stdexcpt.obj
 0001:00045174       ??4exception@std@@QEAAAEAV01@AEBV01@@Z 0000000180046174 f   LIBCMT:stdexcpt.obj
 0001:000451b8       ??_Gexception@std@@UEAAPEAXI@Z 00000001800461b8 f i LIBCMT:stdexcpt.obj
 0001:000451b8       ??_Eexception@std@@UEAAPEAXI@Z 00000001800461b8 f i LIBCMT:stdexcpt.obj
 0001:000451f4       ?_Copy_str@exception@std@@AEAAXPEBD@Z 00000001800461f4 f   LIBCMT:stdexcpt.obj
 0001:00045250       ?_Tidy@exception@std@@AEAAXXZ 0000000180046250 f   LIBCMT:stdexcpt.obj
 0001:00045278       ?what@exception@std@@UEBAPEBDXZ 0000000180046278 f   LIBCMT:stdexcpt.obj
 0001:0004528c       __isa_available_init       000000018004628c f   LIBCMT:cpu_disp.obj
 0001:00045430       _call_reportfault          0000000180046430 f   LIBCMT:invarg.obj
 0001:00045524       _initp_misc_invarg         0000000180046524 f   LIBCMT:invarg.obj
 0001:0004552c       _invalid_parameter         000000018004652c f   LIBCMT:invarg.obj
 0001:00045594       _invalid_parameter_noinfo  0000000180046594 f   LIBCMT:invarg.obj
 0001:000455b4       _invoke_watson             00000001800465b4 f   LIBCMT:invarg.obj
 0001:000455f0       memcpy_s                   00000001800465f0 f   LIBCMT:memcpy_s.obj
 0001:00045678       wcscat_s                   0000000180046678 f   LIBCMT:wcscat_s.obj
 0001:00045700       wcscpy_s                   0000000180046700 f   LIBCMT:wcscpy_s.obj
 0001:0004576c       wcslen                     000000018004676c f   LIBCMT:wcslen.obj
 0001:00045788       wcsncat_s                  0000000180046788 f   LIBCMT:wcsncat_s.obj
 0001:00045870       __crtCorExitProcess        0000000180046870 f   LIBCMT:crt0dat.obj
 0001:000458b4       __crtExitProcess           00000001800468b4 f   LIBCMT:crt0dat.obj
 0001:000458cc       __freeCrtMemory            00000001800468cc f   LIBCMT:crt0dat.obj
 0001:00045a14       _amsg_exit                 0000000180046a14 f   LIBCMT:crt0dat.obj
 0001:00045a3c       _cexit                     0000000180046a3c f   LIBCMT:crt0dat.obj
 0001:00045a4c       _cinit                     0000000180046a4c f   LIBCMT:crt0dat.obj
 0001:00045ae4       _exit                      0000000180046ae4 f   LIBCMT:crt0dat.obj
 0001:00045af0       _init_pointers             0000000180046af0 f   LIBCMT:crt0dat.obj
 0001:00045b9c       _initterm_e                0000000180046b9c f   LIBCMT:crt0dat.obj
 0001:00045bd8       _lockexit                  0000000180046bd8 f   LIBCMT:crt0dat.obj
 0001:00045be4       _unlockexit                0000000180046be4 f   LIBCMT:crt0dat.obj
 0001:00045d88       _set_abort_behavior        0000000180046d88 f   LIBCMT:abort.obj
 0001:00045da4       abort                      0000000180046da4 f   LIBCMT:abort.obj
 0001:00045dfc       _set_error_mode            0000000180046dfc f   LIBCMT:errmode.obj
 0001:00045e3c       _itow_s                    0000000180046e3c f   LIBCMT:xtows.obj
 0001:00045f74       __initstdio                0000000180046f74 f   LIBCMT:_file.obj
 0001:0004600c       __endstdio                 000000018004700c f   LIBCMT:_file.obj
 0001:0004603c       __iob_func                 000000018004703c f   LIBCMT:_file.obj
 0001:00046044       _lock_file                 0000000180047044 f   LIBCMT:_file.obj
 0001:000460ac       _lock_file2                00000001800470ac f   LIBCMT:_file.obj
 0001:000460e0       _unlock_file               00000001800470e0 f   LIBCMT:_file.obj
 0001:00046130       _unlock_file2              0000000180047130 f   LIBCMT:_file.obj
 0001:00046150       _fflush_nolock             0000000180047150 f   LIBCMT:fflush.obj
 0001:0004619c       _flush                     000000018004719c f   LIBCMT:fflush.obj
 0001:00046218       _flushall                  0000000180047218 f   LIBCMT:fflush.obj
 0001:00046224       fflush                     0000000180047224 f   LIBCMT:fflush.obj
 0001:00046350       setvbuf                    0000000180047350 f   LIBCMT:setvbuf.obj
 0001:00046468       fwprintf                   0000000180047468 f   LIBCMT:fwprintf.obj
 0001:000464fc       _vswprintf_c_l             00000001800474fc f   LIBCMT:vswprnc.obj
 0001:00046534       _vswprintf_helper          0000000180047534 f   LIBCMT:vswprnc.obj
 0001:00046650       __get_sigabrt              0000000180047650 f   LIBCMT:winsig.obj
 0001:00046660       _initp_misc_winsig         0000000180047660 f   LIBCMT:winsig.obj
 0001:00046680       raise                      0000000180047680 f   LIBCMT:winsig.obj
 0001:000468b4       __crtMessageBoxW           00000001800478b4 f   LIBCMT:crtmboxw.obj
 0001:00046b28       __GSHandlerCheck           0000000180047b28 f   LIBCMT:gshandler.obj
 0001:00046b48       __GSHandlerCheckCommon     0000000180047b48 f   LIBCMT:gshandler.obj
 0001:00046bac       _FF_MSGBANNER              0000000180047bac f   LIBCMT:crt0msg.obj
 0001:00046bf0       _GET_RTERRMSG              0000000180047bf0 f   LIBCMT:crt0msg.obj
 0001:00046c20       _NMSG_WRITE                0000000180047c20 f   LIBCMT:crt0msg.obj
 0001:00046e90       _msize                     0000000180047e90 f   LIBCMT:msize.obj
 0001:00046ecc       _calloc_crt                0000000180047ecc f   LIBCMT:crtheap.obj
 0001:00046f4c       _malloc_crt                0000000180047f4c f   LIBCMT:crtheap.obj
 0001:00046fc8       _realloc_crt               0000000180047fc8 f   LIBCMT:crtheap.obj
 0001:0004704c       __C_specific_handler       000000018004804c f   LIBCMT:chandler.obj
 0001:00047230       _initp_misc_purevirt       0000000180048230 f   LIBCMT:inithelp.obj
 0001:00047238       _clrfp                     0000000180048238 f   LIBCMT:fpctrl.obj
 0001:00047258       _ctrlfp                    0000000180048258 f   LIBCMT:fpctrl.obj
 0001:000472d4       _set_statfp                00000001800482d4 f   LIBCMT:fpctrl.obj
 0001:000472f4       _statfp                    00000001800482f4 f   LIBCMT:fpctrl.obj
 0001:0004742c       _handle_error              000000018004842c f   LIBCMT:libm_error.obj
 0001:00047554       _callnewh                  0000000180048554 f   LIBCMT:handler.obj
 0001:00047588       _initp_heap_handler        0000000180048588 f   LIBCMT:handler.obj
 0001:00047590       __addlocaleref             0000000180048590 f   LIBCMT:localref.obj
 0001:0004761c       __freetlocinfo             000000018004861c f   LIBCMT:localref.obj
 0001:000477b4       __removelocaleref          00000001800487b4 f   LIBCMT:localref.obj
 0001:00047858       __updatetlocinfo           0000000180048858 f   LIBCMT:localref.obj
 0001:000478d0       _updatetlocinfoEx_nolock   00000001800488d0 f   LIBCMT:localref.obj
 0001:00047934       __initmbctable             0000000180048934 f   LIBCMT:mbctype.obj
 0001:00047c50       __updatetmbcinfo           0000000180048c50 f   LIBCMT:mbctype.obj
 0001:00047d0c       _setmbcp                   0000000180048d0c f   LIBCMT:mbctype.obj
 0001:00047f50       _setmbcp_nolock            0000000180048f50 f   LIBCMT:mbctype.obj
 0001:00048200       _tolower_l                 0000000180049200 f   LIBCMT:tolower.obj
 0001:00048354       tolower                    0000000180049354 f   LIBCMT:tolower.obj
 0001:00048374       _freefls                   0000000180049374 f   LIBCMT:tidtable.obj
 0001:000484a8       _freeptd                   00000001800494a8 f   LIBCMT:tidtable.obj
 0001:000484e4       _getptd                    00000001800494e4 f   LIBCMT:tidtable.obj
 0001:00048508       _getptd_noexit             0000000180049508 f   LIBCMT:tidtable.obj
 0001:0004858c       _initptd                   000000018004958c f   LIBCMT:tidtable.obj
 0001:00048650       _mtinit                    0000000180049650 f   LIBCMT:tidtable.obj
 0001:000486d0       _mtterm                    00000001800496d0 f   LIBCMT:tidtable.obj
 0001:000486f4       __doserrno                 00000001800496f4 f   LIBCMT:dosmap.obj
 0001:00048714       _dosmaperr                 0000000180049714 f   LIBCMT:dosmap.obj
 0001:00048764       _errno                     0000000180049764 f   LIBCMT:dosmap.obj
 0001:00048784       _get_errno_from_oserr      0000000180049784 f   LIBCMT:dosmap.obj
 0001:000487d4       _locterm                   00000001800497d4 f   LIBCMT:wsetloca.obj
 0001:0004881c       _XcptFilter                000000018004981c f   LIBCMT:winxfltr.obj
 0001:000489e8       __CppXcptFilter            00000001800499e8 f   LIBCMT:winxfltr.obj
 0001:000489fc       _heap_init                 00000001800499fc f   LIBCMT:heapinit.obj
 0001:00048a1c       _heap_term                 0000000180049a1c f   LIBCMT:heapinit.obj
 0001:00048a28       _ioinit                    0000000180049a28 f   LIBCMT:ioinit.obj
 0001:00048d58       _ioterm                    0000000180049d58 f   LIBCMT:ioinit.obj
 0001:00048dcc       _setargv                   0000000180049dcc f   LIBCMT:stdargv.obj
 0001:00049088       _setenvp                   000000018004a088 f   LIBCMT:stdenvp.obj
 0001:000491bc       __security_init_cookie     000000018004a1bc f   LIBCMT:gs_support.obj
 0001:00049268       DllMain                    000000018004a268 f   LIBCMT:dllmain.obj
 0001:00049270       __crtGetEnvironmentStringsA 000000018004a270 f   LIBCMT:a_env.obj
 0001:00049364       __crtCaptureCurrentContext 000000018004a364 f   LIBCMT:winapisupp.obj
 0001:000493d4       __crtCapturePreviousContext 000000018004a3d4 f   LIBCMT:winapisupp.obj
 0001:00049448       __crtFlsAlloc              000000018004a448 f   LIBCMT:winapisupp.obj
 0001:00049464       __crtFlsFree               000000018004a464 f   LIBCMT:winapisupp.obj
 0001:00049480       __crtFlsGetValue           000000018004a480 f   LIBCMT:winapisupp.obj
 0001:0004949c       __crtFlsSetValue           000000018004a49c f   LIBCMT:winapisupp.obj
 0001:000494b8       __crtInitializeCriticalSectionEx 000000018004a4b8 f   LIBCMT:winapisupp.obj
 0001:000494e4       __crtIsPackagedApp         000000018004a4e4 f   LIBCMT:winapisupp.obj
 0001:00049530       __crtLoadWinApiPointers    000000018004a530 f   LIBCMT:winapisupp.obj
 0001:0004992c       __crtSleep                 000000018004a92c f   LIBCMT:winapisupp.obj
 0001:00049934       __crtTerminateProcess      000000018004a934 f   LIBCMT:winapisupp.obj
 0001:00049954       __crtUnhandledException    000000018004a954 f   LIBCMT:winapisupp.obj
 0001:00049974       _RTC_Initialize            000000018004a974 f   LIBCMT:initsect.obj
 0001:000499ac       _RTC_Terminate             000000018004a9ac f   LIBCMT:initsect.obj
 0001:000499e4       __crt_debugger_hook        000000018004a9e4 f   LIBCMT:dbghook.obj
 0001:000499ec       __DestructExceptionObject  000000018004a9ec f   LIBCMT:frame.obj
 0001:00049a5c       ?terminate@@YAXXZ          000000018004aa5c f   LIBCMT:hooks.obj
 0001:00049a7c       _initp_eh_hooks            000000018004aa7c f   LIBCMT:hooks.obj
 0001:00049ab0       strcmp                     000000018004aab0 f   LIBCMT:strcmp.obj
 0001:00049b18       ?_Type_info_dtor@type_info@@CAXPEAV1@@Z 000000018004ab18 f   LIBCMT:typname.obj
 0001:00049b84       _cfltcvt                   000000018004ab84 f   LIBCMT:cvt.obj
 0001:00049ba8       _cfltcvt_l                 000000018004aba8 f   LIBCMT:cvt.obj
 0001:00049c28       _cftoa_l                   000000018004ac28 f   LIBCMT:cvt.obj
 0001:0004a1d4       _cftoe_l                   000000018004b1d4 f   LIBCMT:cvt.obj
 0001:0004a430       _cftof_l                   000000018004b430 f   LIBCMT:cvt.obj
 0001:0004a504       _cftog_l                   000000018004b504 f   LIBCMT:cvt.obj
 0001:0004a638       _cropzeros                 000000018004b638 f   LIBCMT:cvt.obj
 0001:0004a640       _cropzeros_l               000000018004b640 f   LIBCMT:cvt.obj
 0001:0004a6d8       _fassign                   000000018004b6d8 f   LIBCMT:cvt.obj
 0001:0004a6e0       _fassign_l                 000000018004b6e0 f   LIBCMT:cvt.obj
 0001:0004a720       _forcdecpt                 000000018004b720 f   LIBCMT:cvt.obj
 0001:0004a728       _forcdecpt_l               000000018004b728 f   LIBCMT:cvt.obj
 0001:0004a7a8       _positive                  000000018004b7a8 f   LIBCMT:cvt.obj
 0001:0004a7bc       _initp_misc_cfltcvt_tab    000000018004b7bc f   LIBCMT:cmiscdat.obj
 0001:0004a7f8       strcpy_s                   000000018004b7f8 f   LIBCMT:strcpy_s.obj
 0001:0004a870       memset                     000000018004b870 f   LIBCMT:memset.obj
 0001:0004aa9c       _lock                      000000018004ba9c f   LIBCMT:mlock.obj
 0001:0004aae0       _mtdeletelocks             000000018004bae0 f   LIBCMT:mlock.obj
 0001:0004ab68       _mtinitlocknum             000000018004bb68 f   LIBCMT:mlock.obj
 0001:0004ac28       _mtinitlocks               000000018004bc28 f   LIBCMT:mlock.obj
 0001:0004ac8c       _unlock                    000000018004bc8c f   LIBCMT:mlock.obj
 0001:0004acb0       _FindPESection             000000018004bcb0 f   LIBCMT:pesect.obj
 0001:0004ad00       _IsNonwritableInCurrentImage 000000018004bd00 f   LIBCMT:pesect.obj
 0001:0004ad50       _ValidateImageBase         000000018004bd50 f   LIBCMT:pesect.obj
 0001:0004ad80       _initp_misc_rand_s         000000018004bd80 f   LIBCMT:rand_s.obj
 0001:0004ad88       _ftbuf                     000000018004bd88 f   LIBCMT:_sftbuf.obj
 0001:0004adc0       _stbuf                     000000018004bdc0 f   LIBCMT:_sftbuf.obj
 0001:0004ae90       _fcloseall                 000000018004be90 f   LIBCMT:closeall.obj
 0001:0004af38       _fileno                    000000018004bf38 f   LIBCMT:fileno.obj
 0001:0004af60       _commit                    000000018004bf60 f   LIBCMT:commit.obj
 0001:0004b038       _write                     000000018004c038 f   LIBCMT:write.obj
 0001:0004b11c       _write_nolock              000000018004c11c f   LIBCMT:write.obj
 0001:0004b910       _freebuf                   000000018004c910 f   LIBCMT:_freebuf.obj
 0001:0004b948       _woutput_l                 000000018004c948 f   LIBCMT:woutput.obj
 0001:0004c508       _flsbuf                    000000018004d508 f   LIBCMT:_flsbuf.obj
 0001:0004c694       wcsncpy_s                  000000018004d694 f   LIBCMT:wcsncpy_s.obj
 0001:0004c760       realloc                    000000018004d760 f   LIBCMT:realloc.obj
 0001:0004c834       _calloc_impl               000000018004d834 f   LIBCMT:calloc_impl.obj
 0001:0004c8e0       _local_unwind              000000018004d8e0 f   LIBCMT:jmpuwind.obj
 0001:0004c910       _NLG_Notify                000000018004d910 f   LIBCMT:jmpuwind.obj
 0001:0004c930       __NLG_Dispatch2            000000018004d930 f   LIBCMT:jmpuwind.obj
 0001:0004c940       __NLG_Return2              000000018004d940 f   LIBCMT:jmpuwind.obj
 0001:0004c944       GetTableIndexFromLocaleName 000000018004d944 f   LIBCMT:winapinls.obj
 0001:0004c9d0       __crtDownlevelLocaleNameToLCID 000000018004d9d0 f   LIBCMT:winapinls.obj
 0001:0004ca04       __crtLCMapStringEx         000000018004da04 f   LIBCMT:winapinls.obj
 0001:0004ca94       __wcsnicmp_ascii           000000018004da94 f   LIBCMT:winapinls.obj
 0001:0004cb00       _get_fpsr                  000000018004db00 f   LIBCMT:fpsr.obj
 0001:0004cb10       _set_fpsr                  000000018004db10 f   LIBCMT:fpsr.obj
 0001:0004cb1a       _fclrf                     000000018004db1a f   LIBCMT:fpsr.obj
 0001:0004cb2e       _frnd                      000000018004db2e f   LIBCMT:fpsr.obj
 0001:0004cb50       _raise_exc                 000000018004db50 f   LIBCMT:fpexcept.obj
 0001:0004cb78       _raise_exc_ex              000000018004db78 f   LIBCMT:fpexcept.obj
 0001:0004ce7c       _set_errno_from_matherr    000000018004de7c f   LIBCMT:fpexcept.obj
 0001:0004ceac       _matherr                   000000018004deac f   LIBCMT:matherr.obj
 0001:0004ceb0       __free_lconv_mon           000000018004deb0 f   LIBCMT:initmon.obj
 0001:0004cfbc       __free_lconv_num           000000018004dfbc f   LIBCMT:initnum.obj
 0001:0004d028       __free_lc_time             000000018004e028 f   LIBCMT:inittime.obj
 0001:0004d710       __crtLCMapStringA          000000018004e710 f   LIBCMT:a_map.obj
 0001:0004d920       __crtGetStringTypeA        000000018004e920 f   LIBCMT:a_str.obj
 0001:0004d99c       _isctype_l                 000000018004e99c f   LIBCMT:isctype.obj
 0001:0004da78       _isleadbyte_l              000000018004ea78 f i LIBCMT:_wctype.obj
 0001:0004dabc       isleadbyte                 000000018004eabc f i LIBCMT:_wctype.obj
 0001:0004db20       memcmp                     000000018004eb20 f   LIBCMT:memcmp.obj
 0001:0004dc64       _ismbblead                 000000018004ec64 f   LIBCMT:ismbbyte.obj
 0001:0004dc90       _CallSettingFrame          000000018004ec90 f   LIBCMT:handlers.obj
 0001:0004dcd0       _GetNextInstrOffset        000000018004ecd0 f   LIBCMT:handlers.obj
 0001:0004dcd8       isdigit                    000000018004ecd8 f i LIBCMT:_ctype.obj
 0001:0004dd54       strrchr                    000000018004ed54 f   LIBCMT:strrchr.obj
 0001:0004de98       _fptostr                   000000018004ee98 f   LIBCMT:_fptostr.obj
 0001:0004df64       __crt_atoflt_l             000000018004ef64 f   LIBCMT:atodbl.obj
 0001:0004e034       _atodbl_l                  000000018004f034 f   LIBCMT:atodbl.obj
 0001:0004e0fc       _atoflt_l                  000000018004f0fc f   LIBCMT:atodbl.obj
 0001:0004e104       __dtold                    000000018004f104 f   LIBCMT:cfout.obj
 0001:0004e1d4       _fltout2                   000000018004f1d4 f   LIBCMT:cfout.obj
 0001:0004e28c       _fptrap                    000000018004f28c f   LIBCMT:crt0fp.obj
 0001:0004e298       _isatty                    000000018004f298 f   LIBCMT:isatty.obj
 0001:0004e2f8       _fclose_nolock             000000018004f2f8 f   LIBCMT:fclose.obj
 0001:0004e374       fclose                     000000018004f374 f   LIBCMT:fclose.obj
 0001:0004e3dc       __lock_fhandle             000000018004f3dc f   LIBCMT:osfinfo.obj
 0001:0004e474       _free_osfhnd               000000018004f474 f   LIBCMT:osfinfo.obj
 0001:0004e520       _get_osfhandle             000000018004f520 f   LIBCMT:osfinfo.obj
 0001:0004e594       _unlock_fhandle            000000018004f594 f   LIBCMT:osfinfo.obj
 0001:0004e5c0       _lseeki64                  000000018004f5c0 f   LIBCMT:lseeki64.obj
 0001:0004e6a8       _lseeki64_nolock           000000018004f6a8 f   LIBCMT:lseeki64.obj
 0001:0004e73c       _mbtowc_l                  000000018004f73c f   LIBCMT:mbtowc.obj
 0001:0004e890       mbtowc                     000000018004f890 f   LIBCMT:mbtowc.obj
 0001:0004e898       _putwch_nolock             000000018004f898 f   LIBCMT:putwch.obj
 0001:0004e910       __chkstk                   000000018004f910 f   LIBCMT:chkstk.obj
 0001:0004e910       _alloca_probe              000000018004f910 f   LIBCMT:chkstk.obj
 0001:0004e960       _get_printf_count_output   000000018004f960 f   LIBCMT:printf.obj
 0001:0004e978       _fputwc_nolock             000000018004f978 f   LIBCMT:fputwc.obj
 0001:0004eb6c       _getbuf                    000000018004fb6c f   LIBCMT:_getbuf.obj
 0001:0004ebc0       _ld12tod                   000000018004fbc0 f   LIBCMT:intrncvt.obj
 0001:0004f178       _ld12tof                   0000000180050178 f   LIBCMT:intrncvt.obj
 0001:0004f730       __strgtold12_l             0000000180050730 f   LIBCMT:strgtold.obj
 0001:0004ff94       $I10_OUTPUT                0000000180050f94 f   LIBCMT:x10fout.obj
 0001:00050a6c       _close                     0000000180051a6c f   LIBCMT:close.obj
 0001:00050b30       _close_nolock              0000000180051b30 f   LIBCMT:close.obj
 0001:00050bec       __termconout               0000000180051bec f   LIBCMT:initcon.obj
 0001:00050c0c       __initconout               0000000180051c0c f   LIBCMT:initcon.obj
 0001:00050c48       _wctomb_s_l                0000000180051c48 f   LIBCMT:wctomb.obj
 0001:00050dd4       wctomb_s                   0000000180051dd4 f   LIBCMT:wctomb.obj
 0001:00050de8       _flswbuf                   0000000180051de8 f   LIBCMT:_flswbuf.obj
 0001:00050f78       __mtold12                  0000000180051f78 f   LIBCMT:mantold.obj
 0001:000511a0       IsProcessorFeaturePresent  00000001800521a0 f   kernel32:KERNEL32.dll
 0001:000511a6       RtlUnwindEx                00000001800521a6 f   kernel32:KERNEL32.dll
 0001:000511ac       __delayLoadHelper2         00000001800521ac f   DelayImp:delayhlp.obj
 0001:00051444       atan2                      0000000180052444 f   LIBCMT:atan2.obj
 0001:00051c00       cos                        0000000180052c00 f   LIBCMT:cos.obj
 0001:00052160       exp                        0000000180053160 f   LIBCMT:exp.obj
 0001:000525c8       floor                      00000001800535c8 f   LIBCMT:floor.obj
 0001:000526d0       log                        00000001800536d0 f   LIBCMT:log.obj
 0001:00052c10       log10                      0000000180053c10 f   LIBCMT:log10.obj
 0001:000531d0       pow                        00000001800541d0 f   LIBCMT:pow.obj
 0001:00054864       sqrt                       0000000180055864 f   LIBCMT:sqrt.obj
 0001:00054970       __fma3_lib_init            0000000180055970 f   LIBCMT:fma3_available.obj
 0001:000549b0       __remainder_piby2_forAsm   00000001800559b0 f   LIBCMT:remainder_piby2_forAsm.obj
 0001:00054bc0       __remainder_piby2_cw_forAsm 0000000180055bc0 f   LIBCMT:remainder_piby2_forAsm.obj
 0001:00054d00       __remainder_piby2_fma3     0000000180055d00 f   LIBCMT:remainder_piby2_forFMA3.obj
 0001:00054ef0       __remainder_piby2_fma3_bdl 0000000180055ef0 f   LIBCMT:remainder_piby2_forFMA3.obj
 0001:00054f68       _cos_special               0000000180055f68 f   LIBCMT:sincos_special.obj
 0001:00054f7c       _sincos_special            0000000180055f7c f   LIBCMT:sincos_special.obj
 0001:00055050       _exp_special               0000000180056050 f   LIBCMT:exp_special.obj
 0001:00055120       _log10_special             0000000180056120 f   LIBCMT:log_special.obj
 0001:00055140       _log_special               0000000180056140 f   LIBCMT:log_special.obj
 0001:00055230       _pow_special               0000000180056230 f   LIBCMT:pow_special.obj
 0002:00000000       __imp_GetModuleHandleA     0000000180057000     kernel32:KERNEL32.dll
 0002:00000008       __imp_GetStdHandle         0000000180057008     kernel32:KERNEL32.dll
 0002:00000010       __imp_GetFileType          0000000180057010     kernel32:KERNEL32.dll
 0002:00000018       __imp_GetModuleFileNameW   0000000180057018     kernel32:KERNEL32.dll
 0002:00000020       __imp_GetModuleHandleExW   0000000180057020     kernel32:KERNEL32.dll
 0002:00000028       __imp_WriteConsoleW        0000000180057028     kernel32:KERNEL32.dll
 0002:00000030       __imp_EncodePointer        0000000180057030     kernel32:KERNEL32.dll
 0002:00000038       __imp_DecodePointer        0000000180057038     kernel32:KERNEL32.dll
 0002:00000040       __imp_GetCommandLineA      0000000180057040     kernel32:KERNEL32.dll
 0002:00000048       __imp_GetCurrentThreadId   0000000180057048     kernel32:KERNEL32.dll
 0002:00000050       __imp_GetLastError         0000000180057050     kernel32:KERNEL32.dll
 0002:00000058       __imp_HeapFree             0000000180057058     kernel32:KERNEL32.dll
 0002:00000060       __imp_HeapAlloc            0000000180057060     kernel32:KERNEL32.dll
 0002:00000068       __imp_IsDebuggerPresent    0000000180057068     kernel32:KERNEL32.dll
 0002:00000070       __imp_IsProcessorFeaturePresent 0000000180057070     kernel32:KERNEL32.dll
 0002:00000078       __imp_RtlPcToFileHeader    0000000180057078     kernel32:KERNEL32.dll
 0002:00000080       __imp_RaiseException       0000000180057080     kernel32:KERNEL32.dll
 0002:00000088       __imp_RtlLookupFunctionEntry 0000000180057088     kernel32:KERNEL32.dll
 0002:00000090       __imp_RtlUnwindEx          0000000180057090     kernel32:KERNEL32.dll
 0002:00000098       __imp_ExitProcess          0000000180057098     kernel32:KERNEL32.dll
 0002:000000a0       __imp_GetProcAddress       00000001800570a0     kernel32:KERNEL32.dll
 0002:000000a8       __imp_MultiByteToWideChar  00000001800570a8     kernel32:KERNEL32.dll
 0002:000000b0       __imp_WideCharToMultiByte  00000001800570b0     kernel32:KERNEL32.dll
 0002:000000b8       __imp_EnterCriticalSection 00000001800570b8     kernel32:KERNEL32.dll
 0002:000000c0       __imp_LeaveCriticalSection 00000001800570c0     kernel32:KERNEL32.dll
 0002:000000c8       __imp_OutputDebugStringW   00000001800570c8     kernel32:KERNEL32.dll
 0002:000000d0       __imp_LoadLibraryExW       00000001800570d0     kernel32:KERNEL32.dll
 0002:000000d8       __imp_WriteFile            00000001800570d8     kernel32:KERNEL32.dll
 0002:000000e0       __imp_HeapSize             00000001800570e0     kernel32:KERNEL32.dll
 0002:000000e8       __imp_IsValidCodePage      00000001800570e8     kernel32:KERNEL32.dll
 0002:000000f0       __imp_GetACP               00000001800570f0     kernel32:KERNEL32.dll
 0002:000000f8       __imp_GetOEMCP             00000001800570f8     kernel32:KERNEL32.dll
 0002:00000100       __imp_GetCPInfo            0000000180057100     kernel32:KERNEL32.dll
 0002:00000108       __imp_SetLastError         0000000180057108     kernel32:KERNEL32.dll
 0002:00000110       __imp_GetProcessHeap       0000000180057110     kernel32:KERNEL32.dll
 0002:00000118       __imp_DeleteCriticalSection 0000000180057118     kernel32:KERNEL32.dll
 0002:00000120       __imp_GetStartupInfoW      0000000180057120     kernel32:KERNEL32.dll
 0002:00000128       __imp_GetModuleFileNameA   0000000180057128     kernel32:KERNEL32.dll
 0002:00000130       __imp_QueryPerformanceCounter 0000000180057130     kernel32:KERNEL32.dll
 0002:00000138       __imp_GetCurrentProcessId  0000000180057138     kernel32:KERNEL32.dll
 0002:00000140       __imp_GetSystemTimeAsFileTime 0000000180057140     kernel32:KERNEL32.dll
 0002:00000148       __imp_GetEnvironmentStringsW 0000000180057148     kernel32:KERNEL32.dll
 0002:00000150       __imp_FreeEnvironmentStringsW 0000000180057150     kernel32:KERNEL32.dll
 0002:00000158       __imp_RtlCaptureContext    0000000180057158     kernel32:KERNEL32.dll
 0002:00000160       __imp_RtlVirtualUnwind     0000000180057160     kernel32:KERNEL32.dll
 0002:00000168       __imp_UnhandledExceptionFilter 0000000180057168     kernel32:KERNEL32.dll
 0002:00000170       __imp_SetUnhandledExceptionFilter 0000000180057170     kernel32:KERNEL32.dll
 0002:00000178       __imp_InitializeCriticalSectionAndSpinCount 0000000180057178     kernel32:KERNEL32.dll
 0002:00000180       __imp_Sleep                0000000180057180     kernel32:KERNEL32.dll
 0002:00000188       __imp_GetCurrentProcess    0000000180057188     kernel32:KERNEL32.dll
 0002:00000190       __imp_TerminateProcess     0000000180057190     kernel32:KERNEL32.dll
 0002:00000198       __imp_TlsAlloc             0000000180057198     kernel32:KERNEL32.dll
 0002:000001a0       __imp_TlsGetValue          00000001800571a0     kernel32:KERNEL32.dll
 0002:000001a8       __imp_TlsSetValue          00000001800571a8     kernel32:KERNEL32.dll
 0002:000001b0       __imp_TlsFree              00000001800571b0     kernel32:KERNEL32.dll
 0002:000001b8       __imp_GetModuleHandleW     00000001800571b8     kernel32:KERNEL32.dll
 0002:000001c0       __imp_FreeLibrary          00000001800571c0     kernel32:KERNEL32.dll
 0002:000001c8       __imp_FlushFileBuffers     00000001800571c8     kernel32:KERNEL32.dll
 0002:000001d0       __imp_GetConsoleCP         00000001800571d0     kernel32:KERNEL32.dll
 0002:000001d8       __imp_GetConsoleMode       00000001800571d8     kernel32:KERNEL32.dll
 0002:000001e0       __imp_HeapReAlloc          00000001800571e0     kernel32:KERNEL32.dll
 0002:000001e8       __imp_LCMapStringW         00000001800571e8     kernel32:KERNEL32.dll
 0002:000001f0       __imp_GetStringTypeW       00000001800571f0     kernel32:KERNEL32.dll
 0002:000001f8       __imp_SetStdHandle         00000001800571f8     kernel32:KERNEL32.dll
 0002:00000200       __imp_SetFilePointerEx     0000000180057200     kernel32:KERNEL32.dll
 0002:00000208       __imp_CloseHandle          0000000180057208     kernel32:KERNEL32.dll
 0002:00000210       __imp_CreateFileW          0000000180057210     kernel32:KERNEL32.dll
 0002:00000218       __imp_LoadLibraryExA       0000000180057218     kernel32:KERNEL32.dll
 0002:00000220       \177KERNEL32_NULL_THUNK_DATA 0000000180057220     kernel32:KERNEL32.dll
 0002:00000228       __xc_a                     0000000180057228     LIBCMT:crt0init.obj
 0002:00000240       _register_node_opus_       0000000180057240     node-opus.obj
 0002:00000248       __xc_z                     0000000180057248     LIBCMT:crt0init.obj
 0002:00000250       __xi_a                     0000000180057250     LIBCMT:crt0init.obj
 0002:00000280       __xi_z                     0000000180057280     LIBCMT:crt0init.obj
 0002:00000288       __xp_a                     0000000180057288     LIBCMT:crt0init.obj
 0002:000002a8       __xp_z                     00000001800572a8     LIBCMT:crt0init.obj
 0002:000002b0       __xt_a                     00000001800572b0     LIBCMT:crt0init.obj
 0002:000002b8       __xt_z                     00000001800572b8     LIBCMT:crt0init.obj
 0002:00000300       __sz_node_exe              0000000180057300     node:node.exe
 0002:00000cb0       ??_C@_0BC@CIJDGCDI@permission?5denied?$AA@ 0000000180057cb0     libcpmt:syserror.obj
 0002:00000cc8       ??_C@_0M@MIDIAGJP@file?5exists?$AA@ 0000000180057cc8     libcpmt:syserror.obj
 0002:00000cd8       ??_C@_0P@FDINDDOK@no?5such?5device?$AA@ 0000000180057cd8     libcpmt:syserror.obj
 0002:00000ce8       ??_C@_0BC@EJHOMAAK@filename?5too?5long?$AA@ 0000000180057ce8     libcpmt:syserror.obj
 0002:00000d00       ??_C@_0BI@NGCEHDD@device?5or?5resource?5busy?$AA@ 0000000180057d00     libcpmt:syserror.obj
 0002:00000d18       ??_C@_08GLNPIFBN@io?5error?$AA@ 0000000180057d18     libcpmt:syserror.obj
 0002:00000d28       ??_C@_0BE@JIDOCPHM@directory?5not?5empty?$AA@ 0000000180057d28     libcpmt:syserror.obj
 0002:00000d40       ??_C@_0BD@IJDJKDEA@no?5space?5on?5device?$AA@ 0000000180057d40     libcpmt:syserror.obj
 0002:00000d58       ??_C@_0BK@NDOCBPGE@no?5such?5file?5or?5directory?$AA@ 0000000180057d58     libcpmt:syserror.obj
 0002:00000d78       ??_C@_0BH@KEFGLDAF@function?5not?5supported?$AA@ 0000000180057d78     libcpmt:syserror.obj
 0002:00000d90       ??_C@_0BC@NJECKMKE@no?5lock?5available?$AA@ 0000000180057d90     libcpmt:syserror.obj
 0002:00000da8       ??_C@_0BC@ENOOLCNF@not?5enough?5memory?$AA@ 0000000180057da8     libcpmt:syserror.obj
 0002:00000dc0       ??_C@_0BP@LKNGHENJ@resource?5unavailable?5try?5again?$AA@ 0000000180057dc0     libcpmt:syserror.obj
 0002:00000de0       ??_C@_0BC@PPHBOELF@cross?5device?5link?$AA@ 0000000180057de0     libcpmt:syserror.obj
 0002:00000df8       ??_C@_0BD@MOLBPMEA@operation?5canceled?$AA@ 0000000180057df8     libcpmt:syserror.obj
 0002:00000e10       ??_C@_0BE@GHAFMPAH@too?5many?5files?5open?$AA@ 0000000180057e10     libcpmt:syserror.obj
 0002:00000e28       ??_C@_0BC@FNODOBAE@permission_denied?$AA@ 0000000180057e28     libcpmt:syserror.obj
 0002:00000e40       ??_C@_0P@LNDJPBFK@address_in_use?$AA@ 0000000180057e40     libcpmt:syserror.obj
 0002:00000e50       ??_C@_0BG@IPMGOJF@address_not_available?$AA@ 0000000180057e50     libcpmt:syserror.obj
 0002:00000e68       ??_C@_0BN@LCBDHODA@address_family_not_supported?$AA@ 0000000180057e68     libcpmt:syserror.obj
 0002:00000e88       ??_C@_0BP@FOJJHMCC@connection_already_in_progress?$AA@ 0000000180057e88     libcpmt:syserror.obj
 0002:00000ea8       ??_C@_0BE@DLHHIBGN@bad_file_descriptor?$AA@ 0000000180057ea8     libcpmt:syserror.obj
 0002:00000ec0       ??_C@_0BD@OJMJDIGI@connection_aborted?$AA@ 0000000180057ec0     libcpmt:syserror.obj
 0002:00000ed8       ??_C@_0BD@NGKCIFEP@connection_refused?$AA@ 0000000180057ed8     libcpmt:syserror.obj
 0002:00000ef0       ??_C@_0BB@JOANDNCK@connection_reset?$AA@ 0000000180057ef0     libcpmt:syserror.obj
 0002:00000f08       ??_C@_0BN@JLJNLKLK@destination_address_required?$AA@ 0000000180057f08     libcpmt:syserror.obj
 0002:00000f28       ??_C@_0M@IJGMGFGP@bad_address?$AA@ 0000000180057f28     libcpmt:syserror.obj
 0002:00000f38       ??_C@_0BB@KKNHPPIN@host_unreachable?$AA@ 0000000180057f38     libcpmt:syserror.obj
 0002:00000f50       ??_C@_0BG@DJGBJIIK@operation_in_progress?$AA@ 0000000180057f50     libcpmt:syserror.obj
 0002:00000f68       ??_C@_0M@EGEKIIMP@interrupted?$AA@ 0000000180057f68     libcpmt:syserror.obj
 0002:00000f78       ??_C@_0BB@FFIHMIPJ@invalid_argument?$AA@ 0000000180057f78     libcpmt:syserror.obj
 0002:00000f90       ??_C@_0BC@FIFLCHLO@already_connected?$AA@ 0000000180057f90     libcpmt:syserror.obj
 0002:00000fa8       ??_C@_0BE@GJJJJDDA@too_many_files_open?$AA@ 0000000180057fa8     libcpmt:syserror.obj
 0002:00000fc0       ??_C@_0N@HPMLKHPL@message_size?$AA@ 0000000180057fc0     libcpmt:syserror.obj
 0002:00000fd0       ??_C@_0BC@LEEIKBAL@filename_too_long?$AA@ 0000000180057fd0     libcpmt:syserror.obj
 0002:00000fe8       ??_C@_0N@FCPALPJK@network_down?$AA@ 0000000180057fe8     libcpmt:syserror.obj
 0002:00000ff8       ??_C@_0O@EHNDLHIG@network_reset?$AA@ 0000000180057ff8     libcpmt:syserror.obj
 0002:00001008       ??_C@_0BE@JFNJIDNF@network_unreachable?$AA@ 0000000180058008     libcpmt:syserror.obj
 0002:00001020       ??_C@_0BA@FDIJKJCL@no_buffer_space?$AA@ 0000000180058020     libcpmt:syserror.obj
 0002:00001030       ??_C@_0BD@JHIHCGKP@no_protocol_option?$AA@ 0000000180058030     libcpmt:syserror.obj
 0002:00001048       ??_C@_0O@GBCLHHD@not_connected?$AA@ 0000000180058048     libcpmt:syserror.obj
 0002:00001058       ??_C@_0N@IMHKKLEM@not_a_socket?$AA@ 0000000180058058     libcpmt:syserror.obj
 0002:00001068       ??_C@_0BI@ICEIDKLJ@operation_not_supported?$AA@ 0000000180058068     libcpmt:syserror.obj
 0002:00001080       ??_C@_0BH@KAPBAIJF@protocol_not_supported?$AA@ 0000000180058080     libcpmt:syserror.obj
 0002:00001098       ??_C@_0BE@GAOJJFPC@wrong_protocol_type?$AA@ 0000000180058098     libcpmt:syserror.obj
 0002:000010b0       ??_C@_09NCHNLHPG@timed_out?$AA@ 00000001800580b0     libcpmt:syserror.obj
 0002:000010c0       ??_C@_0BG@GDGHKFDH@operation_would_block?$AA@ 00000001800580c0     libcpmt:syserror.obj
 0002:000010d8       ??_C@_0BN@LKKBCCDB@address?5family?5not?5supported?$AA@ 00000001800580d8     libcpmt:syserror.obj
 0002:000010f8       ??_C@_0P@LDMLAFHI@address?5in?5use?$AA@ 00000001800580f8     libcpmt:syserror.obj
 0002:00001108       ??_C@_0BG@DHPCNBJB@address?5not?5available?$AA@ 0000000180058108     libcpmt:syserror.obj
 0002:00001120       ??_C@_0BC@DFIBIBIL@already?5connected?$AA@ 0000000180058120     libcpmt:syserror.obj
 0002:00001138       ??_C@_0BH@CAKOHOMI@argument?5list?5too?5long?$AA@ 0000000180058138     libcpmt:syserror.obj
 0002:00001150       ??_C@_0BH@CGIMPKIM@argument?5out?5of?5domain?$AA@ 0000000180058150     libcpmt:syserror.obj
 0002:00001168       ??_C@_0M@KGHGGJGL@bad?5address?$AA@ 0000000180058168     libcpmt:syserror.obj
 0002:00001178       ??_C@_0BE@MPJPGCEO@bad?5file?5descriptor?$AA@ 0000000180058178     libcpmt:syserror.obj
 0002:00001190       ??_C@_0M@PMMIEFCP@bad?5message?$AA@ 0000000180058190     libcpmt:syserror.obj
 0002:000011a0       ??_C@_0M@KPHOFDBE@broken?5pipe?$AA@ 00000001800581a0     libcpmt:syserror.obj
 0002:000011b0       ??_C@_0BD@MGNDDEGM@connection?5aborted?$AA@ 00000001800581b0     libcpmt:syserror.obj
 0002:000011c8       ??_C@_0BP@KAIHPOGN@connection?5already?5in?5progress?$AA@ 00000001800581c8     libcpmt:syserror.obj
 0002:000011e8       ??_C@_0BD@PJLIIJEL@connection?5refused?$AA@ 00000001800581e8     libcpmt:syserror.obj
 0002:00001200       ??_C@_0BB@IECNJNOI@connection?5reset?$AA@ 0000000180058200     libcpmt:syserror.obj
 0002:00001218       ??_C@_0BN@KDMIFEIP@destination?5address?5required?$AA@ 0000000180058218     libcpmt:syserror.obj
 0002:00001238       ??_C@_0BI@BNCLIGPB@executable?5format?5error?$AA@ 0000000180058238     libcpmt:syserror.obj
 0002:00001250       ??_C@_0P@DNAJLBJK@file?5too?5large?$AA@ 0000000180058250     libcpmt:syserror.obj
 0002:00001260       ??_C@_0BB@DHFDFGDM@host?5unreachable?$AA@ 0000000180058260     libcpmt:syserror.obj
 0002:00001278       ??_C@_0BD@JPHBMONG@identifier?5removed?$AA@ 0000000180058278     libcpmt:syserror.obj
 0002:00001290       ??_C@_0BG@CDNPAGJK@illegal?5byte?5sequence?$AA@ 0000000180058290     libcpmt:syserror.obj
 0002:000012a8       ??_C@_0CD@BNPLBMNA@inappropriate?5io?5control?5operati@ 00000001800582a8     libcpmt:syserror.obj
 0002:000012d0       ??_C@_0N@OHAFKDEK@invalid?5seek?$AA@ 00000001800582d0     libcpmt:syserror.obj
 0002:000012e0       ??_C@_0P@FLLDBIDK@is?5a?5directory?$AA@ 00000001800582e0     libcpmt:syserror.obj
 0002:000012f0       ??_C@_0N@IFLPBIOP@message?5size?$AA@ 00000001800582f0     libcpmt:syserror.obj
 0002:00001300       ??_C@_0N@KIIEAAIO@network?5down?$AA@ 0000000180058300     libcpmt:syserror.obj
 0002:00001310       ??_C@_0O@FNPDBHEE@network?5reset?$AA@ 0000000180058310     libcpmt:syserror.obj
 0002:00001320       ??_C@_0BE@IFNCKGE@network?5unreachable?$AA@ 0000000180058320     libcpmt:syserror.obj
 0002:00001338       ??_C@_0BA@PFFCAOFK@no?5buffer?5space?$AA@ 0000000180058338     libcpmt:syserror.obj
 0002:00001348       ??_C@_0BB@IEPBLJHK@no?5child?5process?$AA@ 0000000180058348     libcpmt:syserror.obj
 0002:00001360       ??_C@_07PLECNNKG@no?5link?$AA@ 0000000180058360     libcpmt:syserror.obj
 0002:00001368       ??_C@_0BF@PBGGPKKE@no?5message?5available?$AA@ 0000000180058368     libcpmt:syserror.obj
 0002:00001380       ??_C@_0L@EDOLMPAK@no?5message?$AA@ 0000000180058380     libcpmt:syserror.obj
 0002:00001390       ??_C@_0BD@EAMBFIDF@no?5protocol?5option?$AA@ 0000000180058390     libcpmt:syserror.obj
 0002:000013a8       ??_C@_0BE@MKFDAFMP@no?5stream?5resources?$AA@ 00000001800583a8     libcpmt:syserror.obj
 0002:000013c0       ??_C@_0BK@IMCPHCBI@no?5such?5device?5or?5address?$AA@ 00000001800583c0     libcpmt:syserror.obj
 0002:000013e0       ??_C@_0BA@ENLPPKBN@no?5such?5process?$AA@ 00000001800583e0     libcpmt:syserror.obj
 0002:000013f0       ??_C@_0BA@DOCPFFJG@not?5a?5directory?$AA@ 00000001800583f0     libcpmt:syserror.obj
 0002:00001400       ??_C@_0N@POEIPGGF@not?5a?5socket?$AA@ 0000000180058400     libcpmt:syserror.obj
 0002:00001410       ??_C@_0N@LGAPMMPI@not?5a?5stream?$AA@ 0000000180058410     libcpmt:syserror.obj
 0002:00001420       ??_C@_0O@GLMIBBEG@not?5connected?$AA@ 0000000180058420     libcpmt:syserror.obj
 0002:00001430       ??_C@_0O@NHEDABJP@not?5supported?$AA@ 0000000180058430     libcpmt:syserror.obj
 0002:00001440       ??_C@_0BG@KDKHOPCO@operation?5in?5progress?$AA@ 0000000180058440     libcpmt:syserror.obj
 0002:00001458       ??_C@_0BI@OHIEJAAB@operation?5not?5permitted?$AA@ 0000000180058458     libcpmt:syserror.obj
 0002:00001470       ??_C@_0BI@LNEGIFLN@operation?5not?5supported?$AA@ 0000000180058470     libcpmt:syserror.obj
 0002:00001488       ??_C@_0BG@OEMDKMEE@operation?5would?5block?$AA@ 0000000180058488     libcpmt:syserror.obj
 0002:000014a0       ??_C@_0L@BLPOFLNJ@owner?5dead?$AA@ 00000001800584a0     libcpmt:syserror.obj
 0002:000014b0       ??_C@_0P@FNPOCJBE@protocol?5error?$AA@ 00000001800584b0     libcpmt:syserror.obj
 0002:000014c0       ??_C@_0BH@JPPPLHJB@protocol?5not?5supported?$AA@ 00000001800584c0     libcpmt:syserror.obj
 0002:000014d8       ??_C@_0BG@EICBIHDP@read?5only?5file?5system?$AA@ 00000001800584d8     libcpmt:syserror.obj
 0002:000014f0       ??_C@_0BO@BJBOMOEJ@resource?5deadlock?5would?5occur?$AA@ 00000001800584f0     libcpmt:syserror.obj
 0002:00001510       ??_C@_0BE@GOIPJJHG@result?5out?5of?5range?$AA@ 0000000180058510     libcpmt:syserror.obj
 0002:00001528       ??_C@_0BG@MPLKFPAE@state?5not?5recoverable?$AA@ 0000000180058528     libcpmt:syserror.obj
 0002:00001540       ??_C@_0P@DIIFGFCG@stream?5timeout?$AA@ 0000000180058540     libcpmt:syserror.obj
 0002:00001550       ??_C@_0P@IPFDMIFL@text?5file?5busy?$AA@ 0000000180058550     libcpmt:syserror.obj
 0002:00001560       ??_C@_09KJPPMAOI@timed?5out?$AA@ 0000000180058560     libcpmt:syserror.obj
 0002:00001570       ??_C@_0BO@HACHBEKI@too?5many?5files?5open?5in?5system?$AA@ 0000000180058570     libcpmt:syserror.obj
 0002:00001590       ??_C@_0P@HCOMKFCC@too?5many?5links?$AA@ 0000000180058590     libcpmt:syserror.obj
 0002:000015a0       ??_C@_0BO@EFGOJEF@too?5many?5symbolic?5link?5levels?$AA@ 00000001800585a0     libcpmt:syserror.obj
 0002:000015c0       ??_C@_0BA@KGKGOOJA@value?5too?5large?$AA@ 00000001800585c0     libcpmt:syserror.obj
 0002:000015d0       ??_C@_0BE@MIEJDDNH@wrong?5protocol?5type?$AA@ 00000001800585d0     libcpmt:syserror.obj
 0002:000015f0       ??_7bad_alloc@std@@6B@     00000001800585f0     libcpmt:xthrow.obj
 0002:00001600       ??_C@_0P@GHFPNOJB@bad?5allocation?$AA@ 0000000180058600     libcpmt:xthrow.obj
 0002:00001610       ??_C@_17LGKOMLJ@?$AA?4?$AA?4?$AA?4?$AA?$AA@ 0000000180058610     LIBCMT:wassert.obj
 0002:00001618       ??_C@_13LBAGMAIH@?$AA?6?$AA?$AA@ 0000000180058618     LIBCMT:wassert.obj
 0002:0000161c       ??_C@_15IABLJNFO@?$AA?6?$AA?6?$AA?$AA@ 000000018005861c     LIBCMT:wassert.obj
 0002:00001628       ??_C@_1CE@OJBNHDMO@?$AAA?$AAs?$AAs?$AAe?$AAr?$AAt?$AAi?$AAo?$AAn?$AA?5?$AAf?$AAa?$AAi?$AAl?$AAe?$AAd?$AA?$CB?$AA?$AA@ 0000000180058628     LIBCMT:wassert.obj
 0002:00001650       ??_C@_1BE@PHKBBGE@?$AAP?$AAr?$AAo?$AAg?$AAr?$AAa?$AAm?$AA?3?$AA?5?$AA?$AA@ 0000000180058650     LIBCMT:wassert.obj
 0002:00001668       ??_C@_1CO@EAEJAADC@?$AA?$DM?$AAp?$AAr?$AAo?$AAg?$AAr?$AAa?$AAm?$AA?5?$AAn?$AAa?$AAm?$AAe?$AA?5?$AAu?$AAn?$AAk?$AAn?$AAo?$AAw?$AAn?$AA?$DO?$AA?$AA@ 0000000180058668     LIBCMT:wassert.obj
 0002:00001698       ??_C@_1O@HEMHKNDC@?$AAF?$AAi?$AAl?$AAe?$AA?3?$AA?5?$AA?$AA@ 0000000180058698     LIBCMT:wassert.obj
 0002:000016a8       ??_C@_1O@KCAFKHJE@?$AAL?$AAi?$AAn?$AAe?$AA?3?$AA?5?$AA?$AA@ 00000001800586a8     LIBCMT:wassert.obj
 0002:000016b8       ??_C@_1BK@PEDCIPMA@?$AAE?$AAx?$AAp?$AAr?$AAe?$AAs?$AAs?$AAi?$AAo?$AAn?$AA?3?$AA?5?$AA?$AA@ 00000001800586b8     LIBCMT:wassert.obj
 0002:000016e0       ??_C@_1OA@EGMLFBHJ@?$AAF?$AAo?$AAr?$AA?5?$AAi?$AAn?$AAf?$AAo?$AAr?$AAm?$AAa?$AAt?$AAi?$AAo?$AAn?$AA?5?$AAo?$AAn?$AA?5?$AAh?$AAo?$AAw?$AA?5?$AAy?$AAo?$AAu?$AAr?$AA?5?$AAp?$AAr?$AAo?$AAg@ 00000001800586e0     LIBCMT:wassert.obj
 0002:000017c0       ??_C@_1HK@POCJMFGK@?$AA?$CI?$AAP?$AAr?$AAe?$AAs?$AAs?$AA?5?$AAR?$AAe?$AAt?$AAr?$AAy?$AA?5?$AAt?$AAo?$AA?5?$AAd?$AAe?$AAb?$AAu?$AAg?$AA?5?$AAt?$AAh?$AAe?$AA?5?$AAa?$AAp?$AAp?$AAl?$AAi?$AAc@ 00000001800587c0     LIBCMT:wassert.obj
 0002:00001840       ??_C@_1EK@MBDPDCGA@?$AAM?$AAi?$AAc?$AAr?$AAo?$AAs?$AAo?$AAf?$AAt?$AA?5?$AAV?$AAi?$AAs?$AAu?$AAa?$AAl?$AA?5?$AAC?$AA?$CL?$AA?$CL?$AA?5?$AAR?$AAu?$AAn?$AAt?$AAi?$AAm?$AAe?$AA?5?$AAL?$AAi?$AAb@ 0000000180058840     LIBCMT:wassert.obj
 0002:0000188c       ??_C@_06MEIMCGCF@_hypot?$AA@ 000000018005888c     LIBCMT:hypot.obj
 0002:00001898       _pRawDllMain               0000000180058898     LIBCMT:dllcrt0.obj
 0002:00001898       _pDefaultRawDllMain        0000000180058898     LIBCMT:dllcrt0.obj
 0002:000018f8       ??_7type_info@@6B@         00000001800588f8     LIBCMT:typinfo.obj
 0002:00001900       _FPinit                    0000000180058900     LIBCMT:fpinit.obj
 0002:00001910       ??_7exception@std@@6B@     0000000180058910     LIBCMT:stdexcpt.obj
 0002:00001920       ??_C@_0BC@EOODALEL@Unknown?5exception?$AA@ 0000000180058920     LIBCMT:stdexcpt.obj
 0002:00001938       ??_C@_1BI@BGOHAHKC@?$AAm?$AAs?$AAc?$AAo?$AAr?$AAe?$AAe?$AA?4?$AAd?$AAl?$AAl?$AA?$AA@ 0000000180058938     LIBCMT:crt0dat.obj
 0002:00001950       ??_C@_0P@MIGLKIOC@CorExitProcess?$AA@ 0000000180058950     LIBCMT:crt0dat.obj
 0002:00001960       ??_C@_1BG@GOEBHBDC@?$AAU?$AAS?$AAE?$AAR?$AA3?$AA2?$AA?4?$AAD?$AAL?$AAL?$AA?$AA@ 0000000180058960     LIBCMT:crtmboxw.obj
 0002:00001978       ??_C@_0M@DLDCCGNP@MessageBoxW?$AA@ 0000000180058978     LIBCMT:crtmboxw.obj
 0002:00001988       ??_C@_0BA@HNOPNCHB@GetActiveWindow?$AA@ 0000000180058988     LIBCMT:crtmboxw.obj
 0002:00001998       ??_C@_0BD@HHGDFDBJ@GetLastActivePopup?$AA@ 0000000180058998     LIBCMT:crtmboxw.obj
 0002:000019b0       ??_C@_0BK@DEKFELLI@GetUserObjectInformationW?$AA@ 00000001800589b0     LIBCMT:crtmboxw.obj
 0002:000019d0       ??_C@_0BI@DFKBFLJE@GetProcessWindowStation?$AA@ 00000001800589d0     LIBCMT:crtmboxw.obj
 0002:00001b60       ??_C@_1FK@PGACCAFB@?$AAR?$AA6?$AA0?$AA0?$AA2?$AA?$AN?$AA?6?$AA?9?$AA?5?$AAf?$AAl?$AAo?$AAa?$AAt?$AAi?$AAn?$AAg?$AA?5?$AAp?$AAo?$AAi?$AAn?$AAt?$AA?5?$AAs?$AAu?$AAp?$AAp?$AAo?$AAr?$AAt?$AA?5@ 0000000180058b60     LIBCMT:crt0msg.obj
 0002:00001bc0       ??_C@_1FE@LLNEDJMD@?$AAR?$AA6?$AA0?$AA0?$AA8?$AA?$AN?$AA?6?$AA?9?$AA?5?$AAn?$AAo?$AAt?$AA?5?$AAe?$AAn?$AAo?$AAu?$AAg?$AAh?$AA?5?$AAs?$AAp?$AAa?$AAc?$AAe?$AA?5?$AAf?$AAo?$AAr?$AA?5?$AAa?$AAr@ 0000000180058bc0     LIBCMT:crt0msg.obj
 0002:00001c20       ??_C@_1FI@HONFMGBI@?$AAR?$AA6?$AA0?$AA0?$AA9?$AA?$AN?$AA?6?$AA?9?$AA?5?$AAn?$AAo?$AAt?$AA?5?$AAe?$AAn?$AAo?$AAu?$AAg?$AAh?$AA?5?$AAs?$AAp?$AAa?$AAc?$AAe?$AA?5?$AAf?$AAo?$AAr?$AA?5?$AAe?$AAn@ 0000000180058c20     LIBCMT:crt0msg.obj
 0002:00001c80       ??_C@_1EG@BEHAGFJD@?$AAR?$AA6?$AA0?$AA1?$AA0?$AA?$AN?$AA?6?$AA?9?$AA?5?$AAa?$AAb?$AAo?$AAr?$AAt?$AA?$CI?$AA?$CJ?$AA?5?$AAh?$AAa?$AAs?$AA?5?$AAb?$AAe?$AAe?$AAn?$AA?5?$AAc?$AAa?$AAl?$AAl?$AAe?$AAd@ 0000000180058c80     LIBCMT:crt0msg.obj
 0002:00001cd0       ??_C@_1FI@LOGNIKDM@?$AAR?$AA6?$AA0?$AA1?$AA6?$AA?$AN?$AA?6?$AA?9?$AA?5?$AAn?$AAo?$AAt?$AA?5?$AAe?$AAn?$AAo?$AAu?$AAg?$AAh?$AA?5?$AAs?$AAp?$AAa?$AAc?$AAe?$AA?5?$AAf?$AAo?$AAr?$AA?5?$AAt?$AAh@ 0000000180058cd0     LIBCMT:crt0msg.obj
 0002:00001d30       ??_C@_1FK@BEOGODMC@?$AAR?$AA6?$AA0?$AA1?$AA7?$AA?$AN?$AA?6?$AA?9?$AA?5?$AAu?$AAn?$AAe?$AAx?$AAp?$AAe?$AAc?$AAt?$AAe?$AAd?$AA?5?$AAm?$AAu?$AAl?$AAt?$AAi?$AAt?$AAh?$AAr?$AAe?$AAa?$AAd?$AA?5@ 0000000180058d30     LIBCMT:crt0msg.obj
 0002:00001d90       ??_C@_1EC@JIBHAOPH@?$AAR?$AA6?$AA0?$AA1?$AA8?$AA?$AN?$AA?6?$AA?9?$AA?5?$AAu?$AAn?$AAe?$AAx?$AAp?$AAe?$AAc?$AAt?$AAe?$AAd?$AA?5?$AAh?$AAe?$AAa?$AAp?$AA?5?$AAe?$AAr?$AAr?$AAo?$AAr?$AA?$AN?$AA?6@ 0000000180058d90     LIBCMT:crt0msg.obj
 0002:00001de0       ??_C@_1FC@ECHBIFBC@?$AAR?$AA6?$AA0?$AA1?$AA9?$AA?$AN?$AA?6?$AA?9?$AA?5?$AAu?$AAn?$AAa?$AAb?$AAl?$AAe?$AA?5?$AAt?$AAo?$AA?5?$AAo?$AAp?$AAe?$AAn?$AA?5?$AAc?$AAo?$AAn?$AAs?$AAo?$AAl?$AAe?$AA?5@ 0000000180058de0     LIBCMT:crt0msg.obj
 0002:00001e40       ??_C@_1GK@FHCKBEFA@?$AAR?$AA6?$AA0?$AA2?$AA4?$AA?$AN?$AA?6?$AA?9?$AA?5?$AAn?$AAo?$AAt?$AA?5?$AAe?$AAn?$AAo?$AAu?$AAg?$AAh?$AA?5?$AAs?$AAp?$AAa?$AAc?$AAe?$AA?5?$AAf?$AAo?$AAr?$AA?5?$AA_?$AAo@ 0000000180058e40     LIBCMT:crt0msg.obj
 0002:00001eb0       ??_C@_1EM@MAADIHMB@?$AAR?$AA6?$AA0?$AA2?$AA5?$AA?$AN?$AA?6?$AA?9?$AA?5?$AAp?$AAu?$AAr?$AAe?$AA?5?$AAv?$AAi?$AAr?$AAt?$AAu?$AAa?$AAl?$AA?5?$AAf?$AAu?$AAn?$AAc?$AAt?$AAi?$AAo?$AAn?$AA?5?$AAc@ 0000000180058eb0     LIBCMT:crt0msg.obj
 0002:00001f00       ??_C@_1GK@MCAAGJMO@?$AAR?$AA6?$AA0?$AA2?$AA6?$AA?$AN?$AA?6?$AA?9?$AA?5?$AAn?$AAo?$AAt?$AA?5?$AAe?$AAn?$AAo?$AAu?$AAg?$AAh?$AA?5?$AAs?$AAp?$AAa?$AAc?$AAe?$AA?5?$AAf?$AAo?$AAr?$AA?5?$AAs?$AAt@ 0000000180058f00     LIBCMT:crt0msg.obj
 0002:00001f70       ??_C@_1GK@MFGOKLAG@?$AAR?$AA6?$AA0?$AA2?$AA7?$AA?$AN?$AA?6?$AA?9?$AA?5?$AAn?$AAo?$AAt?$AA?5?$AAe?$AAn?$AAo?$AAu?$AAg?$AAh?$AA?5?$AAs?$AAp?$AAa?$AAc?$AAe?$AA?5?$AAf?$AAo?$AAr?$AA?5?$AAl?$AAo@ 0000000180058f70     LIBCMT:crt0msg.obj
 0002:00001fe0       ??_C@_1EK@HHFLMAOL@?$AAR?$AA6?$AA0?$AA2?$AA8?$AA?$AN?$AA?6?$AA?9?$AA?5?$AAu?$AAn?$AAa?$AAb?$AAl?$AAe?$AA?5?$AAt?$AAo?$AA?5?$AAi?$AAn?$AAi?$AAt?$AAi?$AAa?$AAl?$AAi?$AAz?$AAe?$AA?5?$AAh?$AAe@ 0000000180058fe0     LIBCMT:crt0msg.obj
 0002:00002030       ??_C@_1DO@BMFCDCD@?$AAR?$AA6?$AA0?$AA3?$AA0?$AA?$AN?$AA?6?$AA?9?$AA?5?$AAC?$AAR?$AAT?$AA?5?$AAn?$AAo?$AAt?$AA?5?$AAi?$AAn?$AAi?$AAt?$AAi?$AAa?$AAl?$AAi?$AAz?$AAe?$AAd?$AA?$AN?$AA?6?$AA?$AA@ 0000000180059030     LIBCMT:crt0msg.obj
 0002:00002070       ??_C@_1MG@ENCOOIDF@?$AAR?$AA6?$AA0?$AA3?$AA1?$AA?$AN?$AA?6?$AA?9?$AA?5?$AAA?$AAt?$AAt?$AAe?$AAm?$AAp?$AAt?$AA?5?$AAt?$AAo?$AA?5?$AAi?$AAn?$AAi?$AAt?$AAi?$AAa?$AAl?$AAi?$AAz?$AAe?$AA?5?$AAt@ 0000000180059070     LIBCMT:crt0msg.obj
 0002:00002140       ??_C@_1GG@GOPILAJP@?$AAR?$AA6?$AA0?$AA3?$AA2?$AA?$AN?$AA?6?$AA?9?$AA?5?$AAn?$AAo?$AAt?$AA?5?$AAe?$AAn?$AAo?$AAu?$AAg?$AAh?$AA?5?$AAs?$AAp?$AAa?$AAc?$AAe?$AA?5?$AAf?$AAo?$AAr?$AA?5?$AAl?$AAo@ 0000000180059140     LIBCMT:crt0msg.obj
 0002:000021b0       ??_C@_1BOO@KGEDBGAJ@?$AAR?$AA6?$AA0?$AA3?$AA3?$AA?$AN?$AA?6?$AA?9?$AA?5?$AAA?$AAt?$AAt?$AAe?$AAm?$AAp?$AAt?$AA?5?$AAt?$AAo?$AA?5?$AAu?$AAs?$AAe?$AA?5?$AAM?$AAS?$AAI?$AAL?$AA?5?$AAc?$AAo?$AAd@ 00000001800591b0     LIBCMT:crt0msg.obj
 0002:000023a0       ??_C@_1GG@MKFPEKFO@?$AAR?$AA6?$AA0?$AA3?$AA4?$AA?$AN?$AA?6?$AA?9?$AA?5?$AAi?$AAn?$AAc?$AAo?$AAn?$AAs?$AAi?$AAs?$AAt?$AAe?$AAn?$AAt?$AA?5?$AAo?$AAn?$AAe?$AAx?$AAi?$AAt?$AA?5?$AAb?$AAe?$AAg@ 00000001800593a0     LIBCMT:crt0msg.obj
 0002:00002408       ??_C@_1BO@BFCDCGC@?$AAD?$AAO?$AAM?$AAA?$AAI?$AAN?$AA?5?$AAe?$AAr?$AAr?$AAo?$AAr?$AA?$AN?$AA?6?$AA?$AA@ 0000000180059408     LIBCMT:crt0msg.obj
 0002:00002428       ??_C@_1BK@KMOMNAAI@?$AAS?$AAI?$AAN?$AAG?$AA?5?$AAe?$AAr?$AAr?$AAo?$AAr?$AA?$AN?$AA?6?$AA?$AA@ 0000000180059428     LIBCMT:crt0msg.obj
 0002:00002448       ??_C@_1BM@JBBEPPHI@?$AAT?$AAL?$AAO?$AAS?$AAS?$AA?5?$AAe?$AAr?$AAr?$AAo?$AAr?$AA?$AN?$AA?6?$AA?$AA@ 0000000180059448     LIBCMT:crt0msg.obj
 0002:00002464       ??_C@_15JNBOKNOG@?$AA?$AN?$AA?6?$AA?$AA@ 0000000180059464     LIBCMT:crt0msg.obj
 0002:00002470       ??_C@_1BO@BKOMIGKJ@?$AAr?$AAu?$AAn?$AAt?$AAi?$AAm?$AAe?$AA?5?$AAe?$AAr?$AAr?$AAo?$AAr?$AA?5?$AA?$AA@ 0000000180059470     LIBCMT:crt0msg.obj
 0002:00002490       ??_C@_1DE@JNGNBFGO@?$AAR?$AAu?$AAn?$AAt?$AAi?$AAm?$AAe?$AA?5?$AAE?$AAr?$AAr?$AAo?$AAr?$AA?$CB?$AA?6?$AA?6?$AAP?$AAr?$AAo?$AAg?$AAr?$AAa?$AAm?$AA?3?$AA?5?$AA?$AA@ 0000000180059490     LIBCMT:crt0msg.obj
 0002:000024e8       ??_C@_1M@HPNHIDJI@?$AAj?$AAa?$AA?9?$AAJ?$AAP?$AA?$AA@ 00000001800594e8     LIBCMT:mbctype.obj
 0002:000024f8       ??_C@_1M@BIBDDEMK@?$AAz?$AAh?$AA?9?$AAC?$AAN?$AA?$AA@ 00000001800594f8     LIBCMT:mbctype.obj
 0002:00002508       ??_C@_1M@JLOOOEGK@?$AAk?$AAo?$AA?9?$AAK?$AAR?$AA?$AA@ 0000000180059508     LIBCMT:mbctype.obj
 0002:00002518       ??_C@_1M@CLNBBOPM@?$AAz?$AAh?$AA?9?$AAT?$AAW?$AA?$AA@ 0000000180059518     LIBCMT:mbctype.obj
 0002:00002524       ??_C@_03KOEHGMDN@Sun?$AA@  0000000180059524     LIBCMT:nlsdata.obj
 0002:00002528       ??_C@_03PDAGKDH@Mon?$AA@   0000000180059528     LIBCMT:nlsdata.obj
 0002:0000252c       ??_C@_03NAGEINEP@Tue?$AA@  000000018005952c     LIBCMT:nlsdata.obj
 0002:00002530       ??_C@_03MHOMLAJA@Wed?$AA@  0000000180059530     LIBCMT:nlsdata.obj
 0002:00002534       ??_C@_03IOFIKPDN@Thu?$AA@  0000000180059534     LIBCMT:nlsdata.obj
 0002:00002538       ??_C@_03IDIOELNC@Fri?$AA@  0000000180059538     LIBCMT:nlsdata.obj
 0002:0000253c       ??_C@_03FEFJNEK@Sat?$AA@   000000018005953c     LIBCMT:nlsdata.obj
 0002:00002540       ??_C@_06OOPIFAJ@Sunday?$AA@ 0000000180059540     LIBCMT:nlsdata.obj
 0002:00002548       ??_C@_06JLEDEDGH@Monday?$AA@ 0000000180059548     LIBCMT:nlsdata.obj
 0002:00002550       ??_C@_07BAAGCFCM@Tuesday?$AA@ 0000000180059550     LIBCMT:nlsdata.obj
 0002:00002558       ??_C@_09DLIGFAKA@Wednesday?$AA@ 0000000180059558     LIBCMT:nlsdata.obj
 0002:00002568       ??_C@_08HACCIKIA@Thursday?$AA@ 0000000180059568     LIBCMT:nlsdata.obj
 0002:00002574       ??_C@_06JECMNKMI@Friday?$AA@ 0000000180059574     LIBCMT:nlsdata.obj
 0002:00002580       ??_C@_08INBOOONO@Saturday?$AA@ 0000000180059580     LIBCMT:nlsdata.obj
 0002:0000258c       ??_C@_03JIHJHPIE@Jan?$AA@  000000018005958c     LIBCMT:nlsdata.obj
 0002:00002590       ??_C@_03HJBDCHOM@Feb?$AA@  0000000180059590     LIBCMT:nlsdata.obj
 0002:00002594       ??_C@_03ODNJBKGA@Mar?$AA@  0000000180059594     LIBCMT:nlsdata.obj
 0002:00002598       ??_C@_03LEOLGMJP@Apr?$AA@  0000000180059598     LIBCMT:nlsdata.obj
 0002:0000259c       ??_C@_03CNMDKL@May?$AA@    000000018005959c     LIBCMT:nlsdata.obj
 0002:000025a0       ??_C@_03IDFGHECI@Jun?$AA@  00000001800595a0     LIBCMT:nlsdata.obj
 0002:000025a4       ??_C@_03LBGABGKK@Jul?$AA@  00000001800595a4     LIBCMT:nlsdata.obj
 0002:000025a8       ??_C@_03IFJFEIGA@Aug?$AA@  00000001800595a8     LIBCMT:nlsdata.obj
 0002:000025ac       ??_C@_03GGCAPAJC@Sep?$AA@  00000001800595ac     LIBCMT:nlsdata.obj
 0002:000025b0       ??_C@_03BMAOKBAD@Oct?$AA@  00000001800595b0     LIBCMT:nlsdata.obj
 0002:000025b4       ??_C@_03JPJOFNIA@Nov?$AA@  00000001800595b4     LIBCMT:nlsdata.obj
 0002:000025b8       ??_C@_03MKABNOCG@Dec?$AA@  00000001800595b8     LIBCMT:nlsdata.obj
 0002:000025c0       ??_C@_07CGJPFGJA@January?$AA@ 00000001800595c0     LIBCMT:nlsdata.obj
 0002:000025c8       ??_C@_08GNJGEPFN@February?$AA@ 00000001800595c8     LIBCMT:nlsdata.obj
 0002:000025d4       ??_C@_05HPCKOFNC@March?$AA@ 00000001800595d4     LIBCMT:nlsdata.obj
 0002:000025dc       ??_C@_05DMJDNLEJ@April?$AA@ 00000001800595dc     LIBCMT:nlsdata.obj
 0002:000025e4       ??_C@_04CNLMGBGM@June?$AA@ 00000001800595e4     LIBCMT:nlsdata.obj
 0002:000025ec       ??_C@_04MIEPOIFP@July?$AA@ 00000001800595ec     LIBCMT:nlsdata.obj
 0002:000025f4       ??_C@_06LBBHFDDG@August?$AA@ 00000001800595f4     LIBCMT:nlsdata.obj
 0002:00002600       ??_C@_09BHHEALKD@September?$AA@ 0000000180059600     LIBCMT:nlsdata.obj
 0002:00002610       ??_C@_07JJNFCEND@October?$AA@ 0000000180059610     LIBCMT:nlsdata.obj
 0002:00002618       ??_C@_08HCHEGEOA@November?$AA@ 0000000180059618     LIBCMT:nlsdata.obj
 0002:00002628       ??_C@_08EDHMEBNP@December?$AA@ 0000000180059628     LIBCMT:nlsdata.obj
 0002:00002634       ??_C@_02DEDBPAFC@AM?$AA@   0000000180059634     LIBCMT:nlsdata.obj
 0002:00002638       ??_C@_02CJNFDJBF@PM?$AA@   0000000180059638     LIBCMT:nlsdata.obj
 0002:00002640       ??_C@_08BPBNCDIB@MM?1dd?1yy?$AA@ 0000000180059640     LIBCMT:nlsdata.obj
 0002:00002650       ??_C@_0BE@CKGJFCPC@dddd?0?5MMMM?5dd?0?5yyyy?$AA@ 0000000180059650     LIBCMT:nlsdata.obj
 0002:00002668       ??_C@_08JCCMCCIL@HH?3mm?3ss?$AA@ 0000000180059668     LIBCMT:nlsdata.obj
 0002:00002678       ??_C@_17MBGCMIPB@?$AAS?$AAu?$AAn?$AA?$AA@ 0000000180059678     LIBCMT:nlsdata.obj
 0002:00002680       ??_C@_17KBOMKBF@?$AAM?$AAo?$AAn?$AA?$AA@ 0000000180059680     LIBCMT:nlsdata.obj
 0002:00002688       ??_C@_17BMKGEGOJ@?$AAT?$AAu?$AAe?$AA?$AA@ 0000000180059688     LIBCMT:nlsdata.obj
 0002:00002690       ??_C@_17CJEDCEPE@?$AAW?$AAe?$AAd?$AA?$AA@ 0000000180059690     LIBCMT:nlsdata.obj
 0002:00002698       ??_C@_17PDPHAADD@?$AAT?$AAh?$AAu?$AA?$AA@ 0000000180059698     LIBCMT:nlsdata.obj
 0002:000026a0       ??_C@_17HFOLPPLP@?$AAF?$AAr?$AAi?$AA?$AA@ 00000001800596a0     LIBCMT:nlsdata.obj
 0002:000026a8       ??_C@_17GGIBDPIH@?$AAS?$AAa?$AAt?$AA?$AA@ 00000001800596a8     LIBCMT:nlsdata.obj
 0002:000026b0       ??_C@_1O@IHNHDHPB@?$AAS?$AAu?$AAn?$AAd?$AAa?$AAy?$AA?$AA@ 00000001800596b0     LIBCMT:nlsdata.obj
 0002:000026c0       ??_C@_1O@MMNBFLIA@?$AAM?$AAo?$AAn?$AAd?$AAa?$AAy?$AA?$AA@ 00000001800596c0     LIBCMT:nlsdata.obj
 0002:000026d0       ??_C@_1BA@ENFBFFEK@?$AAT?$AAu?$AAe?$AAs?$AAd?$AAa?$AAy?$AA?$AA@ 00000001800596d0     LIBCMT:nlsdata.obj
 0002:000026e0       ??_C@_1BE@EBOGMDOH@?$AAW?$AAe?$AAd?$AAn?$AAe?$AAs?$AAd?$AAa?$AAy?$AA?$AA@ 00000001800596e0     LIBCMT:nlsdata.obj
 0002:000026f8       ??_C@_1BC@HHMNLIHE@?$AAT?$AAh?$AAu?$AAr?$AAs?$AAd?$AAa?$AAy?$AA?$AA@ 00000001800596f8     LIBCMT:nlsdata.obj
 0002:00002710       ??_C@_1O@PDICJHAG@?$AAF?$AAr?$AAi?$AAd?$AAa?$AAy?$AA?$AA@ 0000000180059710     LIBCMT:nlsdata.obj
 0002:00002720       ??_C@_1BC@ENMNNPAJ@?$AAS?$AAa?$AAt?$AAu?$AAr?$AAd?$AAa?$AAy?$AA?$AA@ 0000000180059720     LIBCMT:nlsdata.obj
 0002:00002738       ??_C@_17DKNBKCHM@?$AAJ?$AAa?$AAn?$AA?$AA@ 0000000180059738     LIBCMT:nlsdata.obj
 0002:00002740       ??_C@_17LMDJEKJN@?$AAF?$AAe?$AAb?$AA?$AA@ 0000000180059740     LIBCMT:nlsdata.obj
 0002:00002748       ??_C@_17CKNLEDEC@?$AAM?$AAa?$AAr?$AA?$AA@ 0000000180059748     LIBCMT:nlsdata.obj
 0002:00002750       ??_C@_17LFPOIHDD@?$AAA?$AAp?$AAr?$AA?$AA@ 0000000180059750     LIBCMT:nlsdata.obj
 0002:00002758       ??_C@_17PNNKMEED@?$AAM?$AAa?$AAy?$AA?$AA@ 0000000180059758     LIBCMT:nlsdata.obj
 0002:00002760       ??_C@_17KCJGOCPB@?$AAJ?$AAu?$AAn?$AA?$AA@ 0000000180059760     LIBCMT:nlsdata.obj
 0002:00002768       ??_C@_17IJPCKHK@?$AAJ?$AAu?$AAl?$AA?$AA@ 0000000180059768     LIBCMT:nlsdata.obj
 0002:00002770       ??_C@_17ICPELBCN@?$AAA?$AAu?$AAg?$AA?$AA@ 0000000180059770     LIBCMT:nlsdata.obj
 0002:00002778       ??_C@_17HCHCOKMG@?$AAS?$AAe?$AAp?$AA?$AA@ 0000000180059778     LIBCMT:nlsdata.obj
 0002:00002780       ??_C@_17FNLKOI@?$AAO?$AAc?$AAt?$AA?$AA@ 0000000180059780     LIBCMT:nlsdata.obj
 0002:00002788       ??_C@_17BBDMLCIG@?$AAN?$AAo?$AAv?$AA?$AA@ 0000000180059788     LIBCMT:nlsdata.obj
 0002:00002790       ??_C@_17EGKACKIF@?$AAD?$AAe?$AAc?$AA?$AA@ 0000000180059790     LIBCMT:nlsdata.obj
 0002:00002798       ??_C@_1BA@EFMEIEBA@?$AAJ?$AAa?$AAn?$AAu?$AAa?$AAr?$AAy?$AA?$AA@ 0000000180059798     LIBCMT:nlsdata.obj
 0002:000027a8       ??_C@_1BC@JGDDFFAM@?$AAF?$AAe?$AAb?$AAr?$AAu?$AAa?$AAr?$AAy?$AA?$AA@ 00000001800597a8     LIBCMT:nlsdata.obj
 0002:000027c0       ??_C@_1M@IKEENEDF@?$AAM?$AAa?$AAr?$AAc?$AAh?$AA?$AA@ 00000001800597c0     LIBCMT:nlsdata.obj
 0002:000027d0       ??_C@_1M@GJNLMHFD@?$AAA?$AAp?$AAr?$AAi?$AAl?$AA?$AA@ 00000001800597d0     LIBCMT:nlsdata.obj
 0002:000027e0       ??_C@_19EPFLPGAP@?$AAJ?$AAu?$AAn?$AAe?$AA?$AA@ 00000001800597e0     LIBCMT:nlsdata.obj
 0002:000027f0       ??_C@_19BIFMLPCD@?$AAJ?$AAu?$AAl?$AAy?$AA?$AA@ 00000001800597f0     LIBCMT:nlsdata.obj
 0002:00002800       ??_C@_1O@PAHLKOAC@?$AAA?$AAu?$AAg?$AAu?$AAs?$AAt?$AA?$AA@ 0000000180059800     LIBCMT:nlsdata.obj
 0002:00002810       ??_C@_1BE@DKAAMBJL@?$AAS?$AAe?$AAp?$AAt?$AAe?$AAm?$AAb?$AAe?$AAr?$AA?$AA@ 0000000180059810     LIBCMT:nlsdata.obj
 0002:00002828       ??_C@_1BA@EPANDLNG@?$AAO?$AAc?$AAt?$AAo?$AAb?$AAe?$AAr?$AA?$AA@ 0000000180059828     LIBCMT:nlsdata.obj
 0002:00002838       ??_C@_1BC@BGLIFPF@?$AAN?$AAo?$AAv?$AAe?$AAm?$AAb?$AAe?$AAr?$AA?$AA@ 0000000180059838     LIBCMT:nlsdata.obj
 0002:00002850       ??_C@_1BC@FEMKIFH@?$AAD?$AAe?$AAc?$AAe?$AAm?$AAb?$AAe?$AAr?$AA?$AA@ 0000000180059850     LIBCMT:nlsdata.obj
 0002:00002864       ??_C@_15ODEHAHHF@?$AAA?$AAM?$AA?$AA@ 0000000180059864     LIBCMT:nlsdata.obj
 0002:0000286c       ??_C@_15CLMNNGEL@?$AAP?$AAM?$AA?$AA@ 000000018005986c     LIBCMT:nlsdata.obj
 0002:00002878       ??_C@_1BC@IEBCMHCM@?$AAM?$AAM?$AA?1?$AAd?$AAd?$AA?1?$AAy?$AAy?$AA?$AA@ 0000000180059878     LIBCMT:nlsdata.obj
 0002:00002890       ??_C@_1CI@KNAKOEBC@?$AAd?$AAd?$AAd?$AAd?$AA?0?$AA?5?$AAM?$AAM?$AAM?$AAM?$AA?5?$AAd?$AAd?$AA?0?$AA?5?$AAy?$AAy?$AAy?$AAy?$AA?$AA@ 0000000180059890     LIBCMT:nlsdata.obj
 0002:000028b8       ??_C@_1BC@GDGBMEMK@?$AAH?$AAH?$AA?3?$AAm?$AAm?$AA?3?$AAs?$AAs?$AA?$AA@ 00000001800598b8     LIBCMT:nlsdata.obj
 0002:000028d0       ??_C@_1M@BMHNFIME@?$AAe?$AAn?$AA?9?$AAU?$AAS?$AA?$AA@ 00000001800598d0     LIBCMT:nlsdata.obj
 0002:00002960       _XcptActTab                0000000180059960     LIBCMT:winxfltr.obj
 0002:00002a20       _XcptActTabCount           0000000180059a20     LIBCMT:winxfltr.obj
 0002:00002a24       _XcptActTabSize            0000000180059a24     LIBCMT:winxfltr.obj
 0002:00002a28       _First_FPE_Indx            0000000180059a28     LIBCMT:winxfltr.obj
 0002:00002a2c       _Num_FPE                   0000000180059a2c     LIBCMT:winxfltr.obj
 0002:00002a30       ??_C@_1BK@MGMFAEKH@?$AAk?$AAe?$AAr?$AAn?$AAe?$AAl?$AA3?$AA2?$AA?4?$AAd?$AAl?$AAl?$AA?$AA@ 0000000180059a30     LIBCMT:winapisupp.obj
 0002:00002a50       ??_C@_08KNHFBNJ@FlsAlloc?$AA@ 0000000180059a50     LIBCMT:winapisupp.obj
 0002:00002a60       ??_C@_07PEJMOBNF@FlsFree?$AA@ 0000000180059a60     LIBCMT:winapisupp.obj
 0002:00002a68       ??_C@_0M@GDNOONDI@FlsGetValue?$AA@ 0000000180059a68     LIBCMT:winapisupp.obj
 0002:00002a78       ??_C@_0M@JCPCPOEF@FlsSetValue?$AA@ 0000000180059a78     LIBCMT:winapisupp.obj
 0002:00002a88       ??_C@_0BM@HCFOFFN@InitializeCriticalSectionEx?$AA@ 0000000180059a88     LIBCMT:winapisupp.obj
 0002:00002aa8       ??_C@_0P@DLHPPCNH@CreateEventExW?$AA@ 0000000180059aa8     LIBCMT:winapisupp.obj
 0002:00002ab8       ??_C@_0BD@KIEEOEEH@CreateSemaphoreExW?$AA@ 0000000180059ab8     LIBCMT:winapisupp.obj
 0002:00002ad0       ??_C@_0BI@BKLFFAPO@SetThreadStackGuarantee?$AA@ 0000000180059ad0     LIBCMT:winapisupp.obj
 0002:00002ae8       ??_C@_0BG@OGFAJCKC@CreateThreadpoolTimer?$AA@ 0000000180059ae8     LIBCMT:winapisupp.obj
 0002:00002b00       ??_C@_0BD@LPLEMMDI@SetThreadpoolTimer?$AA@ 0000000180059b00     LIBCMT:winapisupp.obj
 0002:00002b18       ??_C@_0CA@FMNJENH@WaitForThreadpoolTimerCallbacks?$AA@ 0000000180059b18     LIBCMT:winapisupp.obj
 0002:00002b38       ??_C@_0BF@DCFCCNOC@CloseThreadpoolTimer?$AA@ 0000000180059b38     LIBCMT:winapisupp.obj
 0002:00002b50       ??_C@_0BF@FLABGKKM@CreateThreadpoolWait?$AA@ 0000000180059b50     LIBCMT:winapisupp.obj
 0002:00002b68       ??_C@_0BC@MGCOHNA@SetThreadpoolWait?$AA@ 0000000180059b68     LIBCMT:winapisupp.obj
 0002:00002b80       ??_C@_0BE@OCIOMIMP@CloseThreadpoolWait?$AA@ 0000000180059b80     LIBCMT:winapisupp.obj
 0002:00002b98       ??_C@_0BJ@LKGHFHBO@FlushProcessWriteBuffers?$AA@ 0000000180059b98     LIBCMT:winapisupp.obj
 0002:00002bb8       ??_C@_0BP@KALKKPMO@FreeLibraryWhenCallbackReturns?$AA@ 0000000180059bb8     LIBCMT:winapisupp.obj
 0002:00002bd8       ??_C@_0BK@DFNBACLA@GetCurrentProcessorNumber?$AA@ 0000000180059bd8     LIBCMT:winapisupp.obj
 0002:00002bf8       ??_C@_0BP@KHGALBC@GetLogicalProcessorInformation?$AA@ 0000000180059bf8     LIBCMT:winapisupp.obj
 0002:00002c18       ??_C@_0BE@FKKLLFLM@CreateSymbolicLinkW?$AA@ 0000000180059c18     LIBCMT:winapisupp.obj
 0002:00002c30       ??_C@_0BJ@OHNKDLIJ@SetDefaultDllDirectories?$AA@ 0000000180059c30     LIBCMT:winapisupp.obj
 0002:00002c50       ??_C@_0BE@LJANKFHF@EnumSystemLocalesEx?$AA@ 0000000180059c50     LIBCMT:winapisupp.obj
 0002:00002c68       ??_C@_0BA@IHGNDAEB@CompareStringEx?$AA@ 0000000180059c68     LIBCMT:winapisupp.obj
 0002:00002c78       ??_C@_0BA@EPCJIIPD@GetDateFormatEx?$AA@ 0000000180059c78     LIBCMT:winapisupp.obj
 0002:00002c88       ??_C@_0BA@ONOKGCMP@GetLocaleInfoEx?$AA@ 0000000180059c88     LIBCMT:winapisupp.obj
 0002:00002c98       ??_C@_0BA@CIJJKCJJ@GetTimeFormatEx?$AA@ 0000000180059c98     LIBCMT:winapisupp.obj
 0002:00002ca8       ??_C@_0BJ@PBCCBIPI@GetUserDefaultLocaleName?$AA@ 0000000180059ca8     LIBCMT:winapisupp.obj
 0002:00002cc8       ??_C@_0BC@CELBKLLA@IsValidLocaleName?$AA@ 0000000180059cc8     LIBCMT:winapisupp.obj
 0002:00002ce0       ??_C@_0O@KKBNKAPF@LCMapStringEx?$AA@ 0000000180059ce0     LIBCMT:winapisupp.obj
 0002:00002cf0       ??_C@_0BE@JOGNEJCI@GetCurrentPackageId?$AA@ 0000000180059cf0     LIBCMT:winapisupp.obj
 0002:00002d08       ??_C@_0P@CDHHOHKP@GetTickCount64?$AA@ 0000000180059d08     LIBCMT:winapisupp.obj
 0002:00002d18       ??_C@_0BO@KPCLFDJJ@GetFileInformationByHandleExW?$AA@ 0000000180059d18     LIBCMT:winapisupp.obj
 0002:00002d38       ??_C@_0BM@MHIDLABK@SetFileInformationByHandleW?$AA@ 0000000180059d38     LIBCMT:winapisupp.obj
 0002:00002d58       _pDestructExceptionObject  0000000180059d58     LIBCMT:frame.obj
 0002:00002d60       ??_C@_05KLBDPFGC@e?$CL000?$AA@ 0000000180059d60     LIBCMT:cvt.obj
 0002:00002d68       __real@0000000000000000    0000000180059d68     LIBCMT:cvt.obj
 0002:00002d70       LcidToLocaleNameTable      0000000180059d70     LIBCMT:winapinls.obj
 0002:00003bb0       LocaleNameToIndexTable     000000018005abb0     LIBCMT:winapinls.obj
 0002:000049f0       ??_C@_15EMKDOKLE@?$AAa?$AAr?$AA?$AA@ 000000018005b9f0     LIBCMT:winapinls.obj
 0002:000049f8       ??_C@_15KNPADPLH@?$AAb?$AAg?$AA?$AA@ 000000018005b9f8     LIBCMT:winapinls.obj
 0002:00004a00       ??_C@_15EDMHLDMO@?$AAc?$AAa?$AA?$AA@ 000000018005ba00     LIBCMT:winapinls.obj
 0002:00004a08       ??_C@_1O@BPEAJADD@?$AAz?$AAh?$AA?9?$AAC?$AAH?$AAS?$AA?$AA@ 000000018005ba08     LIBCMT:winapinls.obj
 0002:00004a18       ??_C@_15LJNHCMNK@?$AAc?$AAs?$AA?$AA@ 000000018005ba18     LIBCMT:winapinls.obj
 0002:00004a20       ??_C@_15FOMCIDHG@?$AAd?$AAa?$AA?$AA@ 000000018005ba20     LIBCMT:winapinls.obj
 0002:00004a28       ??_C@_15NBKABECB@?$AAd?$AAe?$AA?$AA@ 000000018005ba28     LIBCMT:winapinls.obj
 0002:00004a30       ??_C@_15GHPEIIAO@?$AAe?$AAl?$AA?$AA@ 000000018005ba30     LIBCMT:winapinls.obj
 0002:00004a38       ??_C@_15MNPNEAIF@?$AAe?$AAn?$AA?$AA@ 000000018005ba38     LIBCMT:winapinls.obj
 0002:00004a40       ??_C@_15GPIOMPMH@?$AAe?$AAs?$AA?$AA@ 000000018005ba40     LIBCMT:winapinls.obj
 0002:00004a48       ??_C@_15NGLOAKJC@?$AAf?$AAi?$AA?$AA@ 000000018005ba48     LIBCMT:winapinls.obj
 0002:00004a50       ??_C@_15FBKGNKAM@?$AAf?$AAr?$AA?$AA@ 000000018005ba50     LIBCMT:winapinls.obj
 0002:00004a58       ??_C@_15KGGCNEFK@?$AAh?$AAe?$AA?$AA@ 000000018005ba58     LIBCMT:winapinls.obj
 0002:00004a60       ??_C@_15PGHLIDMF@?$AAh?$AAu?$AA?$AA@ 000000018005ba60     LIBCMT:winapinls.obj
 0002:00004a68       ??_C@_15BIEMAPLM@?$AAi?$AAs?$AA?$AA@ 000000018005ba68     LIBCMT:winapinls.obj
 0002:00004a70       ??_C@_15IFJLDHAF@?$AAi?$AAt?$AA?$AA@ 000000018005ba70     LIBCMT:winapinls.obj
 0002:00004a78       ??_C@_15GEMIOCAG@?$AAj?$AAa?$AA?$AA@ 000000018005ba78     LIBCMT:winapinls.obj
 0002:00004a80       ??_C@_15EPELEGJA@?$AAk?$AAo?$AA?$AA@ 000000018005ba80     LIBCMT:winapinls.obj
 0002:00004a88       ??_C@_15NDDHIMN@?$AAn?$AAl?$AA?$AA@ 000000018005ba88     LIBCMT:winapinls.obj
 0002:00004a90       ??_C@_15BPIGNHCD@?$AAn?$AAo?$AA?$AA@ 000000018005ba90     LIBCMT:winapinls.obj
 0002:00004a98       ??_C@_15DEOPBLCG@?$AAp?$AAl?$AA?$AA@ 000000018005ba98     LIBCMT:winapinls.obj
 0002:00004aa0       ??_C@_15KBECGEFG@?$AAp?$AAt?$AA?$AA@ 000000018005baa0     LIBCMT:winapinls.obj
 0002:00004aa8       ??_C@_15GLJCBFMD@?$AAr?$AAo?$AA?$AA@ 000000018005baa8     LIBCMT:winapinls.obj
 0002:00004ab0       ??_C@_15FEDGKCDI@?$AAr?$AAu?$AA?$AA@ 000000018005bab0     LIBCMT:winapinls.obj
 0002:00004ab8       ??_C@_15GLKMLLHM@?$AAh?$AAr?$AA?$AA@ 000000018005bab8     LIBCMT:winapinls.obj
 0002:00004ac0       ??_C@_15CPKMFBDB@?$AAs?$AAk?$AA?$AA@ 000000018005bac0     LIBCMT:winapinls.obj
 0002:00004ac8       ??_C@_15BAAIOGMK@?$AAs?$AAq?$AA?$AA@ 000000018005bac8     LIBCMT:winapinls.obj
 0002:00004ad0       ??_C@_15INNPNOHD@?$AAs?$AAv?$AA?$AA@ 000000018005bad0     LIBCMT:winapinls.obj
 0002:00004ad8       ??_C@_15CABMMOGH@?$AAt?$AAh?$AA?$AA@ 000000018005bad8     LIBCMT:winapinls.obj
 0002:00004ae0       ??_C@_15BPLIHJJM@?$AAt?$AAr?$AA?$AA@ 000000018005bae0     LIBCMT:winapinls.obj
 0002:00004ae8       ??_C@_15NEOEKKDJ@?$AAu?$AAr?$AA?$AA@ 000000018005bae8     LIBCMT:winapinls.obj
 0002:00004af0       ??_C@_15NFICGAJK@?$AAi?$AAd?$AA?$AA@ 000000018005baf0     LIBCMT:winapinls.obj
 0002:00004af8       ??_C@_15PJPFLCCM@?$AAu?$AAk?$AA?$AA@ 000000018005baf8     LIBCMT:winapinls.obj
 0002:00004b00       ??_C@_15HPJPHDM@?$AAb?$AAe?$AA?$AA@ 000000018005bb00     LIBCMT:winapinls.obj
 0002:00004b08       ??_C@_15LCHLGJII@?$AAs?$AAl?$AA?$AA@ 000000018005bb08     LIBCMT:winapinls.obj
 0002:00004b10       ??_C@_15PCFJPHHO@?$AAe?$AAt?$AA?$AA@ 000000018005bb10     LIBCMT:winapinls.obj
 0002:00004b18       ??_C@_15HPFPGODN@?$AAl?$AAv?$AA?$AA@ 000000018005bb18     LIBCMT:winapinls.obj
 0002:00004b20       ??_C@_15NFFGKGLG@?$AAl?$AAt?$AA?$AA@ 000000018005bb20     LIBCMT:winapinls.obj
 0002:00004b28       ??_C@_15BDAKCCHN@?$AAf?$AAa?$AA?$AA@ 000000018005bb28     LIBCMT:winapinls.obj
 0002:00004b30       ??_C@_15NFGIAIAJ@?$AAv?$AAi?$AA?$AA@ 000000018005bb30     LIBCMT:winapinls.obj
 0002:00004b38       ??_C@_15LMKNDMHN@?$AAh?$AAy?$AA?$AA@ 000000018005bb38     LIBCMT:winapinls.obj
 0002:00004b40       ??_C@_15IJBHMCFL@?$AAa?$AAz?$AA?$AA@ 000000018005bb40     LIBCMT:winapinls.obj
 0002:00004b48       ??_C@_15EKOFJABL@?$AAe?$AAu?$AA?$AA@ 000000018005bb48     LIBCMT:winapinls.obj
 0002:00004b50       ??_C@_15BGHADCNK@?$AAm?$AAk?$AA?$AA@ 000000018005bb50     LIBCMT:winapinls.obj
 0002:00004b58       ??_C@_15JDNICKHM@?$AAa?$AAf?$AA?$AA@ 000000018005bb58     LIBCMT:winapinls.obj
 0002:00004b60       ??_C@_15KPJEDBKD@?$AAk?$AAa?$AA?$AA@ 000000018005bb60     LIBCMT:winapinls.obj
 0002:00004b68       ??_C@_15PDNFFFEO@?$AAf?$AAo?$AA?$AA@ 000000018005bb68     LIBCMT:winapinls.obj
 0002:00004b70       ??_C@_15OMLEGLOC@?$AAh?$AAi?$AA?$AA@ 000000018005bb70     LIBCMT:winapinls.obj
 0002:00004b78       ??_C@_15IDNNENKK@?$AAm?$AAs?$AA?$AA@ 000000018005bb78     LIBCMT:winapinls.obj
 0002:00004b80       ??_C@_15MACJNBMH@?$AAk?$AAk?$AA?$AA@ 000000018005bb80     LIBCMT:winapinls.obj
 0002:00004b88       ??_C@_15DKDJEOND@?$AAk?$AAy?$AA?$AA@ 000000018005bb88     LIBCMT:winapinls.obj
 0002:00004b90       ??_C@_15DFGDLJBG@?$AAs?$AAw?$AA?$AA@ 000000018005bb90     LIBCMT:winapinls.obj
 0002:00004b98       ??_C@_15BBFAICNG@?$AAu?$AAz?$AA?$AA@ 000000018005bb98     LIBCMT:winapinls.obj
 0002:00004ba0       ??_C@_15DKNDCGEA@?$AAt?$AAt?$AA?$AA@ 000000018005bba0     LIBCMT:winapinls.obj
 0002:00004ba8       ??_C@_15MGIFMDPL@?$AAp?$AAa?$AA?$AA@ 000000018005bba8     LIBCMT:winapinls.obj
 0002:00004bb0       ??_C@_15HCNDBBA@?$AAg?$AAu?$AA?$AA@ 000000018005bbb0     LIBCMT:winapinls.obj
 0002:00004bb8       ??_C@_15FNBEIBON@?$AAt?$AAa?$AA?$AA@ 000000018005bbb8     LIBCMT:winapinls.obj
 0002:00004bc0       ??_C@_15NCHGBGLK@?$AAt?$AAe?$AA?$AA@ 000000018005bbc0     LIBCMT:winapinls.obj
 0002:00004bc8       ??_C@_15PHPHCBPF@?$AAk?$AAn?$AA?$AA@ 000000018005bbc8     LIBCMT:winapinls.obj
 0002:00004bd0       ??_C@_15DLGBCKMP@?$AAm?$AAr?$AA?$AA@ 000000018005bbd0     LIBCMT:winapinls.obj
 0002:00004bd8       ??_C@_15EABBLBFF@?$AAs?$AAa?$AA?$AA@ 000000018005bbd8     LIBCMT:winapinls.obj
 0002:00004be0       ??_C@_15CBKOMCOI@?$AAm?$AAn?$AA?$AA@ 000000018005bbe0     LIBCMT:winapinls.obj
 0002:00004be8       ??_C@_15CKDMCJAF@?$AAg?$AAl?$AA?$AA@ 000000018005bbe8     LIBCMT:winapinls.obj
 0002:00004bf0       ??_C@_17CNJFBPG@?$AAk?$AAo?$AAk?$AA?$AA@ 000000018005bbf0     LIBCMT:winapinls.obj
 0002:00004bf8       ??_C@_17FFBJICPL@?$AAs?$AAy?$AAr?$AA?$AA@ 000000018005bbf8     LIBCMT:winapinls.obj
 0002:00004c00       ??_C@_17KPNDCPAF@?$AAd?$AAi?$AAv?$AA?$AA@ 000000018005bc00     LIBCMT:winapinls.obj
 0002:00004c08       ??_C@_11LOCGONAA@?$AA?$AA@ 000000018005bc08     LIBCMT:winapinls.obj
 0002:00004c10       ??_C@_1M@OKAHONE@?$AAa?$AAr?$AA?9?$AAS?$AAA?$AA?$AA@ 000000018005bc10     LIBCMT:winapinls.obj
 0002:00004c20       ??_C@_1M@FFFIGIGK@?$AAb?$AAg?$AA?9?$AAB?$AAG?$AA?$AA@ 000000018005bc20     LIBCMT:winapinls.obj
 0002:00004c30       ??_C@_1M@BJNKEDC@?$AAc?$AAa?$AA?9?$AAE?$AAS?$AA?$AA@ 000000018005bc30     LIBCMT:winapinls.obj
 0002:00004c40       ??_C@_1M@IJJHFJHA@?$AAc?$AAs?$AA?9?$AAC?$AAZ?$AA?$AA@ 000000018005bc40     LIBCMT:winapinls.obj
 0002:00004c50       ??_C@_1M@CLPEOBGI@?$AAd?$AAa?$AA?9?$AAD?$AAK?$AA?$AA@ 000000018005bc50     LIBCMT:winapinls.obj
 0002:00004c60       ??_C@_1M@MCMADGCB@?$AAd?$AAe?$AA?9?$AAD?$AAE?$AA?$AA@ 000000018005bc60     LIBCMT:winapinls.obj
 0002:00004c70       ??_C@_1M@OOCKEMAM@?$AAe?$AAl?$AA?9?$AAG?$AAR?$AA?$AA@ 000000018005bc70     LIBCMT:winapinls.obj
 0002:00004c80       ??_C@_1M@DDNJFGID@?$AAf?$AAi?$AA?9?$AAF?$AAI?$AA?$AA@ 000000018005bc80     LIBCMT:winapinls.obj
 0002:00004c90       ??_C@_1M@GLIPPMAC@?$AAf?$AAr?$AA?9?$AAF?$AAR?$AA?$AA@ 000000018005bc90     LIBCMT:winapinls.obj
 0002:00004ca0       ??_C@_1M@GFMCHPE@?$AAh?$AAe?$AA?9?$AAI?$AAL?$AA?$AA@ 000000018005bca0     LIBCMT:winapinls.obj
 0002:00004cb0       ??_C@_1M@MHLPGNKM@?$AAh?$AAu?$AA?9?$AAH?$AAU?$AA?$AA@ 000000018005bcb0     LIBCMT:winapinls.obj
 0002:00004cc0       ??_C@_1M@LPDDNNPN@?$AAi?$AAs?$AA?9?$AAI?$AAS?$AA?$AA@ 000000018005bcc0     LIBCMT:winapinls.obj
 0002:00004cd0       ??_C@_1M@MADIPODN@?$AAi?$AAt?$AA?9?$AAI?$AAT?$AA?$AA@ 000000018005bcd0     LIBCMT:winapinls.obj
 0002:00004ce0       ??_C@_1M@IHBJJGG@?$AAn?$AAl?$AA?9?$AAN?$AAL?$AA?$AA@ 000000018005bce0     LIBCMT:winapinls.obj
 0002:00004cf0       ??_C@_1M@EANAGDL@?$AAn?$AAb?$AA?9?$AAN?$AAO?$AA?$AA@ 000000018005bcf0     LIBCMT:winapinls.obj
 0002:00004d00       ??_C@_1M@NEIEMEGP@?$AAp?$AAl?$AA?9?$AAP?$AAL?$AA?$AA@ 000000018005bd00     LIBCMT:winapinls.obj
 0002:00004d10       ??_C@_1M@BOCFIGEP@?$AAp?$AAt?$AA?9?$AAB?$AAR?$AA?$AA@ 000000018005bd10     LIBCMT:winapinls.obj
 0002:00004d20       ??_C@_1M@IMPFOPBG@?$AAr?$AAo?$AA?9?$AAR?$AAO?$AA?$AA@ 000000018005bd20     LIBCMT:winapinls.obj
 0002:00004d30       ??_C@_1M@IDNNEJMM@?$AAr?$AAu?$AA?9?$AAR?$AAU?$AA?$AA@ 000000018005bd30     LIBCMT:winapinls.obj
 0002:00004d40       ??_C@_1M@LILEEOGM@?$AAh?$AAr?$AA?9?$AAH?$AAR?$AA?$AA@ 000000018005bd40     LIBCMT:winapinls.obj
 0002:00004d50       ??_C@_1M@FKIFEHPB@?$AAs?$AAk?$AA?9?$AAS?$AAK?$AA?$AA@ 000000018005bd50     LIBCMT:winapinls.obj
 0002:00004d60       ??_C@_1M@LJMAMNPJ@?$AAs?$AAq?$AA?9?$AAA?$AAL?$AA?$AA@ 000000018005bd60     LIBCMT:winapinls.obj
 0002:00004d70       ??_C@_1M@GIAKDKJK@?$AAs?$AAv?$AA?9?$AAS?$AAE?$AA?$AA@ 000000018005bd70     LIBCMT:winapinls.obj
 0002:00004d80       ??_C@_1M@MKJKIKCL@?$AAt?$AAh?$AA?9?$AAT?$AAH?$AA?$AA@ 000000018005bd80     LIBCMT:winapinls.obj
 0002:00004d90       ??_C@_1M@MFLCCMPB@?$AAt?$AAr?$AA?9?$AAT?$AAR?$AA?$AA@ 000000018005bd90     LIBCMT:winapinls.obj
 0002:00004da0       ??_C@_1M@OIJHDKJN@?$AAu?$AAr?$AA?9?$AAP?$AAK?$AA?$AA@ 000000018005bda0     LIBCMT:winapinls.obj
 0002:00004db0       ??_C@_1M@LHIPCIEK@?$AAi?$AAd?$AA?9?$AAI?$AAD?$AA?$AA@ 000000018005bdb0     LIBCMT:winapinls.obj
 0002:00004dc0       ??_C@_1M@MFMOBGI@?$AAu?$AAk?$AA?9?$AAU?$AAA?$AA?$AA@ 000000018005bdc0     LIBCMT:winapinls.obj
 0002:00004dd0       ??_C@_1M@OBGLJIPL@?$AAb?$AAe?$AA?9?$AAB?$AAY?$AA?$AA@ 000000018005bdd0     LIBCMT:winapinls.obj
 0002:00004de0       ??_C@_1M@BCFAJEAD@?$AAs?$AAl?$AA?9?$AAS?$AAI?$AA?$AA@ 000000018005bde0     LIBCMT:winapinls.obj
 0002:00004df0       ??_C@_1M@FKFFEDDN@?$AAe?$AAt?$AA?9?$AAE?$AAE?$AA?$AA@ 000000018005bdf0     LIBCMT:winapinls.obj
 0002:00004e00       ??_C@_1M@KGKKAACI@?$AAl?$AAv?$AA?9?$AAL?$AAV?$AA?$AA@ 000000018005be00     LIBCMT:winapinls.obj
 0002:00004e10       ??_C@_1M@IFGBIJO@?$AAl?$AAt?$AA?9?$AAL?$AAT?$AA?$AA@ 000000018005be10     LIBCMT:winapinls.obj
 0002:00004e20       ??_C@_1M@FGEAHEDM@?$AAf?$AAa?$AA?9?$AAI?$AAR?$AA?$AA@ 000000018005be20     LIBCMT:winapinls.obj
 0002:00004e30       ??_C@_1M@KBMAIBFN@?$AAv?$AAi?$AA?9?$AAV?$AAN?$AA?$AA@ 000000018005be30     LIBCMT:winapinls.obj
 0002:00004e40       ??_C@_1M@GPCBKDJK@?$AAh?$AAy?$AA?9?$AAA?$AAM?$AA?$AA@ 000000018005be40     LIBCMT:winapinls.obj
 0002:00004e50       ??_C@_1BG@BECMDDJB@?$AAa?$AAz?$AA?9?$AAA?$AAZ?$AA?9?$AAL?$AAa?$AAt?$AAn?$AA?$AA@ 000000018005be50     LIBCMT:winapinls.obj
 0002:00004e68       ??_C@_1M@MAOFCAEA@?$AAe?$AAu?$AA?9?$AAE?$AAS?$AA?$AA@ 000000018005be68     LIBCMT:winapinls.obj
 0002:00004e78       ??_C@_1M@IGHABKPI@?$AAm?$AAk?$AA?9?$AAM?$AAK?$AA?$AA@ 000000018005be78     LIBCMT:winapinls.obj
 0002:00004e88       ??_C@_1M@IAIGNEJG@?$AAt?$AAn?$AA?9?$AAZ?$AAA?$AA?$AA@ 000000018005be88     LIBCMT:winapinls.obj
 0002:00004e98       ??_C@_1M@IIJCOJFA@?$AAx?$AAh?$AA?9?$AAZ?$AAA?$AA?$AA@ 000000018005be98     LIBCMT:winapinls.obj
 0002:00004ea8       ??_C@_1M@LGPJHNJH@?$AAz?$AAu?$AA?9?$AAZ?$AAA?$AA?$AA@ 000000018005bea8     LIBCMT:winapinls.obj
 0002:00004eb8       ??_C@_1M@HOKAOIO@?$AAa?$AAf?$AA?9?$AAZ?$AAA?$AA?$AA@ 000000018005beb8     LIBCMT:winapinls.obj
 0002:00004ec8       ??_C@_1M@DPCLHLIE@?$AAk?$AAa?$AA?9?$AAG?$AAE?$AA?$AA@ 000000018005bec8     LIBCMT:winapinls.obj
 0002:00004ed8       ??_C@_1M@BLKMHJBI@?$AAf?$AAo?$AA?9?$AAF?$AAO?$AA?$AA@ 000000018005bed8     LIBCMT:winapinls.obj
 0002:00004ee8       ??_C@_1M@LGGJAPPB@?$AAh?$AAi?$AA?9?$AAI?$AAN?$AA?$AA@ 000000018005bee8     LIBCMT:winapinls.obj
 0002:00004ef8       ??_C@_1M@FIKPIHFE@?$AAm?$AAt?$AA?9?$AAM?$AAT?$AA?$AA@ 000000018005bef8     LIBCMT:winapinls.obj
 0002:00004f08       ??_C@_1M@HEGGPBFA@?$AAs?$AAe?$AA?9?$AAN?$AAO?$AA?$AA@ 000000018005bf08     LIBCMT:winapinls.obj
 0002:00004f18       ??_C@_1M@EIBJEEPA@?$AAm?$AAs?$AA?9?$AAM?$AAY?$AA?$AA@ 000000018005bf18     LIBCMT:winapinls.obj
 0002:00004f28       ??_C@_1M@FHLBGMPP@?$AAk?$AAk?$AA?9?$AAK?$AAZ?$AA?$AA@ 000000018005bf28     LIBCMT:winapinls.obj
 0002:00004f38       ??_C@_1M@NGJJLCGI@?$AAk?$AAy?$AA?9?$AAK?$AAG?$AA?$AA@ 000000018005bf38     LIBCMT:winapinls.obj
 0002:00004f48       ??_C@_1M@GIENNBFC@?$AAs?$AAw?$AA?9?$AAK?$AAE?$AA?$AA@ 000000018005bf48     LIBCMT:winapinls.obj
 0002:00004f58       ??_C@_1BG@NDGMJIMJ@?$AAu?$AAz?$AA?9?$AAU?$AAZ?$AA?9?$AAL?$AAa?$AAt?$AAn?$AA?$AA@ 000000018005bf58     LIBCMT:winapinls.obj
 0002:00004f70       ??_C@_1M@IDCCIHBC@?$AAt?$AAt?$AA?9?$AAR?$AAU?$AA?$AA@ 000000018005bf70     LIBCMT:winapinls.obj
 0002:00004f80       ??_C@_1M@LOICPMOJ@?$AAb?$AAn?$AA?9?$AAI?$AAN?$AA?$AA@ 000000018005bf80     LIBCMT:winapinls.obj
 0002:00004f90       ??_C@_1M@KPKKNEAH@?$AAp?$AAa?$AA?9?$AAI?$AAN?$AA?$AA@ 000000018005bf90     LIBCMT:winapinls.obj
 0002:00004fa0       ??_C@_1M@PJGPPBOG@?$AAg?$AAu?$AA?9?$AAI?$AAN?$AA?$AA@ 000000018005bfa0     LIBCMT:winapinls.obj
 0002:00004fb0       ??_C@_1M@KMKMOPHI@?$AAt?$AAa?$AA?9?$AAI?$AAN?$AA?$AA@ 000000018005bfb0     LIBCMT:winapinls.obj
 0002:00004fc0       ??_C@_1M@KFEHEPAC@?$AAt?$AAe?$AA?9?$AAI?$AAN?$AA?$AA@ 000000018005bfc0     LIBCMT:winapinls.obj
 0002:00004fd0       ??_C@_1M@CDCLMGHI@?$AAk?$AAn?$AA?9?$AAI?$AAN?$AA?$AA@ 000000018005bfd0     LIBCMT:winapinls.obj
 0002:00004fe0       ??_C@_1M@MIODLDKF@?$AAm?$AAl?$AA?9?$AAI?$AAN?$AA?$AA@ 000000018005bfe0     LIBCMT:winapinls.obj
 0002:00004ff0       ??_C@_1M@PBIEACPO@?$AAm?$AAr?$AA?9?$AAI?$AAN?$AA?$AA@ 000000018005bff0     LIBCMT:winapinls.obj
 0002:00005000       ??_C@_1M@NIDEAGPH@?$AAs?$AAa?$AA?9?$AAI?$AAN?$AA?$AA@ 000000018005c000     LIBCMT:winapinls.obj
 0002:00005010       ??_C@_1M@FHIHCBIO@?$AAm?$AAn?$AA?9?$AAM?$AAN?$AA?$AA@ 000000018005c010     LIBCMT:winapinls.obj
 0002:00005020       ??_C@_1M@JAIJPENP@?$AAc?$AAy?$AA?9?$AAG?$AAB?$AA?$AA@ 000000018005c020     LIBCMT:winapinls.obj
 0002:00005030       ??_C@_1M@PHGFBEPN@?$AAg?$AAl?$AA?9?$AAE?$AAS?$AA?$AA@ 000000018005c030     LIBCMT:winapinls.obj
 0002:00005040       ??_C@_1O@KPIPDNCP@?$AAk?$AAo?$AAk?$AA?9?$AAI?$AAN?$AA?$AA@ 000000018005c040     LIBCMT:winapinls.obj
 0002:00005050       ??_C@_1O@KNHJLDJA@?$AAs?$AAy?$AAr?$AA?9?$AAS?$AAY?$AA?$AA@ 000000018005c050     LIBCMT:winapinls.obj
 0002:00005060       ??_C@_1O@MKEKBLAH@?$AAd?$AAi?$AAv?$AA?9?$AAM?$AAV?$AA?$AA@ 000000018005c060     LIBCMT:winapinls.obj
 0002:00005070       ??_C@_1O@OHDCKDDF@?$AAq?$AAu?$AAz?$AA?9?$AAB?$AAO?$AA?$AA@ 000000018005c070     LIBCMT:winapinls.obj
 0002:00005080       ??_C@_1M@LEPJNLFD@?$AAn?$AAs?$AA?9?$AAZ?$AAA?$AA?$AA@ 000000018005c080     LIBCMT:winapinls.obj
 0002:00005090       ??_C@_1M@OMLEIIJB@?$AAm?$AAi?$AA?9?$AAN?$AAZ?$AA?$AA@ 000000018005c090     LIBCMT:winapinls.obj
 0002:000050a0       ??_C@_1M@PMPEAILG@?$AAa?$AAr?$AA?9?$AAI?$AAQ?$AA?$AA@ 000000018005c0a0     LIBCMT:winapinls.obj
 0002:000050b0       ??_C@_1M@CNKPNOEE@?$AAd?$AAe?$AA?9?$AAC?$AAH?$AA?$AA@ 000000018005c0b0     LIBCMT:winapinls.obj
 0002:000050c0       ??_C@_1M@LKMGMLKO@?$AAe?$AAn?$AA?9?$AAG?$AAB?$AA?$AA@ 000000018005c0c0     LIBCMT:winapinls.obj
 0002:000050d0       ??_C@_1M@PGKJFFGL@?$AAe?$AAs?$AA?9?$AAM?$AAX?$AA?$AA@ 000000018005c0d0     LIBCMT:winapinls.obj
 0002:000050e0       ??_C@_1M@DNNANBDC@?$AAf?$AAr?$AA?9?$AAB?$AAE?$AA?$AA@ 000000018005c0e0     LIBCMT:winapinls.obj
 0002:000050f0       ??_C@_1M@HLGMDFHM@?$AAi?$AAt?$AA?9?$AAC?$AAH?$AA?$AA@ 000000018005c0f0     LIBCMT:winapinls.obj
 0002:00005100       ??_C@_1M@CLLBGJH@?$AAn?$AAl?$AA?9?$AAB?$AAE?$AA?$AA@ 000000018005c100     LIBCMT:winapinls.obj
 0002:00005110       ??_C@_1M@BODBOGLF@?$AAn?$AAn?$AA?9?$AAN?$AAO?$AA?$AA@ 000000018005c110     LIBCMT:winapinls.obj
 0002:00005120       ??_C@_1M@HFFAHKAD@?$AAp?$AAt?$AA?9?$AAP?$AAT?$AA?$AA@ 000000018005c120     LIBCMT:winapinls.obj
 0002:00005130       ??_C@_1BG@LNOAKHIE@?$AAs?$AAr?$AA?9?$AAS?$AAP?$AA?9?$AAL?$AAa?$AAt?$AAn?$AA?$AA@ 000000018005c130     LIBCMT:winapinls.obj
 0002:00005148       ??_C@_1M@HBMHBGAK@?$AAs?$AAv?$AA?9?$AAF?$AAI?$AA?$AA@ 000000018005c148     LIBCMT:winapinls.obj
 0002:00005158       ??_C@_1BG@DGCJGJBE@?$AAa?$AAz?$AA?9?$AAA?$AAZ?$AA?9?$AAC?$AAy?$AAr?$AAl?$AA?$AA@ 000000018005c158     LIBCMT:winapinls.obj
 0002:00005170       ??_C@_1M@KEJDAAHB@?$AAs?$AAe?$AA?9?$AAS?$AAE?$AA?$AA@ 000000018005c170     LIBCMT:winapinls.obj
 0002:00005180       ??_C@_1M@HEIBJJAD@?$AAm?$AAs?$AA?9?$AAB?$AAN?$AA?$AA@ 000000018005c180     LIBCMT:winapinls.obj
 0002:00005190       ??_C@_1BG@PBGJMCEM@?$AAu?$AAz?$AA?9?$AAU?$AAZ?$AA?9?$AAC?$AAy?$AAr?$AAl?$AA?$AA@ 000000018005c190     LIBCMT:winapinls.obj
 0002:000051a8       ??_C@_1O@LAOBCMDF@?$AAq?$AAu?$AAz?$AA?9?$AAE?$AAC?$AA?$AA@ 000000018005c1a8     LIBCMT:winapinls.obj
 0002:000051b8       ??_C@_1M@POEEMAIO@?$AAa?$AAr?$AA?9?$AAE?$AAG?$AA?$AA@ 000000018005c1b8     LIBCMT:winapinls.obj
 0002:000051c8       ??_C@_1M@EFAKDEDL@?$AAz?$AAh?$AA?9?$AAH?$AAK?$AA?$AA@ 000000018005c1c8     LIBCMT:winapinls.obj
 0002:000051d8       ??_C@_1M@HKKIJHGI@?$AAd?$AAe?$AA?9?$AAA?$AAT?$AA?$AA@ 000000018005c1d8     LIBCMT:winapinls.obj
 0002:000051e8       ??_C@_1M@KBFBEHJF@?$AAe?$AAn?$AA?9?$AAA?$AAU?$AA?$AA@ 000000018005c1e8     LIBCMT:winapinls.obj
 0002:000051f8       ??_C@_1M@MNPLFAAH@?$AAe?$AAs?$AA?9?$AAE?$AAS?$AA?$AA@ 000000018005c1f8     LIBCMT:winapinls.obj
 0002:00005208       ??_C@_1M@HJOOJFMA@?$AAf?$AAr?$AA?9?$AAC?$AAA?$AA?$AA@ 000000018005c208     LIBCMT:winapinls.obj
 0002:00005218       ??_C@_1BG@JPOFPNAB@?$AAs?$AAr?$AA?9?$AAS?$AAP?$AA?9?$AAC?$AAy?$AAr?$AAl?$AA?$AA@ 000000018005c218     LIBCMT:winapinls.obj
 0002:00005230       ??_C@_1M@LNFOCMOB@?$AAs?$AAe?$AA?9?$AAF?$AAI?$AA?$AA@ 000000018005c230     LIBCMT:winapinls.obj
 0002:00005240       ??_C@_1O@MGJBOAMB@?$AAq?$AAu?$AAz?$AA?9?$AAP?$AAE?$AA?$AA@ 000000018005c240     LIBCMT:winapinls.obj
 0002:00005250       ??_C@_1M@GJINLBOK@?$AAa?$AAr?$AA?9?$AAL?$AAY?$AA?$AA@ 000000018005c250     LIBCMT:winapinls.obj
 0002:00005260       ??_C@_1M@GGMNHJNL@?$AAz?$AAh?$AA?9?$AAS?$AAG?$AA?$AA@ 000000018005c260     LIBCMT:winapinls.obj
 0002:00005270       ??_C@_1M@HOIKODND@?$AAd?$AAe?$AA?9?$AAL?$AAU?$AA?$AA@ 000000018005c270     LIBCMT:winapinls.obj
 0002:00005280       ??_C@_1M@DDOCCGFG@?$AAe?$AAn?$AA?9?$AAC?$AAA?$AA?$AA@ 000000018005c280     LIBCMT:winapinls.obj
 0002:00005290       ??_C@_1M@BNOEMJLF@?$AAe?$AAs?$AA?9?$AAG?$AAT?$AA?$AA@ 000000018005c290     LIBCMT:winapinls.obj
 0002:000052a0       ??_C@_1M@EOGNKEK@?$AAf?$AAr?$AA?9?$AAC?$AAH?$AA?$AA@ 000000018005c2a0     LIBCMT:winapinls.obj
 0002:000052b0       ??_C@_1M@FLIDJFHL@?$AAh?$AAr?$AA?9?$AAB?$AAA?$AA?$AA@ 000000018005c2b0     LIBCMT:winapinls.obj
 0002:000052c0       ??_C@_1O@FMCELNAJ@?$AAs?$AAm?$AAj?$AA?9?$AAN?$AAO?$AA?$AA@ 000000018005c2c0     LIBCMT:winapinls.obj
 0002:000052d0       ??_C@_1M@JHGLJMGJ@?$AAa?$AAr?$AA?9?$AAD?$AAZ?$AA?$AA@ 000000018005c2d0     LIBCMT:winapinls.obj
 0002:000052e0       ??_C@_1M@JKKFDCNP@?$AAz?$AAh?$AA?9?$AAM?$AAO?$AA?$AA@ 000000018005c2e0     LIBCMT:winapinls.obj
 0002:000052f0       ??_C@_1M@GEEFALPE@?$AAd?$AAe?$AA?9?$AAL?$AAI?$AA?$AA@ 000000018005c2f0     LIBCMT:winapinls.obj
 0002:00005300       ??_C@_1M@IGEOFBG@?$AAe?$AAn?$AA?9?$AAN?$AAZ?$AA?$AA@ 000000018005c300     LIBCMT:winapinls.obj
 0002:00005310       ??_C@_1M@KDBONEHP@?$AAe?$AAs?$AA?9?$AAC?$AAR?$AA?$AA@ 000000018005c310     LIBCMT:winapinls.obj
 0002:00005320       ??_C@_1M@FHMDOHNN@?$AAf?$AAr?$AA?9?$AAL?$AAU?$AA?$AA@ 000000018005c320     LIBCMT:winapinls.obj
 0002:00005330       ??_C@_1BG@NFKKMAFG@?$AAb?$AAs?$AA?9?$AAB?$AAA?$AA?9?$AAL?$AAa?$AAt?$AAn?$AA?$AA@ 000000018005c330     LIBCMT:winapinls.obj
 0002:00005348       ??_C@_1O@IMNBEMCI@?$AAs?$AAm?$AAj?$AA?9?$AAS?$AAE?$AA?$AA@ 000000018005c348     LIBCMT:winapinls.obj
 0002:00005358       ??_C@_1M@DHHMBNDP@?$AAa?$AAr?$AA?9?$AAM?$AAA?$AA?$AA@ 000000018005c358     LIBCMT:winapinls.obj
 0002:00005368       ??_C@_1M@BNBLJCGH@?$AAe?$AAn?$AA?9?$AAI?$AAE?$AA?$AA@ 000000018005c368     LIBCMT:winapinls.obj
 0002:00005378       ??_C@_1M@GEPAFMDL@?$AAe?$AAs?$AA?9?$AAP?$AAA?$AA?$AA@ 000000018005c378     LIBCMT:winapinls.obj
 0002:00005388       ??_C@_1M@OJONDMDL@?$AAf?$AAr?$AA?9?$AAM?$AAC?$AA?$AA@ 000000018005c388     LIBCMT:winapinls.obj
 0002:00005398       ??_C@_1BG@OBCNFJB@?$AAs?$AAr?$AA?9?$AAB?$AAA?$AA?9?$AAL?$AAa?$AAt?$AAn?$AA?$AA@ 000000018005c398     LIBCMT:winapinls.obj
 0002:000053b0       ??_C@_1O@KEMEEGPO@?$AAs?$AAm?$AAa?$AA?9?$AAN?$AAO?$AA?$AA@ 000000018005c3b0     LIBCMT:winapinls.obj
 0002:000053c0       ??_C@_1M@ELMGFODK@?$AAa?$AAr?$AA?9?$AAT?$AAN?$AA?$AA@ 000000018005c3c0     LIBCMT:winapinls.obj
 0002:000053d0       ??_C@_1M@BHDLHFAF@?$AAe?$AAn?$AA?9?$AAZ?$AAA?$AA?$AA@ 000000018005c3d0     LIBCMT:winapinls.obj
 0002:000053e0       ??_C@_1M@BMGIGLIF@?$AAe?$AAs?$AA?9?$AAD?$AAO?$AA?$AA@ 000000018005c3e0     LIBCMT:winapinls.obj
 0002:000053f0       ??_C@_1BG@CMBHIPBE@?$AAs?$AAr?$AA?9?$AAB?$AAA?$AA?9?$AAC?$AAy?$AAr?$AAl?$AA?$AA@ 000000018005c3f0     LIBCMT:winapinls.obj
 0002:00005408       ??_C@_1O@HEDBLHNP@?$AAs?$AAm?$AAa?$AA?9?$AAS?$AAE?$AA?$AA@ 000000018005c408     LIBCMT:winapinls.obj
 0002:00005418       ??_C@_1M@DAGCADIM@?$AAa?$AAr?$AA?9?$AAO?$AAM?$AA?$AA@ 000000018005c418     LIBCMT:winapinls.obj
 0002:00005428       ??_C@_1M@FODLMICG@?$AAe?$AAn?$AA?9?$AAJ?$AAM?$AA?$AA@ 000000018005c428     LIBCMT:winapinls.obj
 0002:00005438       ??_C@_1M@DNMLCIHB@?$AAe?$AAs?$AA?9?$AAV?$AAE?$AA?$AA@ 000000018005c438     LIBCMT:winapinls.obj
 0002:00005448       ??_C@_1O@EOKHMKJK@?$AAs?$AAm?$AAs?$AA?9?$AAF?$AAI?$AA?$AA@ 000000018005c448     LIBCMT:winapinls.obj
 0002:00005458       ??_C@_1M@CAFJMKOF@?$AAa?$AAr?$AA?9?$AAY?$AAE?$AA?$AA@ 000000018005c458     LIBCMT:winapinls.obj
 0002:00005468       ??_C@_1M@CBFHIJLI@?$AAe?$AAn?$AA?9?$AAC?$AAB?$AA?$AA@ 000000018005c468     LIBCMT:winapinls.obj
 0002:00005478       ??_C@_1M@BGNFLDN@?$AAe?$AAs?$AA?9?$AAC?$AAO?$AA?$AA@ 000000018005c478     LIBCMT:winapinls.obj
 0002:00005488       ??_C@_1O@JMPHMAMC@?$AAs?$AAm?$AAn?$AA?9?$AAF?$AAI?$AA?$AA@ 000000018005c488     LIBCMT:winapinls.obj
 0002:00005498       ??_C@_1M@JLANABKE@?$AAa?$AAr?$AA?9?$AAS?$AAY?$AA?$AA@ 000000018005c498     LIBCMT:winapinls.obj
 0002:000054a8       ??_C@_1M@HPKGCFGN@?$AAe?$AAn?$AA?9?$AAB?$AAZ?$AA?$AA@ 000000018005c4a8     LIBCMT:winapinls.obj
 0002:000054b8       ??_C@_1M@OLJCMLGM@?$AAe?$AAs?$AA?9?$AAP?$AAE?$AA?$AA@ 000000018005c4b8     LIBCMT:winapinls.obj
 0002:000054c8       ??_C@_1M@MKKGFKLE@?$AAa?$AAr?$AA?9?$AAJ?$AAO?$AA?$AA@ 000000018005c4c8     LIBCMT:winapinls.obj
 0002:000054d8       ??_C@_1M@EKPGLDNI@?$AAe?$AAn?$AA?9?$AAT?$AAT?$AA?$AA@ 000000018005c4d8     LIBCMT:winapinls.obj
 0002:000054e8       ??_C@_1M@OONGHFHE@?$AAe?$AAs?$AA?9?$AAA?$AAR?$AA?$AA@ 000000018005c4e8     LIBCMT:winapinls.obj
 0002:000054f8       ??_C@_1M@OOJFGBHE@?$AAa?$AAr?$AA?9?$AAL?$AAB?$AA?$AA@ 000000018005c4f8     LIBCMT:winapinls.obj
 0002:00005508       ??_C@_1M@GCEJHNEG@?$AAe?$AAn?$AA?9?$AAZ?$AAW?$AA?$AA@ 000000018005c508     LIBCMT:winapinls.obj
 0002:00005518       ??_C@_1M@JNOCAHJI@?$AAe?$AAs?$AA?9?$AAE?$AAC?$AA?$AA@ 000000018005c518     LIBCMT:winapinls.obj
 0002:00005528       ??_C@_1M@JEFHPGGB@?$AAa?$AAr?$AA?9?$AAK?$AAW?$AA?$AA@ 000000018005c528     LIBCMT:winapinls.obj
 0002:00005538       ??_C@_1M@MLKIBJOJ@?$AAe?$AAn?$AA?9?$AAP?$AAH?$AA?$AA@ 000000018005c538     LIBCMT:winapinls.obj
 0002:00005548       ??_C@_1M@BDNIPEND@?$AAe?$AAs?$AA?9?$AAC?$AAL?$AA?$AA@ 000000018005c548     LIBCMT:winapinls.obj
 0002:00005558       ??_C@_1M@MPNMEKBD@?$AAa?$AAr?$AA?9?$AAA?$AAE?$AA?$AA@ 000000018005c558     LIBCMT:winapinls.obj
 0002:00005568       ??_C@_1M@KBJALCPI@?$AAe?$AAs?$AA?9?$AAU?$AAY?$AA?$AA@ 000000018005c568     LIBCMT:winapinls.obj
 0002:00005578       ??_C@_1M@LLCCOAGA@?$AAa?$AAr?$AA?9?$AAB?$AAH?$AA?$AA@ 000000018005c578     LIBCMT:winapinls.obj
 0002:00005588       ??_C@_1M@PBFNCDEL@?$AAe?$AAs?$AA?9?$AAP?$AAY?$AA?$AA@ 000000018005c588     LIBCMT:winapinls.obj
 0002:00005598       ??_C@_1M@EDGINPNP@?$AAa?$AAr?$AA?9?$AAQ?$AAA?$AA?$AA@ 000000018005c598     LIBCMT:winapinls.obj
 0002:000055a8       ??_C@_1M@MKDBIIJI@?$AAe?$AAs?$AA?9?$AAB?$AAO?$AA?$AA@ 000000018005c5a8     LIBCMT:winapinls.obj
 0002:000055b8       ??_C@_1M@CPKKEBLD@?$AAe?$AAs?$AA?9?$AAS?$AAV?$AA?$AA@ 000000018005c5b8     LIBCMT:winapinls.obj
 0002:000055c8       ??_C@_1M@NDBGMMJL@?$AAe?$AAs?$AA?9?$AAH?$AAN?$AA?$AA@ 000000018005c5c8     LIBCMT:winapinls.obj
 0002:000055d8       ??_C@_1M@JIJIBHDP@?$AAe?$AAs?$AA?9?$AAN?$AAI?$AA?$AA@ 000000018005c5d8     LIBCMT:winapinls.obj
 0002:000055e8       ??_C@_1M@CGFMKEEK@?$AAe?$AAs?$AA?9?$AAP?$AAR?$AA?$AA@ 000000018005c5e8     LIBCMT:winapinls.obj
 0002:000055f8       ??_C@_1O@ICJHKIIK@?$AAz?$AAh?$AA?9?$AAC?$AAH?$AAT?$AA?$AA@ 000000018005c5f8     LIBCMT:winapinls.obj
 0002:00005608       ??_C@_15CLNEJCE@?$AAs?$AAr?$AA?$AA@ 000000018005c608     LIBCMT:winapinls.obj
 0002:00005610       ??_C@_1M@KAHEKEIG@?$AAa?$AAf?$AA?9?$AAz?$AAa?$AA?$AA@ 000000018005c610     LIBCMT:winapinls.obj
 0002:00005620       ??_C@_1M@GIECOABL@?$AAa?$AAr?$AA?9?$AAa?$AAe?$AA?$AA@ 000000018005c620     LIBCMT:winapinls.obj
 0002:00005630       ??_C@_1M@BMLMEKGI@?$AAa?$AAr?$AA?9?$AAb?$AAh?$AA?$AA@ 000000018005c630     LIBCMT:winapinls.obj
 0002:00005640       ??_C@_1M@DAPFDGGB@?$AAa?$AAr?$AA?9?$AAd?$AAz?$AA?$AA@ 000000018005c640     LIBCMT:winapinls.obj
 0002:00005650       ??_C@_1M@FJNKGKIG@?$AAa?$AAr?$AA?9?$AAe?$AAg?$AA?$AA@ 000000018005c650     LIBCMT:winapinls.obj
 0002:00005660       ??_C@_1M@FLGKKCLO@?$AAa?$AAr?$AA?9?$AAi?$AAq?$AA?$AA@ 000000018005c660     LIBCMT:winapinls.obj
 0002:00005670       ??_C@_1M@GNDIPALM@?$AAa?$AAr?$AA?9?$AAj?$AAo?$AA?$AA@ 000000018005c670     LIBCMT:winapinls.obj
 0002:00005680       ??_C@_1M@DDMJFMGJ@?$AAa?$AAr?$AA?9?$AAk?$AAw?$AA?$AA@ 000000018005c680     LIBCMT:winapinls.obj
 0002:00005690       ??_C@_1M@EJALMLHM@?$AAa?$AAr?$AA?9?$AAl?$AAb?$AA?$AA@ 000000018005c690     LIBCMT:winapinls.obj
 0002:000056a0       ??_C@_1M@MOBDBLOC@?$AAa?$AAr?$AA?9?$AAl?$AAy?$AA?$AA@ 000000018005c6a0     LIBCMT:winapinls.obj
 0002:000056b0       ??_C@_1M@JAOCLHDH@?$AAa?$AAr?$AA?9?$AAm?$AAa?$AA?$AA@ 000000018005c6b0     LIBCMT:winapinls.obj
 0002:000056c0       ??_C@_1M@JHPMKJIE@?$AAa?$AAr?$AA?9?$AAo?$AAm?$AA?$AA@ 000000018005c6c0     LIBCMT:winapinls.obj
 0002:000056d0       ??_C@_1M@OEPGHFNH@?$AAa?$AAr?$AA?9?$AAq?$AAa?$AA?$AA@ 000000018005c6d0     LIBCMT:winapinls.obj
 0002:000056e0       ??_C@_1M@KJDONENM@?$AAa?$AAr?$AA?9?$AAs?$AAa?$AA?$AA@ 000000018005c6e0     LIBCMT:winapinls.obj
 0002:000056f0       ??_C@_1M@DMJDKLKM@?$AAa?$AAr?$AA?9?$AAs?$AAy?$AA?$AA@ 000000018005c6f0     LIBCMT:winapinls.obj
 0002:00005700       ??_C@_1M@OMFIPEDC@?$AAa?$AAr?$AA?9?$AAt?$AAn?$AA?$AA@ 000000018005c700     LIBCMT:winapinls.obj
 0002:00005710       ??_C@_1M@IHMHGAON@?$AAa?$AAr?$AA?9?$AAy?$AAe?$AA?$AA@ 000000018005c710     LIBCMT:winapinls.obj
 0002:00005720       ??_C@_1BG@KDCPGJGB@?$AAa?$AAz?$AA?9?$AAa?$AAz?$AA?9?$AAc?$AAy?$AAr?$AAl?$AA?$AA@ 000000018005c720     LIBCMT:winapinls.obj
 0002:00005738       ??_C@_1BG@IBCKDDOE@?$AAa?$AAz?$AA?9?$AAa?$AAz?$AA?9?$AAl?$AAa?$AAt?$AAn?$AA?$AA@ 000000018005c738     LIBCMT:winapinls.obj
 0002:00005750       ??_C@_1M@EGPFDCPD@?$AAb?$AAe?$AA?9?$AAb?$AAy?$AA?$AA@ 000000018005c750     LIBCMT:winapinls.obj
 0002:00005760       ??_C@_1M@PCMGMCGC@?$AAb?$AAg?$AA?9?$AAb?$AAg?$AA?$AA@ 000000018005c760     LIBCMT:winapinls.obj
 0002:00005770       ??_C@_1M@BJBMFGOB@?$AAb?$AAn?$AA?9?$AAi?$AAn?$AA?$AA@ 000000018005c770     LIBCMT:winapinls.obj
 0002:00005780       ??_C@_1BG@EAKMMACD@?$AAb?$AAs?$AA?9?$AAb?$AAa?$AA?9?$AAl?$AAa?$AAt?$AAn?$AA?$AA@ 000000018005c780     LIBCMT:winapinls.obj
 0002:00005798       ??_C@_1M@KGADAODK@?$AAc?$AAa?$AA?9?$AAe?$AAs?$AA?$AA@ 000000018005c798     LIBCMT:winapinls.obj
 0002:000057a8       ??_C@_1M@COAJPDHI@?$AAc?$AAs?$AA?9?$AAc?$AAz?$AA?$AA@ 000000018005c7a8     LIBCMT:winapinls.obj
 0002:000057b8       ??_C@_1M@DHBHFONH@?$AAc?$AAy?$AA?9?$AAg?$AAb?$AA?$AA@ 000000018005c7b8     LIBCMT:winapinls.obj
 0002:000057c8       ??_C@_1M@IMGKELGA@?$AAd?$AAa?$AA?9?$AAd?$AAk?$AA?$AA@ 000000018005c7c8     LIBCMT:winapinls.obj
 0002:000057d8       ??_C@_1M@NNDGDNGA@?$AAd?$AAe?$AA?9?$AAa?$AAt?$AA?$AA@ 000000018005c7d8     LIBCMT:winapinls.obj
 0002:000057e8       ??_C@_1M@IKDBHEEM@?$AAd?$AAe?$AA?9?$AAc?$AAh?$AA?$AA@ 000000018005c7e8     LIBCMT:winapinls.obj
 0002:000057f8       ??_C@_1M@GFFOJMCJ@?$AAd?$AAe?$AA?9?$AAd?$AAe?$AA?$AA@ 000000018005c7f8     LIBCMT:winapinls.obj
 0002:00005808       ??_C@_1M@MDNLKBPM@?$AAd?$AAe?$AA?9?$AAl?$AAi?$AA?$AA@ 000000018005c808     LIBCMT:winapinls.obj
 0002:00005818       ??_C@_1M@NJBEEJNL@?$AAd?$AAe?$AA?9?$AAl?$AAu?$AA?$AA@ 000000018005c818     LIBCMT:winapinls.obj
 0002:00005828       ??_C@_1O@GNNELBAP@?$AAd?$AAi?$AAv?$AA?9?$AAm?$AAv?$AA?$AA@ 000000018005c828     LIBCMT:winapinls.obj
 0002:00005838       ??_C@_1M@EJLEOGAE@?$AAe?$AAl?$AA?9?$AAg?$AAr?$AA?$AA@ 000000018005c838     LIBCMT:winapinls.obj
 0002:00005848       ??_C@_1M@GMPONJN@?$AAe?$AAn?$AA?9?$AAa?$AAu?$AA?$AA@ 000000018005c848     LIBCMT:winapinls.obj
 0002:00005858       ??_C@_1M@NIDIIPGF@?$AAe?$AAn?$AA?9?$AAb?$AAz?$AA?$AA@ 000000018005c858     LIBCMT:winapinls.obj
 0002:00005868       ??_C@_1M@JEHMIMFO@?$AAe?$AAn?$AA?9?$AAc?$AAa?$AA?$AA@ 000000018005c868     LIBCMT:winapinls.obj
 0002:00005878       ??_C@_1M@IGMJCDLA@?$AAe?$AAn?$AA?9?$AAc?$AAb?$AA?$AA@ 000000018005c878     LIBCMT:winapinls.obj
 0002:00005888       ??_C@_1M@BNFIGBKG@?$AAe?$AAn?$AA?9?$AAg?$AAb?$AA?$AA@ 000000018005c888     LIBCMT:winapinls.obj
 0002:00005898       ??_C@_1M@LKIFDIGP@?$AAe?$AAn?$AA?9?$AAi?$AAe?$AA?$AA@ 000000018005c898     LIBCMT:winapinls.obj
 0002:000058a8       ??_C@_1M@PJKFGCCO@?$AAe?$AAn?$AA?9?$AAj?$AAm?$AA?$AA@ 000000018005c8a8     LIBCMT:winapinls.obj
 0002:000058b8       ??_C@_1M@KPPKEPBO@?$AAe?$AAn?$AA?9?$AAn?$AAz?$AA?$AA@ 000000018005c8b8     LIBCMT:winapinls.obj
 0002:000058c8       ??_C@_1M@GMDGLDOB@?$AAe?$AAn?$AA?9?$AAp?$AAh?$AA?$AA@ 000000018005c8c8     LIBCMT:winapinls.obj
 0002:000058d8       ??_C@_1M@ONGIBJNA@?$AAe?$AAn?$AA?9?$AAt?$AAt?$AA?$AA@ 000000018005c8d8     LIBCMT:winapinls.obj
 0002:000058e8       ??_C@_1M@LLODPCMM@?$AAe?$AAn?$AA?9?$AAu?$AAs?$AA?$AA@ 000000018005c8e8     LIBCMT:winapinls.obj
 0002:000058f8       ??_C@_1M@LAKFNPAN@?$AAe?$AAn?$AA?9?$AAz?$AAa?$AA?$AA@ 000000018005c8f8     LIBCMT:winapinls.obj
 0002:00005908       ??_C@_1M@MFNHNHEO@?$AAe?$AAn?$AA?9?$AAz?$AAw?$AA?$AA@ 000000018005c908     LIBCMT:winapinls.obj
 0002:00005918       ??_C@_1M@EJEINPHM@?$AAe?$AAs?$AA?9?$AAa?$AAr?$AA?$AA@ 000000018005c918     LIBCMT:winapinls.obj
 0002:00005928       ??_C@_1M@GNKPCCJA@?$AAe?$AAs?$AA?9?$AAb?$AAo?$AA?$AA@ 000000018005c928     LIBCMT:winapinls.obj
 0002:00005938       ??_C@_1M@LEEGFONL@?$AAe?$AAs?$AA?9?$AAc?$AAl?$AA?$AA@ 000000018005c938     LIBCMT:winapinls.obj
 0002:00005948       ??_C@_1M@KGPDPBDF@?$AAe?$AAs?$AA?9?$AAc?$AAo?$AA?$AA@ 000000018005c948     LIBCMT:winapinls.obj
 0002:00005958       ??_C@_1M@EIAHOHH@?$AAe?$AAs?$AA?9?$AAc?$AAr?$AA?$AA@ 000000018005c958     LIBCMT:winapinls.obj
 0002:00005968       ??_C@_1M@LLPGMBIN@?$AAe?$AAs?$AA?9?$AAd?$AAo?$AA?$AA@ 000000018005c968     LIBCMT:winapinls.obj
 0002:00005978       ??_C@_1M@DKHMKNJA@?$AAe?$AAs?$AA?9?$AAe?$AAc?$AA?$AA@ 000000018005c978     LIBCMT:winapinls.obj
 0002:00005988       ??_C@_1M@GKGFPKAP@?$AAe?$AAs?$AA?9?$AAe?$AAs?$AA?$AA@ 000000018005c988     LIBCMT:winapinls.obj
 0002:00005998       ??_C@_1M@LKHKGDLN@?$AAe?$AAs?$AA?9?$AAg?$AAt?$AA?$AA@ 000000018005c998     LIBCMT:winapinls.obj
 0002:000059a8       ??_C@_1M@HEIIGGJD@?$AAe?$AAs?$AA?9?$AAh?$AAn?$AA?$AA@ 000000018005c9a8     LIBCMT:winapinls.obj
 0002:000059b8       ??_C@_1M@FBDHPPGD@?$AAe?$AAs?$AA?9?$AAm?$AAx?$AA?$AA@ 000000018005c9b8     LIBCMT:winapinls.obj
 0002:000059c8       ??_C@_1M@DPAGLNDH@?$AAe?$AAs?$AA?9?$AAn?$AAi?$AA?$AA@ 000000018005c9c8     LIBCMT:winapinls.obj
 0002:000059d8       ??_C@_1M@MDGOPGDD@?$AAe?$AAs?$AA?9?$AAp?$AAa?$AA?$AA@ 000000018005c9d8     LIBCMT:winapinls.obj
 0002:000059e8       ??_C@_1M@EMAMGBGE@?$AAe?$AAs?$AA?9?$AAp?$AAe?$AA?$AA@ 000000018005c9e8     LIBCMT:winapinls.obj
 0002:000059f8       ??_C@_1M@IBMCAOEC@?$AAe?$AAs?$AA?9?$AAp?$AAr?$AA?$AA@ 000000018005c9f8     LIBCMT:winapinls.obj
 0002:00005a08       ??_C@_1M@FGMDIJED@?$AAe?$AAs?$AA?9?$AAp?$AAy?$AA?$AA@ 000000018005ca08     LIBCMT:winapinls.obj
 0002:00005a18       ??_C@_1M@IIDEOLLL@?$AAe?$AAs?$AA?9?$AAs?$AAv?$AA?$AA@ 000000018005ca18     LIBCMT:winapinls.obj
 0002:00005a28       ??_C@_1M@GAOBIPA@?$AAe?$AAs?$AA?9?$AAu?$AAy?$AA?$AA@ 000000018005ca28     LIBCMT:winapinls.obj
 0002:00005a38       ??_C@_1M@JKFFICHJ@?$AAe?$AAs?$AA?9?$AAv?$AAe?$AA?$AA@ 000000018005ca38     LIBCMT:winapinls.obj
 0002:00005a48       ??_C@_1M@PNMLOJDF@?$AAe?$AAt?$AA?9?$AAe?$AAe?$AA?$AA@ 000000018005ca48     LIBCMT:winapinls.obj
 0002:00005a58       ??_C@_1M@GHHLIKEI@?$AAe?$AAu?$AA?9?$AAe?$AAs?$AA?$AA@ 000000018005ca58     LIBCMT:winapinls.obj
 0002:00005a68       ??_C@_1M@PBNONODE@?$AAf?$AAa?$AA?9?$AAi?$AAr?$AA?$AA@ 000000018005ca68     LIBCMT:winapinls.obj
 0002:00005a78       ??_C@_1M@JEEHPMIL@?$AAf?$AAi?$AA?9?$AAf?$AAi?$AA?$AA@ 000000018005ca78     LIBCMT:winapinls.obj
 0002:00005a88       ??_C@_1M@LMDCNDBA@?$AAf?$AAo?$AA?9?$AAf?$AAo?$AA?$AA@ 000000018005ca88     LIBCMT:winapinls.obj
 0002:00005a98       ??_C@_1M@JKEOHLDK@?$AAf?$AAr?$AA?9?$AAb?$AAe?$AA?$AA@ 000000018005ca98     LIBCMT:winapinls.obj
 0002:00005aa8       ??_C@_1M@NOHADPMI@?$AAf?$AAr?$AA?9?$AAc?$AAa?$AA?$AA@ 000000018005caa8     LIBCMT:winapinls.obj
 0002:00005ab8       ??_C@_1M@KDHIHAEC@?$AAf?$AAr?$AA?9?$AAc?$AAh?$AA?$AA@ 000000018005cab8     LIBCMT:winapinls.obj
 0002:00005ac8       ??_C@_1M@MMBBFGAK@?$AAf?$AAr?$AA?9?$AAf?$AAr?$AA?$AA@ 000000018005cac8     LIBCMT:winapinls.obj
 0002:00005ad8       ??_C@_1M@PAFNENNF@?$AAf?$AAr?$AA?9?$AAl?$AAu?$AA?$AA@ 000000018005cad8     LIBCMT:winapinls.obj
 0002:00005ae8       ??_C@_1M@EOHDJGDD@?$AAf?$AAr?$AA?9?$AAm?$AAc?$AA?$AA@ 000000018005cae8     LIBCMT:winapinls.obj
 0002:00005af8       ??_C@_1M@FAPLLOPF@?$AAg?$AAl?$AA?9?$AAe?$AAs?$AA?$AA@ 000000018005caf8     LIBCMT:winapinls.obj
 0002:00005b08       ??_C@_1M@FOPBFLOO@?$AAg?$AAu?$AA?9?$AAi?$AAn?$AA?$AA@ 000000018005cb08     LIBCMT:winapinls.obj
 0002:00005b18       ??_C@_1M@KBMCINPM@?$AAh?$AAe?$AA?9?$AAi?$AAl?$AA?$AA@ 000000018005cb18     LIBCMT:winapinls.obj
 0002:00005b28       ??_C@_1M@BBPHKFPJ@?$AAh?$AAi?$AA?9?$AAi?$AAn?$AA?$AA@ 000000018005cb28     LIBCMT:winapinls.obj
 0002:00005b38       ??_C@_1M@PMBNDPHD@?$AAh?$AAr?$AA?9?$AAb?$AAa?$AA?$AA@ 000000018005cb38     LIBCMT:winapinls.obj
 0002:00005b48       ??_C@_1M@BPCKOEGE@?$AAh?$AAr?$AA?9?$AAh?$AAr?$AA?$AA@ 000000018005cb48     LIBCMT:winapinls.obj
 0002:00005b58       ??_C@_1M@GACBMHKE@?$AAh?$AAu?$AA?9?$AAh?$AAu?$AA?$AA@ 000000018005cb58     LIBCMT:winapinls.obj
 0002:00005b68       ??_C@_1M@MILPAJJC@?$AAh?$AAy?$AA?9?$AAa?$AAm?$AA?$AA@ 000000018005cb68     LIBCMT:winapinls.obj
 0002:00005b78       ??_C@_1M@BABBICEC@?$AAi?$AAd?$AA?9?$AAi?$AAd?$AA?$AA@ 000000018005cb78     LIBCMT:winapinls.obj
 0002:00005b88       ??_C@_1M@BIKNHHPF@?$AAi?$AAs?$AA?9?$AAi?$AAs?$AA?$AA@ 000000018005cb88     LIBCMT:winapinls.obj
 0002:00005b98       ??_C@_1M@NMPCJPHE@?$AAi?$AAt?$AA?9?$AAc?$AAh?$AA?$AA@ 000000018005cb98     LIBCMT:winapinls.obj
 0002:00005ba8       ??_C@_1M@GHKGFEDF@?$AAi?$AAt?$AA?9?$AAi?$AAt?$AA?$AA@ 000000018005cba8     LIBCMT:winapinls.obj
 0002:00005bb8       ??_C@_1M@NIEJCJJA@?$AAj?$AAa?$AA?9?$AAj?$AAp?$AA?$AA@ 000000018005cbb8     LIBCMT:winapinls.obj
 0002:00005bc8       ??_C@_1M@JILFNBIM@?$AAk?$AAa?$AA?9?$AAg?$AAe?$AA?$AA@ 000000018005cbc8     LIBCMT:winapinls.obj
 0002:00005bd8       ??_C@_1M@PACPMGPH@?$AAk?$AAk?$AA?9?$AAk?$AAz?$AA?$AA@ 000000018005cbd8     LIBCMT:winapinls.obj
 0002:00005be8       ??_C@_1M@IELFGMHA@?$AAk?$AAn?$AA?9?$AAi?$AAn?$AA?$AA@ 000000018005cbe8     LIBCMT:winapinls.obj
 0002:00005bf8       ??_C@_1O@IBBJHCH@?$AAk?$AAo?$AAk?$AA?9?$AAi?$AAn?$AA?$AA@ 000000018005cbf8     LIBCMT:winapinls.obj
 0002:00005c08       ??_C@_1M@DMHAEOGC@?$AAk?$AAo?$AA?9?$AAk?$AAr?$AA?$AA@ 000000018005cc08     LIBCMT:winapinls.obj
 0002:00005c18       ??_C@_1M@HBAHBIGA@?$AAk?$AAy?$AA?9?$AAk?$AAg?$AA?$AA@ 000000018005cc18     LIBCMT:winapinls.obj
 0002:00005c28       ??_C@_1M@KPMILCJG@?$AAl?$AAt?$AA?9?$AAl?$AAt?$AA?$AA@ 000000018005cc28     LIBCMT:winapinls.obj
 0002:00005c38       ??_C@_1M@BDEKKCA@?$AAl?$AAv?$AA?9?$AAl?$AAv?$AA?$AA@ 000000018005cc38     LIBCMT:winapinls.obj
 0002:00005c48       ??_C@_1M@ELCKCCJJ@?$AAm?$AAi?$AA?9?$AAn?$AAz?$AA?$AA@ 000000018005cc48     LIBCMT:winapinls.obj
 0002:00005c58       ??_C@_1M@CBOOLAPA@?$AAm?$AAk?$AA?9?$AAm?$AAk?$AA?$AA@ 000000018005cc58     LIBCMT:winapinls.obj
 0002:00005c68       ??_C@_1M@GPHNBJKN@?$AAm?$AAl?$AA?9?$AAi?$AAn?$AA?$AA@ 000000018005cc68     LIBCMT:winapinls.obj
 0002:00005c78       ??_C@_1M@PABJILIG@?$AAm?$AAn?$AA?9?$AAm?$AAn?$AA?$AA@ 000000018005cc78     LIBCMT:winapinls.obj
 0002:00005c88       ??_C@_1M@FGBKKIPG@?$AAm?$AAr?$AA?9?$AAi?$AAn?$AA?$AA@ 000000018005cc88     LIBCMT:winapinls.obj
 0002:00005c98       ??_C@_1M@NDBPDDAL@?$AAm?$AAs?$AA?9?$AAb?$AAn?$AA?$AA@ 000000018005cc98     LIBCMT:winapinls.obj
 0002:00005ca8       ??_C@_1M@OPIHOOPI@?$AAm?$AAs?$AA?9?$AAm?$AAy?$AA?$AA@ 000000018005cca8     LIBCMT:winapinls.obj
 0002:00005cb8       ??_C@_1M@PPDBCNFM@?$AAm?$AAt?$AA?9?$AAm?$AAt?$AA?$AA@ 000000018005ccb8     LIBCMT:winapinls.obj
 0002:00005cc8       ??_C@_1M@KDJDKMDD@?$AAn?$AAb?$AA?9?$AAn?$AAo?$AA?$AA@ 000000018005ccc8     LIBCMT:winapinls.obj
 0002:00005cd8       ??_C@_1M@KFCFLMJP@?$AAn?$AAl?$AA?9?$AAb?$AAe?$AA?$AA@ 000000018005ccd8     LIBCMT:winapinls.obj
 0002:00005ce8       ??_C@_1M@KPOPDDGO@?$AAn?$AAl?$AA?9?$AAn?$AAl?$AA?$AA@ 000000018005cce8     LIBCMT:winapinls.obj
 0002:00005cf8       ??_C@_1M@LJKPEMLN@?$AAn?$AAn?$AA?9?$AAn?$AAo?$AA?$AA@ 000000018005ccf8     LIBCMT:winapinls.obj
 0002:00005d08       ??_C@_1M@BDGHHBFL@?$AAn?$AAs?$AA?9?$AAz?$AAa?$AA?$AA@ 000000018005cd08     LIBCMT:winapinls.obj
 0002:00005d18       ??_C@_1M@IDEHOAP@?$AAp?$AAa?$AA?9?$AAi?$AAn?$AA?$AA@ 000000018005cd18     LIBCMT:winapinls.obj
 0002:00005d28       ??_C@_1M@HDBKGOGH@?$AAp?$AAl?$AA?9?$AAp?$AAl?$AA?$AA@ 000000018005cd28     LIBCMT:winapinls.obj
 0002:00005d38       ??_C@_1M@LJLLCMEH@?$AAp?$AAt?$AA?9?$AAb?$AAr?$AA?$AA@ 000000018005cd38     LIBCMT:winapinls.obj
 0002:00005d48       ??_C@_1M@NCMONAAL@?$AAp?$AAt?$AA?9?$AAp?$AAt?$AA?$AA@ 000000018005cd48     LIBCMT:winapinls.obj
 0002:00005d58       ??_C@_1O@EAKMAJDN@?$AAq?$AAu?$AAz?$AA?9?$AAb?$AAo?$AA?$AA@ 000000018005cd58     LIBCMT:winapinls.obj
 0002:00005d68       ??_C@_1O@BHHPIGDN@?$AAq?$AAu?$AAz?$AA?9?$AAe?$AAc?$AA?$AA@ 000000018005cd68     LIBCMT:winapinls.obj
 0002:00005d78       ??_C@_1O@GBAPEKMJ@?$AAq?$AAu?$AAz?$AA?9?$AAp?$AAe?$AA?$AA@ 000000018005cd78     LIBCMT:winapinls.obj
 0002:00005d88       ??_C@_1M@CLGLEFBO@?$AAr?$AAo?$AA?9?$AAr?$AAo?$AA?$AA@ 000000018005cd88     LIBCMT:winapinls.obj
 0002:00005d98       ??_C@_1M@CEEDODME@?$AAr?$AAu?$AA?9?$AAr?$AAu?$AA?$AA@ 000000018005cd98     LIBCMT:winapinls.obj
 0002:00005da8       ??_C@_1M@HPKKKMPP@?$AAs?$AAa?$AA?9?$AAi?$AAn?$AA?$AA@ 000000018005cda8     LIBCMT:winapinls.obj
 0002:00005db8       ??_C@_1M@BKMAIGOJ@?$AAs?$AAe?$AA?9?$AAf?$AAi?$AA?$AA@ 000000018005cdb8     LIBCMT:winapinls.obj
 0002:00005dc8       ??_C@_1M@NDPIFLFI@?$AAs?$AAe?$AA?9?$AAn?$AAo?$AA?$AA@ 000000018005cdc8     LIBCMT:winapinls.obj
 0002:00005dd8       ??_C@_1M@DANKKHJ@?$AAs?$AAe?$AA?9?$AAs?$AAe?$AA?$AA@ 000000018005cdd8     LIBCMT:winapinls.obj
 0002:00005de8       ??_C@_1M@PNBLONPJ@?$AAs?$AAk?$AA?9?$AAs?$AAk?$AA?$AA@ 000000018005cde8     LIBCMT:winapinls.obj
 0002:00005df8       ??_C@_1M@LFMODOAL@?$AAs?$AAl?$AA?9?$AAs?$AAi?$AA?$AA@ 000000018005cdf8     LIBCMT:winapinls.obj
 0002:00005e08       ??_C@_1O@DFKOMPG@?$AAs?$AAm?$AAa?$AA?9?$AAn?$AAo?$AA?$AA@ 000000018005ce08     LIBCMT:winapinls.obj
 0002:00005e18       ??_C@_1O@NDKPBNNH@?$AAs?$AAm?$AAa?$AA?9?$AAs?$AAe?$AA?$AA@ 000000018005ce18     LIBCMT:winapinls.obj
 0002:00005e28       ??_C@_1O@PLLKBHAB@?$AAs?$AAm?$AAj?$AA?9?$AAn?$AAo?$AA?$AA@ 000000018005ce28     LIBCMT:winapinls.obj
 0002:00005e38       ??_C@_1O@CLEPOGCA@?$AAs?$AAm?$AAj?$AA?9?$AAs?$AAe?$AA?$AA@ 000000018005ce38     LIBCMT:winapinls.obj
 0002:00005e48       ??_C@_1O@DLGJGKMK@?$AAs?$AAm?$AAn?$AA?9?$AAf?$AAi?$AA?$AA@ 000000018005ce48     LIBCMT:winapinls.obj
 0002:00005e58       ??_C@_1O@OJDJGAJC@?$AAs?$AAm?$AAs?$AA?9?$AAf?$AAi?$AA?$AA@ 000000018005ce58     LIBCMT:winapinls.obj
 0002:00005e68       ??_C@_1M@BOFOGHPB@?$AAs?$AAq?$AA?9?$AAa?$AAl?$AA?$AA@ 000000018005ce68     LIBCMT:winapinls.obj
 0002:00005e78       ??_C@_1BG@LJBBIPGB@?$AAs?$AAr?$AA?9?$AAb?$AAa?$AA?9?$AAc?$AAy?$AAr?$AAl?$AA?$AA@ 000000018005ce78     LIBCMT:winapinls.obj
 0002:00005e90       ??_C@_1BG@JLBENFOE@?$AAs?$AAr?$AA?9?$AAb?$AAa?$AA?9?$AAl?$AAa?$AAt?$AAn?$AA?$AA@ 000000018005ce90     LIBCMT:winapinls.obj
 0002:00005ea8       ??_C@_1BG@KODPNHE@?$AAs?$AAr?$AA?9?$AAs?$AAp?$AA?9?$AAc?$AAy?$AAr?$AAl?$AA?$AA@ 000000018005cea8     LIBCMT:winapinls.obj
 0002:00005ec0       ??_C@_1BG@CIOGKHPB@?$AAs?$AAr?$AA?9?$AAs?$AAp?$AA?9?$AAl?$AAa?$AAt?$AAn?$AA?$AA@ 000000018005cec0     LIBCMT:winapinls.obj
 0002:00005ed8       ??_C@_1M@NGFJLMAC@?$AAs?$AAv?$AA?9?$AAf?$AAi?$AA?$AA@ 000000018005ced8     LIBCMT:winapinls.obj
 0002:00005ee8       ??_C@_1M@MPJEJAJC@?$AAs?$AAv?$AA?9?$AAs?$AAe?$AA?$AA@ 000000018005cee8     LIBCMT:winapinls.obj
 0002:00005ef8       ??_C@_1M@MPNDHLFK@?$AAs?$AAw?$AA?9?$AAk?$AAe?$AA?$AA@ 000000018005cef8     LIBCMT:winapinls.obj
 0002:00005f08       ??_C@_1O@KOHBJJI@?$AAs?$AAy?$AAr?$AA?9?$AAs?$AAy?$AA?$AA@ 000000018005cf08     LIBCMT:winapinls.obj
 0002:00005f18       ??_C@_1M@LDCEFHA@?$AAt?$AAa?$AA?9?$AAi?$AAn?$AA?$AA@ 000000018005cf18     LIBCMT:winapinls.obj
 0002:00005f28       ??_C@_1M@CNJOFAK@?$AAt?$AAe?$AA?9?$AAi?$AAn?$AA?$AA@ 000000018005cf28     LIBCMT:winapinls.obj
 0002:00005f38       ??_C@_1M@GNAECACD@?$AAt?$AAh?$AA?9?$AAt?$AAh?$AA?$AA@ 000000018005cf38     LIBCMT:winapinls.obj
 0002:00005f48       ??_C@_1M@CHBIHOJO@?$AAt?$AAn?$AA?9?$AAz?$AAa?$AA?$AA@ 000000018005cf48     LIBCMT:winapinls.obj
 0002:00005f58       ??_C@_1M@GCCMIGPJ@?$AAt?$AAr?$AA?9?$AAt?$AAr?$AA?$AA@ 000000018005cf58     LIBCMT:winapinls.obj
 0002:00005f68       ??_C@_1M@CELMCNBK@?$AAt?$AAt?$AA?9?$AAr?$AAu?$AA?$AA@ 000000018005cf68     LIBCMT:winapinls.obj
 0002:00005f78       ??_C@_1M@KLMCELGA@?$AAu?$AAk?$AA?9?$AAu?$AAa?$AA?$AA@ 000000018005cf78     LIBCMT:winapinls.obj
 0002:00005f88       ??_C@_1M@EPAJJAJF@?$AAu?$AAr?$AA?9?$AAp?$AAk?$AA?$AA@ 000000018005cf88     LIBCMT:winapinls.obj
 0002:00005f98       ??_C@_1BG@GEGPMCDJ@?$AAu?$AAz?$AA?9?$AAu?$AAz?$AA?9?$AAc?$AAy?$AAr?$AAl?$AA?$AA@ 000000018005cf98     LIBCMT:winapinls.obj
 0002:00005fb0       ??_C@_1BG@EGGKJILM@?$AAu?$AAz?$AA?9?$AAu?$AAz?$AA?9?$AAl?$AAa?$AAt?$AAn?$AA?$AA@ 000000018005cfb0     LIBCMT:winapinls.obj
 0002:00005fc8       ??_C@_1M@GFOCLFF@?$AAv?$AAi?$AA?9?$AAv?$AAn?$AA?$AA@ 000000018005cfc8     LIBCMT:winapinls.obj
 0002:00005fd8       ??_C@_1M@CPAMEDFI@?$AAx?$AAh?$AA?9?$AAz?$AAa?$AA?$AA@ 000000018005cfd8     LIBCMT:winapinls.obj
 0002:00005fe8       ??_C@_1O@EBKIFIGN@?$AAz?$AAh?$AA?9?$AAc?$AAh?$AAs?$AA?$AA@ 000000018005cfe8     LIBCMT:winapinls.obj
 0002:00005ff8       ??_C@_1O@NMHPGANE@?$AAz?$AAh?$AA?9?$AAc?$AAh?$AAt?$AA?$AA@ 000000018005cff8     LIBCMT:winapinls.obj
 0002:00006008       ??_C@_1M@LPINJOMC@?$AAz?$AAh?$AA?9?$AAc?$AAn?$AA?$AA@ 000000018005d008     LIBCMT:winapinls.obj
 0002:00006018       ??_C@_1M@OCJEJODD@?$AAz?$AAh?$AA?9?$AAh?$AAk?$AA?$AA@ 000000018005d018     LIBCMT:winapinls.obj
 0002:00006028       ??_C@_1M@DNDLJINH@?$AAz?$AAh?$AA?9?$AAm?$AAo?$AA?$AA@ 000000018005d028     LIBCMT:winapinls.obj
 0002:00006038       ??_C@_1M@MBFDNDND@?$AAz?$AAh?$AA?9?$AAs?$AAg?$AA?$AA@ 000000018005d038     LIBCMT:winapinls.obj
 0002:00006048       ??_C@_1M@IMEPLEPE@?$AAz?$AAh?$AA?9?$AAt?$AAw?$AA?$AA@ 000000018005d048     LIBCMT:winapinls.obj
 0002:00006058       ??_C@_1M@BBGHNHJP@?$AAz?$AAu?$AA?9?$AAz?$AAa?$AA?$AA@ 000000018005d058     LIBCMT:winapinls.obj
 0002:00006080       ??_C@_03KHJOGHMM@exp?$AA@  000000018005d080     LIBCMT:fpexcept.obj
 0002:00006084       ??_C@_03JGHBODFD@pow?$AA@  000000018005d084     LIBCMT:fpexcept.obj
 0002:00006088       ??_C@_03MGHMBJCF@log?$AA@  000000018005d088     LIBCMT:fpexcept.obj
 0002:0000608c       ??_C@_05HGHHAHAP@log10?$AA@ 000000018005d08c     LIBCMT:fpexcept.obj
 0002:00006094       ??_C@_04COOMCNPB@sinh?$AA@ 000000018005d094     LIBCMT:fpexcept.obj
 0002:0000609c       ??_C@_04HPJJNFIM@cosh?$AA@ 000000018005d09c     LIBCMT:fpexcept.obj
 0002:000060a4       ??_C@_04FJHINJAO@tanh?$AA@ 000000018005d0a4     LIBCMT:fpexcept.obj
 0002:000060ac       ??_C@_04FIHNOPOL@asin?$AA@ 000000018005d0ac     LIBCMT:fpexcept.obj
 0002:000060b4       ??_C@_04PDIFKINK@acos?$AA@ 000000018005d0b4     LIBCMT:fpexcept.obj
 0002:000060bc       ??_C@_04MLLJIGOK@atan?$AA@ 000000018005d0bc     LIBCMT:fpexcept.obj
 0002:000060c4       ??_C@_05KNGEOGJB@atan2?$AA@ 000000018005d0c4     LIBCMT:fpexcept.obj
 0002:000060cc       ??_C@_04EIAKFFMI@sqrt?$AA@ 000000018005d0cc     LIBCMT:fpexcept.obj
 0002:000060d4       ??_C@_03BLEJJJBH@sin?$AA@  000000018005d0d4     LIBCMT:fpexcept.obj
 0002:000060d8       ??_C@_03LALBNOCG@cos?$AA@  000000018005d0d8     LIBCMT:fpexcept.obj
 0002:000060dc       ??_C@_03IIINPABG@tan?$AA@  000000018005d0dc     LIBCMT:fpexcept.obj
 0002:000060e0       ??_C@_04GFPJNGEK@ceil?$AA@ 000000018005d0e0     LIBCMT:fpexcept.obj
 0002:000060e8       ??_C@_05PBJFFIGL@floor?$AA@ 000000018005d0e8     LIBCMT:fpexcept.obj
 0002:000060f0       ??_C@_04ODHECPBC@fabs?$AA@ 000000018005d0f0     LIBCMT:fpexcept.obj
 0002:000060f8       ??_C@_04EHEDPDJG@modf?$AA@ 000000018005d0f8     LIBCMT:fpexcept.obj
 0002:00006100       ??_C@_05CEJMAHNP@ldexp?$AA@ 000000018005d100     LIBCMT:fpexcept.obj
 0002:00006108       ??_C@_05KBKMEMPO@_cabs?$AA@ 000000018005d108     LIBCMT:fpexcept.obj
 0002:00006110       ??_C@_04KEPJIHGP@fmod?$AA@ 000000018005d110     LIBCMT:fpexcept.obj
 0002:00006118       ??_C@_05GKKHEGJL@frexp?$AA@ 000000018005d118     LIBCMT:fpexcept.obj
 0002:00006120       ??_C@_03MJLDFKDL@_y0?$AA@  000000018005d120     LIBCMT:fpexcept.obj
 0002:00006124       ??_C@_03NAKIGLHK@_y1?$AA@  000000018005d124     LIBCMT:fpexcept.obj
 0002:00006128       ??_C@_03ONILCKOB@_yn?$AA@  000000018005d128     LIBCMT:fpexcept.obj
 0002:0000612c       ??_C@_05JGDBENOH@_logb?$AA@ 000000018005d12c     LIBCMT:fpexcept.obj
 0002:00006138       ??_C@_0L@KDOEJCKC@_nextafter?$AA@ 000000018005d138     LIBCMT:fpexcept.obj
 0002:00006150       __newctype                 000000018005d150     LIBCMT:ctype.obj
 0002:00006450       _wctype                    000000018005d450     LIBCMT:ctype.obj
 0002:00006660       __newclmap                 000000018005d660     LIBCMT:ctype.obj
 0002:000067e0       __newcumap                 000000018005d7e0     LIBCMT:ctype.obj
 0002:00006960       __rg_language_count        000000018005d960     LIBCMT:getqloc.obj
 0002:00006964       __rg_country_count         000000018005d964     LIBCMT:getqloc.obj
 0002:00006c88       ??_C@_08EHJDFFNH@__based?$CI?$AA@ 000000018005dc88     LIBCMT:undname.obj
 0002:00006c98       ??_C@_07KOLFKCDI@__cdecl?$AA@ 000000018005dc98     LIBCMT:undname.obj
 0002:00006ca0       ??_C@_08GHMPAG@__pascal?$AA@ 000000018005dca0     LIBCMT:undname.obj
 0002:00006cb0       ??_C@_09IFJBGAPI@__stdcall?$AA@ 000000018005dcb0     LIBCMT:undname.obj
 0002:00006cc0       ??_C@_0L@NPHFGOKO@__thiscall?$AA@ 000000018005dcc0     LIBCMT:undname.obj
 0002:00006cd0       ??_C@_0L@JMKHOMEK@__fastcall?$AA@ 000000018005dcd0     LIBCMT:undname.obj
 0002:00006ce0       ??_C@_0N@BCKKPABJ@__vectorcall?$AA@ 000000018005dce0     LIBCMT:undname.obj
 0002:00006cf0       ??_C@_09HIJEGCPM@__clrcall?$AA@ 000000018005dcf0     LIBCMT:undname.obj
 0002:00006cfc       ??_C@_06GHPCKEAG@__eabi?$AA@ 000000018005dcfc     LIBCMT:undname.obj
 0002:00006d08       ??_C@_07JOMMBBKO@__ptr64?$AA@ 000000018005dd08     LIBCMT:undname.obj
 0002:00006d10       ??_C@_0L@PILCLIHE@__restrict?$AA@ 000000018005dd10     LIBCMT:undname.obj
 0002:00006d20       ??_C@_0M@GFIIJFMG@__unaligned?$AA@ 000000018005dd20     LIBCMT:undname.obj
 0002:00006d30       ??_C@_09DHDLOLLB@restrict?$CI?$AA@ 000000018005dd30     LIBCMT:undname.obj
 0002:00006d3a       ??_C@_00CNPNBAHC@?$AA@     000000018005dd3a     LIBCMT:undname.obj
 0002:00006d3c       ??_C@_04NIHEBCM@?5new?$AA@ 000000018005dd3c     LIBCMT:undname.obj
 0002:00006d48       ??_C@_07FPCDHGMM@?5delete?$AA@ 000000018005dd48     LIBCMT:undname.obj
 0002:00006d50       ??_C@_01NEMOKFLO@?$DN?$AA@ 000000018005dd50     LIBCMT:undname.obj
 0002:00006d54       ??_C@_02GPIOPFAK@?$DO?$DO?$AA@ 000000018005dd54     LIBCMT:undname.obj
 0002:00006d58       ??_C@_02FODMEDOG@?$DM?$DM?$AA@ 000000018005dd58     LIBCMT:undname.obj
 0002:00006d5c       ??_C@_01DCLJPIOD@?$CB?$AA@ 000000018005dd5c     LIBCMT:undname.obj
 0002:00006d60       ??_C@_02EGOFBIJA@?$DN?$DN?$AA@ 000000018005dd60     LIBCMT:undname.obj
 0002:00006d64       ??_C@_02FDNJECIE@?$CB?$DN?$AA@ 000000018005dd64     LIBCMT:undname.obj
 0002:00006d68       ??_C@_02GPECMEKF@?$FL?$FN?$AA@ 000000018005dd68     LIBCMT:undname.obj
 0002:00006d70       ??_C@_08LHJFAFGD@operator?$AA@ 000000018005dd70     LIBCMT:undname.obj
 0002:00006d7c       ??_C@_02HBOOOICD@?9?$DO?$AA@ 000000018005dd7c     LIBCMT:undname.obj
 0002:00006d80       ??_C@_01NBENCBCI@?$CK?$AA@ 000000018005dd80     LIBCMT:undname.obj
 0002:00006d84       ??_C@_02ECNGHCIF@?$CL?$CL?$AA@ 000000018005dd84     LIBCMT:undname.obj
 0002:00006d88       ??_C@_02BAABKJLB@?9?9?$AA@ 000000018005dd88     LIBCMT:undname.obj
 0002:00006d8c       ??_C@_01JOAMLHOP@?9?$AA@   000000018005dd8c     LIBCMT:undname.obj
 0002:00006d90       ??_C@_01MIFGBAGJ@?$CL?$AA@ 000000018005dd90     LIBCMT:undname.obj
 0002:00006d94       ??_C@_01HNPIGOCE@?$CG?$AA@ 000000018005dd94     LIBCMT:undname.obj
 0002:00006d98       ??_C@_03MNHNFDLC@?9?$DO?$CK?$AA@ 000000018005dd98     LIBCMT:undname.obj
 0002:00006d9c       ??_C@_01KMDKNFGN@?1?$AA@   000000018005dd9c     LIBCMT:undname.obj
 0002:00006da0       ??_C@_01FGNFDNOH@?$CF?$AA@ 000000018005dda0     LIBCMT:undname.obj
 0002:00006da4       ??_C@_01MNNFJEPP@?$DM?$AA@ 000000018005dda4     LIBCMT:undname.obj
 0002:00006da8       ??_C@_02EHCHHCKH@?$DM?$DN?$AA@ 000000018005dda8     LIBCMT:undname.obj
 0002:00006dac       ??_C@_01PPODPGHN@?$DO?$AA@ 000000018005ddac     LIBCMT:undname.obj
 0002:00006db0       ??_C@_02EEKDKGMJ@?$DO?$DN?$AA@ 000000018005ddb0     LIBCMT:undname.obj
 0002:00006db4       ??_C@_01IHBHIGKO@?0?$AA@   000000018005ddb4     LIBCMT:undname.obj
 0002:00006db8       ??_C@_02HCKGKOFO@?$CI?$CJ?$AA@ 000000018005ddb8     LIBCMT:undname.obj
 0002:00006dbc       ??_C@_01PJKLJHI@?$HO?$AA@  000000018005ddbc     LIBCMT:undname.obj
 0002:00006dc0       ??_C@_01JKBOJNNK@?$FO?$AA@ 000000018005ddc0     LIBCMT:undname.obj
 0002:00006dc4       ??_C@_01DNKMNLPK@?$HM?$AA@ 000000018005ddc4     LIBCMT:undname.obj
 0002:00006dc8       ??_C@_02PPKAJPJL@?$CG?$CG?$AA@ 000000018005ddc8     LIBCMT:undname.obj
 0002:00006dcc       ??_C@_02NONPIBCD@?$HM?$HM?$AA@ 000000018005ddcc     LIBCMT:undname.obj
 0002:00006dd0       ??_C@_02FPIMKNGF@?$CK?$DN?$AA@ 000000018005ddd0     LIBCMT:undname.obj
 0002:00006dd4       ??_C@_02FOEOMHFC@?$CL?$DN?$AA@ 000000018005ddd4     LIBCMT:undname.obj
 0002:00006dd8       ??_C@_02FKMDLLOA@?9?$DN?$AA@ 000000018005ddd8     LIBCMT:undname.obj
 0002:00006ddc       ??_C@_02FJEHGPIO@?1?$DN?$AA@ 000000018005dddc     LIBCMT:undname.obj
 0002:00006de0       ??_C@_02FENAOKFI@?$CF?$DN?$AA@ 000000018005dde0     LIBCMT:undname.obj
 0002:00006de4       ??_C@_03IKFCCPFF@?$DO?$DO?$DN?$AA@ 000000018005dde4     LIBCMT:undname.obj
 0002:00006de8       ??_C@_03CDNPDDLA@?$DM?$DM?$DN?$AA@ 000000018005dde8     LIBCMT:undname.obj
 0002:00006dec       ??_C@_02FGJGFEAB@?$CG?$DN?$AA@ 000000018005ddec     LIBCMT:undname.obj
 0002:00006df0       ??_C@_02DHLNPPGH@?$HM?$DN?$AA@ 000000018005ddf0     LIBCMT:undname.obj
 0002:00006df4       ??_C@_02MHEGNOJ@?$FO?$DN?$AA@ 000000018005ddf4     LIBCMT:undname.obj
 0002:00006df8       ??_C@_09IFPLHPGF@?$GAvftable?8?$AA@ 000000018005ddf8     LIBCMT:undname.obj
 0002:00006e08       ??_C@_09BLBHBJP@?$GAvbtable?8?$AA@ 000000018005de08     LIBCMT:undname.obj
 0002:00006e18       ??_C@_07FEEIOKP@?$GAvcall?8?$AA@ 000000018005de18     LIBCMT:undname.obj
 0002:00006e20       ??_C@_08LLFFHHDJ@?$GAtypeof?8?$AA@ 000000018005de20     LIBCMT:undname.obj
 0002:00006e30       ??_C@_0BF@KDPPACIK@?$GAlocal?5static?5guard?8?$AA@ 000000018005de30     LIBCMT:undname.obj
 0002:00006e48       ??_C@_08OBABFOLI@?$GAstring?8?$AA@ 000000018005de48     LIBCMT:undname.obj
 0002:00006e58       ??_C@_0BD@JDLKDPAB@?$GAvbase?5destructor?8?$AA@ 000000018005de58     LIBCMT:undname.obj
 0002:00006e70       ??_C@_0BN@DEGPLNFK@?$GAvector?5deleting?5destructor?8?$AA@ 000000018005de70     LIBCMT:undname.obj
 0002:00006e90       ??_C@_0BO@OBMKPJIG@?$GAdefault?5constructor?5closure?8?$AA@ 000000018005de90     LIBCMT:undname.obj
 0002:00006eb0       ??_C@_0BN@IMDCHIKM@?$GAscalar?5deleting?5destructor?8?$AA@ 000000018005deb0     LIBCMT:undname.obj
 0002:00006ed0       ??_C@_0BO@PFGOCPJJ@?$GAvector?5constructor?5iterator?8?$AA@ 000000018005ded0     LIBCMT:undname.obj
 0002:00006ef0       ??_C@_0BN@LFPFMEDL@?$GAvector?5destructor?5iterator?8?$AA@ 000000018005def0     LIBCMT:undname.obj
 0002:00006f10       ??_C@_0CE@IKBNEHA@?$GAvector?5vbase?5constructor?5iterat@ 000000018005df10     LIBCMT:undname.obj
 0002:00006f38       ??_C@_0BL@NILFHHPC@?$GAvirtual?5displacement?5map?8?$AA@ 000000018005df38     LIBCMT:undname.obj
 0002:00006f58       ??_C@_0CB@JONCMFFK@?$GAeh?5vector?5constructor?5iterator?8@ 000000018005df58     LIBCMT:undname.obj
 0002:00006f80       ??_C@_0CA@GCEOPDGL@?$GAeh?5vector?5destructor?5iterator?8?$AA@ 000000018005df80     LIBCMT:undname.obj
 0002:00006fa0       ??_C@_0CH@OOJPLCPH@?$GAeh?5vector?5vbase?5constructor?5ite@ 000000018005dfa0     LIBCMT:undname.obj
 0002:00006fc8       ??_C@_0BL@LLKPOHJI@?$GAcopy?5constructor?5closure?8?$AA@ 000000018005dfc8     LIBCMT:undname.obj
 0002:00006fe8       ??_C@_0BA@KBCDOMBN@?$GAudt?5returning?8?$AA@ 000000018005dfe8     LIBCMT:undname.obj
 0002:00006ff8       ??_C@_03KLGMFNMG@?$GAEH?$AA@ 000000018005dff8     LIBCMT:undname.obj
 0002:00006ffc       ??_C@_05KHLCHHI@?$GARTTI?$AA@ 000000018005dffc     LIBCMT:undname.obj
 0002:00007008       ??_C@_0BA@KKLDJDLB@?$GAlocal?5vftable?8?$AA@ 000000018005e008     LIBCMT:undname.obj
 0002:00007018       ??_C@_0CE@IIHCMGGL@?$GAlocal?5vftable?5constructor?5closu@ 000000018005e018     LIBCMT:undname.obj
 0002:0000703c       ??_C@_06FHBGPFGH@?5new?$FL?$FN?$AA@ 000000018005e03c     LIBCMT:undname.obj
 0002:00007048       ??_C@_09LBNFPBCA@?5delete?$FL?$FN?$AA@ 000000018005e048     LIBCMT:undname.obj
 0002:00007058       ??_C@_0P@HJKNJFNN@?$GAomni?5callsig?8?$AA@ 000000018005e058     LIBCMT:undname.obj
 0002:00007068       ??_C@_0BL@CNOONJFP@?$GAplacement?5delete?5closure?8?$AA@ 000000018005e068     LIBCMT:undname.obj
 0002:00007088       ??_C@_0BN@CKNJLHMB@?$GAplacement?5delete?$FL?$FN?5closure?8?$AA@ 000000018005e088     LIBCMT:undname.obj
 0002:000070a8       ??_C@_0CG@CFDHKGGD@?$GAmanaged?5vector?5constructor?5iter@ 000000018005e0a8     LIBCMT:undname.obj
 0002:000070d0       ??_C@_0CF@IMGKMJNO@?$GAmanaged?5vector?5destructor?5itera@ 000000018005e0d0     LIBCMT:undname.obj
 0002:000070f8       ??_C@_0CG@HLDDJMAG@?$GAeh?5vector?5copy?5constructor?5iter@ 000000018005e0f8     LIBCMT:undname.obj
 0002:00007120       ??_C@_0CM@FCBBDIGB@?$GAeh?5vector?5vbase?5copy?5constructo@ 000000018005e120     LIBCMT:undname.obj
 0002:00007150       ??_C@_0BL@CLIPGLGB@?$GAdynamic?5initializer?5for?5?8?$AA@ 000000018005e150     LIBCMT:undname.obj
 0002:00007170       ??_C@_0CB@PDBIFEP@?$GAdynamic?5atexit?5destructor?5for?5?8@ 000000018005e170     LIBCMT:undname.obj
 0002:00007198       ??_C@_0CD@CGAJBKEJ@?$GAvector?5copy?5constructor?5iterato@ 000000018005e198     LIBCMT:undname.obj
 0002:000071c0       ??_C@_0CJ@GJELGAMM@?$GAvector?5vbase?5copy?5constructor?5i@ 000000018005e1c0     LIBCMT:undname.obj
 0002:000071f0       ??_C@_0CL@FGIJHLCE@?$GAmanaged?5vector?5copy?5constructor@ 000000018005e1f0     LIBCMT:undname.obj
 0002:00007220       ??_C@_0BM@PMGGMLDN@?$GAlocal?5static?5thread?5guard?8?$AA@ 000000018005e220     LIBCMT:undname.obj
 0002:00007240       ??_C@_0BC@DAFEJGAK@?5Type?5Descriptor?8?$AA@ 000000018005e240     LIBCMT:undname.obj
 0002:00007258       ??_C@_0BM@LDKODKLH@?5Base?5Class?5Descriptor?5at?5?$CI?$AA@ 000000018005e258     LIBCMT:undname.obj
 0002:00007278       ??_C@_0BD@LGICGFMM@?5Base?5Class?5Array?8?$AA@ 000000018005e278     LIBCMT:undname.obj
 0002:00007290       ??_C@_0BN@MECKDCOJ@?5Class?5Hierarchy?5Descriptor?8?$AA@ 000000018005e290     LIBCMT:undname.obj
 0002:000072b0       ??_C@_0BK@CFCOFLF@?5Complete?5Object?5Locator?8?$AA@ 000000018005e2b0     LIBCMT:undname.obj
 0002:000072cc       ??_C@_06OJHGLDPL@?$CInull?$CJ?$AA@ 000000018005e2cc     LIBCMT:output.obj
 0002:000072d8       ??_C@_1O@CEDCILHN@?$AA?$CI?$AAn?$AAu?$AAl?$AAl?$AA?$CJ?$AA?$AA@ 000000018005e2d8     LIBCMT:output.obj
 0002:000072f0       __lookuptable              000000018005e2f0     LIBCMT:output.obj
 0002:00007350       __lookuptable_s            000000018005e350     LIBCMT:outputs.obj
 0002:000073ac       ??_C@_06PGGFOGJG@1?$CDSNAN?$AA@ 000000018005e3ac     LIBCMT:x10fout.obj
 0002:000073b4       ??_C@_05PHHOCPM@1?$CDIND?$AA@ 000000018005e3b4     LIBCMT:x10fout.obj
 0002:000073bc       ??_C@_05DNEBIAHO@1?$CDINF?$AA@ 000000018005e3bc     LIBCMT:x10fout.obj
 0002:000073c4       ??_C@_06IMKFLFPG@1?$CDQNAN?$AA@ 000000018005e3c4     LIBCMT:x10fout.obj
 0002:000073d0       ??_C@_1BA@BALFACEM@?$AAC?$AAO?$AAN?$AAO?$AAU?$AAT?$AA$?$AA?$AA@ 000000018005e3d0     LIBCMT:initcon.obj
 0002:000073e0       ??_C@_0CK@JCPCLECK@external?5memory?5allocation?5limit@ 000000018005e3e0     node-opus.obj
 0002:00007410       ??_C@_1IA@GGMABJLO@?$AAC?$AA?3?$AA?2?$AAU?$AAs?$AAe?$AAr?$AAs?$AA?2?$AAR?$AAo?$AAb?$AAe?$AAr?$AAt?$AA?2?$AA?4?$AAn?$AAo?$AAd?$AAe?$AA?9?$AAg?$AAy?$AAp?$AA?2?$AA4?$AA?4?$AA1?$AA?4?$AA1?$AA?2@ 000000018005e410     node-opus.obj
 0002:00007490       ??_C@_1DG@OKCGPKIB@?$AAp?$AAe?$AAr?$AAs?$AAi?$AAs?$AAt?$AAe?$AAn?$AAt?$AA?$CI?$AA?$CJ?$AA?4?$AAI?$AAs?$AAN?$AAe?$AAa?$AAr?$AAD?$AAe?$AAa?$AAt?$AAh?$AA?$CI?$AA?$CJ?$AA?$AA@ 000000018005e490     node-opus.obj
 0002:000074c8       ??_C@_1CO@EGNPJLKI@?$AAp?$AAe?$AAr?$AAs?$AAi?$AAs?$AAt?$AAe?$AAn?$AAt?$AA?$CI?$AA?$CJ?$AA?4?$AAI?$AAs?$AAE?$AAm?$AAp?$AAt?$AAy?$AA?$CI?$AA?$CJ?$AA?$AA@ 000000018005e4c8     node-opus.obj
 0002:00007500       ??_C@_1EC@NOLNIHNJ@?$AAh?$AAa?$AAn?$AAd?$AAl?$AAe?$AA?9?$AA?$DO?$AAI?$AAn?$AAt?$AAe?$AAr?$AAn?$AAa?$AAl?$AAF?$AAi?$AAe?$AAl?$AAd?$AAC?$AAo?$AAu?$AAn?$AAt?$AA?$CI?$AA?$CJ?$AA?5?$AA?$DO?$AA?5?$AA0@ 000000018005e500     node-opus.obj
 0002:00007548       ??_C@_1DA@FBGAEOIO@?$AA?$CB?$AAp?$AAe?$AAr?$AAs?$AAi?$AAs?$AAt?$AAe?$AAn?$AAt?$AA?$CI?$AA?$CJ?$AA?4?$AAI?$AAs?$AAE?$AAm?$AAp?$AAt?$AAy?$AA?$CI?$AA?$CJ?$AA?$AA@ 000000018005e548     node-opus.obj
 0002:00007578       ??_C@_1CO@JCKLEFMA@?$AA?$CB?$AAp?$AAe?$AAr?$AAs?$AAi?$AAs?$AAt?$AAe?$AAn?$AAt?$AA?$CI?$AA?$CJ?$AA?4?$AAI?$AAs?$AAW?$AAe?$AAa?$AAk?$AA?$CI?$AA?$CJ?$AA?$AA@ 000000018005e578     node-opus.obj
 0002:000075a8       ??_C@_1BE@GMLLOIPJ@?$AAr?$AAe?$AAf?$AAs?$AA_?$AA?5?$AA?$DO?$AA?5?$AA0?$AA?$AA@ 000000018005e5a8     node-opus.obj
 0002:000075c0       ??_C@_1CC@GBFLAAPF@?$AAw?$AAr?$AAa?$AAp?$AA?9?$AA?$DO?$AAr?$AAe?$AAf?$AAs?$AA_?$AA?5?$AA?$DN?$AA?$DN?$AA?5?$AA0?$AA?$AA@ 000000018005e5c0     node-opus.obj
 0002:000075e8       ??_C@_1DI@ELDBKNAK@?$AAw?$AAr?$AAa?$AAp?$AA?9?$AA?$DO?$AAh?$AAa?$AAn?$AAd?$AAl?$AAe?$AA_?$AA?4?$AAI?$AAs?$AAN?$AAe?$AAa?$AAr?$AAD?$AAe?$AAa?$AAt?$AAh?$AA?$CI?$AA?$CJ?$AA?$AA@ 000000018005e5e8     node-opus.obj
 0002:00007620       ??_C@_1IM@GACIBGHJ@?$AAd?$AAa?$AAt?$AAa?$AA?4?$AAG?$AAe?$AAt?$AAV?$AAa?$AAl?$AAu?$AAe?$AA?$CI?$AA?$CJ?$AA?5?$AA?$DN?$AA?$DN?$AA?5?$AAv?$AA8?$AA?3?$AA?3?$AAL?$AAo?$AAc?$AAa?$AAl?$AA?$DM?$AAv?$AA8?$AA?3@ 000000018005e620     node-opus.obj
 0002:000076b0       ??_C@_0O@BFJCFAAK@unknown?5error?$AA@ 000000018005e6b0     node-opus.obj
 0002:000076c0       ??_C@_1MO@LPLEHCDK@?$AAC?$AA?3?$AA?2?$AAU?$AAs?$AAe?$AAr?$AAs?$AA?2?$AAR?$AAo?$AAb?$AAe?$AAr?$AAt?$AA?2?$AAD?$AAo?$AAc?$AAu?$AAm?$AAe?$AAn?$AAt?$AAs?$AA?2?$AAA?$AAn?$AAe?$AAB?$AAo?$AAt@ 000000018005e6c0     node-opus.obj
 0002:00007790       ??_C@_1FM@LOELJOFK@?$AAs?$AAi?$AAz?$AAe?$AA?5?$AA?$DM?$AA?$DN?$AA?5?$AAi?$AAm?$AAp?$AA?3?$AA?3?$AAk?$AAM?$AAa?$AAx?$AAL?$AAe?$AAn?$AAg?$AAt?$AAh?$AA?5?$AA?$CG?$AA?$CG?$AA?5?$AA?$CC?$AAt?$AAo?$AAo?$AA?5@ 000000018005e790     node-opus.obj
 0002:000077f0       ??_C@_0CL@MOOICKOK@One?5or?5more?5invalid?1out?5of?5range@ 000000018005e7f0     node-opus.obj
 0002:00007820       ??_C@_0CC@BLOLJIM@The?5mode?5struct?5passed?5is?5invali@ 000000018005e820     node-opus.obj
 0002:00007848       ??_C@_0BP@CCEAAPOK@An?5internal?5error?5was?5detected?$AA@ 000000018005e848     node-opus.obj
 0002:00007868       ??_C@_0CI@HGOHBHDG@The?5compressed?5data?5passed?5is?5co@ 000000018005e868     node-opus.obj
 0002:00007890       ??_C@_0CE@EPMHMMFA@Invalid?1unsupported?5request?5numb@ 000000018005e890     node-opus.obj
 0002:000078b8       ??_C@_0DN@FLMECJKC@An?5encoder?5or?5decoder?5structure?5@ 000000018005e8b8     node-opus.obj
 0002:000078f8       ??_C@_0BN@CEEKAODG@Memory?5allocation?5has?5failed?$AA@ 000000018005e8f8     node-opus.obj
 0002:00007918       ??_C@_0BD@IFKHGMNN@Unknown?5OPUS?5error?$AA@ 000000018005e918     node-opus.obj
 0002:00007930       ??_C@_0BN@MDMCOIHO@Argument?50?5must?5be?5an?5object?$AA@ 000000018005e930     node-opus.obj
 0002:00007950       ??_C@_0DD@PKGHFLHJ@Use?5the?5new?5operator?5to?5construc@ 000000018005e950     node-opus.obj
 0002:00007988       ??_C@_0M@CJBGOGJM@OpusEncoder?$AA@ 000000018005e988     node-opus.obj
 0002:00007994       ??_C@_06GDGADLDP@encode?$AA@ 000000018005e994     node-opus.obj
 0002:0000799c       ??_C@_06KPNAMAEI@decode?$AA@ 000000018005e99c     node-opus.obj
 0002:000079a8       ??_C@_0L@MHOGNINK@setBitrate?$AA@ 000000018005e9a8     node-opus.obj
 0002:000079b8       ??_C@_0L@NJMJGPJD@getBitrate?$AA@ 000000018005e9b8     node-opus.obj
 0002:000079c8       ??_C@_0BE@LGGJKHOF@?4?4?2src?2node?9opus?4cc?$AA@ 000000018005e9c8     node-opus.obj
 0002:000079e0       ??_C@_09GADFKJA@node_opus?$AA@ 000000018005e9e0     node-opus.obj
 0002:000079f0       ??_C@_1CE@IAEMMFJ@?$AA?$CB?$AAh?$AAa?$AAn?$AAd?$AAl?$AAe?$AA?4?$AAI?$AAs?$AAE?$AAm?$AAp?$AAt?$AAy?$AA?$CI?$AA?$CJ?$AA?$AA@ 000000018005e9f0     node-opus.obj
 0002:00007a18       ??_7ExternalSourceStream@ScriptCompiler@v8@@6B@ 000000018005ea18     node-opus.obj
 0002:00007a38       ??_7ExternalOneByteStringResourceImpl@v8@@6B@ 000000018005ea38     node-opus.obj
 0002:00007a58       ??_7Allocator@ArrayBuffer@v8@@6B@ 000000018005ea58     node-opus.obj
 0002:00007a78       ?kNoScriptId@UnboundScript@v8@@2HB 000000018005ea78     node-opus.obj
 0002:00007a78       ?kNoScriptIdInfo@Message@v8@@2HB 000000018005ea78     node-opus.obj
 0002:00007a78       ?kNoColumnInfo@Message@v8@@2HB 000000018005ea78     node-opus.obj
 0002:00007a78       ?kNoLineNumberInfo@Message@v8@@2HB 000000018005ea78     node-opus.obj
 0002:00007a7c       ?kMaxLength@String@v8@@2HB 000000018005ea7c     node-opus.obj
 0002:00007a80       ?kInternalFieldCount@ArrayBuffer@v8@@2HB 000000018005ea80     node-opus.obj
 0002:00007a80       ?kInternalFieldCount@SharedArrayBuffer@v8@@2HB 000000018005ea80     node-opus.obj
 0002:00007a80       ?kInternalFieldCount@ArrayBufferView@v8@@2HB 000000018005ea80     node-opus.obj
 0002:00007a88       ??_7OpusEncoder@@6B@       000000018005ea88     node-opus.obj
 0002:00007aa0       ??_7ExternalStringResourceBase@String@v8@@6B@ 000000018005eaa0     node-opus.obj
 0002:00007ab0       ??_7ObjectWrap@node@@6B@   000000018005eab0     node-opus.obj
 0002:00007ac8       ??_7Extension@v8@@6B@      000000018005eac8     node-opus.obj
 0002:00007ad8       ??_7ExternalOneByteStringResource@String@v8@@6B@ 000000018005ead8     node-opus.obj
 0002:00007ad8       ??_7ExternalStringResource@String@v8@@6B@ 000000018005ead8     node-opus.obj
 0002:00007af8       ??_7PersistentHandleVisitor@v8@@6B@ 000000018005eaf8     node-opus.obj
 0002:00007af8       ??_7ExternalResourceVisitor@v8@@6B@ 000000018005eaf8     node-opus.obj
 0002:00007b08       ??_C@_08HCOMDCCD@iojs?4exe?$AA@ 000000018005eb08     win_delay_load_hook.obj
 0002:00007b18       ??_C@_08JDDNMFDB@node?4exe?$AA@ 000000018005eb18     win_delay_load_hook.obj
 0002:00008458       silk_stereo_only_code_mid_iCDF 000000018005f458     libopus:tables_other.obj
 0002:00008480       tf_select_table            000000018005f480     libopus:celt.obj
 0002:000084e0       eMeans                     000000018005f4e0     libopus:quant_bands.obj
 0002:00008544       silk_uniform5_iCDF         000000018005f544     libopus:tables_other.obj
 0002:00008764       silk_uniform3_iCDF         000000018005f764     libopus:tables_other.obj
 0002:00008768       silk_type_offset_VAD_iCDF  000000018005f768     libopus:tables_other.obj
 0002:00008898       silk_NLSF_interpolation_factor_iCDF 000000018005f898     libopus:tables_other.obj
 0002:00008a28       silk_lsb_iCDF              000000018005fa28     libopus:tables_other.obj
 0002:0000a8a8       silk_LTPscale_iCDF         00000001800618a8     libopus:tables_other.obj
 0002:0000b898       silk_NLSF_EXT_iCDF         0000000180062898     libopus:tables_other.obj
 0002:0000bb68       silk_uniform4_iCDF         0000000180062b68     libopus:tables_other.obj
 0002:0000c180       silk_LBRR_flags_iCDF_ptr   0000000180063180     libopus:tables_other.obj
 0002:0000c190       silk_stereo_pred_joint_iCDF 0000000180063190     libopus:tables_other.obj
 0002:0000c1b0       silk_stereo_pred_quant_Q13 00000001800631b0     libopus:tables_other.obj
 0002:0000c1d0       silk_uniform8_iCDF         00000001800631d0     libopus:tables_other.obj
 0002:0000c1d8       silk_type_offset_no_VAD_iCDF 00000001800631d8     libopus:tables_other.obj
 0002:0000c1dc       silk_uniform6_iCDF         00000001800631dc     libopus:tables_other.obj
 0002:0000c1e8       silk_SNR_table_Q1          00000001800631e8     libopus:tables_other.obj
 0002:0000c1f8       silk_LTPScales_table_Q14   00000001800631f8     libopus:tables_other.obj
 0002:0000c200       silk_TargetRate_table_WB   0000000180063200     libopus:tables_other.obj
 0002:0000c220       silk_Transition_LP_B_Q28   0000000180063220     libopus:tables_other.obj
 0002:0000c260       silk_TargetRate_table_NB   0000000180063260     libopus:tables_other.obj
 0002:0000c280       silk_Quantization_Offsets_Q10 0000000180063280     libopus:tables_other.obj
 0002:0000c290       silk_Transition_LP_A_Q28   0000000180063290     libopus:tables_other.obj
 0002:0000c2c0       silk_TargetRate_table_MB   00000001800632c0     libopus:tables_other.obj
 0002:0000c2e0       net                        00000001800632e0     libopus:mlp_data.obj
 0002:0000cd58       silk_Resampler_2_3_COEFS   0000000180063d58     libopus:resampler_rom.obj
 0002:0000e160       silk_Resampler_3_4_COEFS   0000000180065160     libopus:resampler_rom.obj
 0002:0000e19c       silk_max_pulses_table      000000018006519c     libopus:tables_pulses_per_block.obj
 0002:0000e1a0       silk_Resampler_1_2_COEFS   00000001800651a0     libopus:resampler_rom.obj
 0002:0000e1bc       silk_pitch_contour_10_ms_NB_iCDF 00000001800651bc     libopus:tables_pitch_lag.obj
 0002:0000e1c0       silk_Resampler_1_3_COEFS   00000001800651c0     libopus:resampler_rom.obj
 0002:0000e1e8       silk_Resampler_1_4_COEFS   00000001800651e8     libopus:resampler_rom.obj
 0002:0000e210       silk_Resampler_1_6_COEFS   0000000180065210     libopus:resampler_rom.obj
 0002:0000e238       silk_rate_levels_iCDF      0000000180065238     libopus:tables_pulses_per_block.obj
 0002:0000e250       silk_resampler_frac_FIR_12 0000000180065250     libopus:resampler_rom.obj
 0002:0000e2b0       silk_Resampler_2_3_COEFS_LQ 00000001800652b0     libopus:resampler_rom.obj
 0002:0000e2c0       silk_pulses_per_block_iCDF 00000001800652c0     libopus:tables_pulses_per_block.obj
 0002:0000e374       silk_LTP_per_index_iCDF    0000000180065374     libopus:tables_LTP.obj
 0002:0000e378       silk_shell_code_table_offsets 0000000180065378     libopus:tables_pulses_per_block.obj
 0002:0000e390       silk_rate_levels_BITS_Q5   0000000180065390     libopus:tables_pulses_per_block.obj
 0002:0000e3a8       silk_gain_iCDF             00000001800653a8     libopus:tables_gain.obj
 0002:0000e3c0       silk_pulses_per_block_BITS_Q5 00000001800653c0     libopus:tables_pulses_per_block.obj
 0002:0000e468       silk_pitch_delta_iCDF      0000000180065468     libopus:tables_pitch_lag.obj
 0002:0000e480       silk_sign_iCDF             0000000180065480     libopus:tables_pulses_per_block.obj
 0002:0000e4b0       silk_shell_code_table1     00000001800654b0     libopus:tables_pulses_per_block.obj
 0002:0000e548       silk_pitch_contour_iCDF    0000000180065548     libopus:tables_pitch_lag.obj
 0002:0000e570       silk_shell_code_table3     0000000180065570     libopus:tables_pulses_per_block.obj
 0002:0000e610       silk_shell_code_table2     0000000180065610     libopus:tables_pulses_per_block.obj
 0002:0000e6b0       silk_shell_code_table0     00000001800656b0     libopus:tables_pulses_per_block.obj
 0002:0000e748       silk_delta_gain_iCDF       0000000180065748     libopus:tables_gain.obj
 0002:0000e774       silk_LTP_gain_middle_avg_RD_Q14 0000000180065774     libopus:tables_LTP.obj
 0002:0000e778       silk_pitch_lag_iCDF        0000000180065778     libopus:tables_pitch_lag.obj
 0002:0000e798       silk_pitch_contour_NB_iCDF 0000000180065798     libopus:tables_pitch_lag.obj
 0002:0000e7a4       silk_LTP_vq_sizes          00000001800657a4     libopus:tables_LTP.obj
 0002:0000e7a8       silk_pitch_contour_10_ms_iCDF 00000001800657a8     libopus:tables_pitch_lag.obj
 0002:0000e7f0       silk_LTP_gain_iCDF_ptrs    00000001800657f0     libopus:tables_LTP.obj
 0002:0000e810       silk_LTP_vq_ptrs_Q7        0000000180065810     libopus:tables_LTP.obj
 0002:0000e840       silk_LTP_vq_gain_ptrs_Q7   0000000180065840     libopus:tables_LTP.obj
 0002:0000e8f0       silk_LTP_gain_BITS_Q5_ptrs 00000001800658f0     libopus:tables_LTP.obj
 0002:0000ea20       silk_NLSF_CB_NB_MB         0000000180065a20     libopus:tables_NLSF_CB_NB_MB.obj
 0002:0000ed40       silk_NLSF_CB_WB            0000000180065d40     libopus:tables_NLSF_CB_WB.obj
 0002:0000f1ac       silk_Lag_range_stage3_10_ms 00000001800661ac     libopus:pitch_est_tables.obj
 0002:0000f1c0       silk_LSFCosTab_FIX_Q12     00000001800661c0     libopus:table_LSF_cos.obj
 0002:0000f2c4       silk_CB_lags_stage2_10_ms  00000001800662c4     libopus:pitch_est_tables.obj
 0002:0000f2d0       silk_CB_lags_stage3_10_ms  00000001800662d0     libopus:pitch_est_tables.obj
 0002:0000f2e8       silk_nb_cbk_searchs_stage3 00000001800662e8     libopus:pitch_est_tables.obj
 0002:0000f2f0       silk_CB_lags_stage3        00000001800662f0     libopus:pitch_est_tables.obj
 0002:0000f380       silk_CB_lags_stage2        0000000180066380     libopus:pitch_est_tables.obj
 0002:0000f3b0       silk_Lag_range_stage3      00000001800663b0     libopus:pitch_est_tables.obj
 0002:0000f3d0       ??_C@_07IPNMCAN@success?$AA@ 00000001800663d0     libopus:celt.obj
 0002:0000f3d8       ??_C@_0BB@FCMFBGOM@invalid?5argument?$AA@ 00000001800663d8     libopus:celt.obj
 0002:0000f3f0       ??_C@_0BB@CABJKBPN@buffer?5too?5small?$AA@ 00000001800663f0     libopus:celt.obj
 0002:0000f408       ??_C@_0P@LPIEGNHB@internal?5error?$AA@ 0000000180066408     libopus:celt.obj
 0002:0000f418       ??_C@_0BB@FNNNGDHK@corrupted?5stream?$AA@ 0000000180066418     libopus:celt.obj
 0002:0000f430       ??_C@_0BI@FOBNHMGK@request?5not?5implemented?$AA@ 0000000180066430     libopus:celt.obj
 0002:0000f448       ??_C@_0O@ELPMPPOH@invalid?5state?$AA@ 0000000180066448     libopus:celt.obj
 0002:0000f458       ??_C@_0BJ@FDBIHNP@memory?5allocation?5failed?$AA@ 0000000180066458     libopus:celt.obj
 0002:0000f478       ??_C@_0BC@BKPNIMPC@libopus?5v1?41?9beta?$AA@ 0000000180066478     libopus:celt.obj
 0002:0000f48c       __real@0da24260            000000018006648c     libopus:celt_decoder.obj
 0002:0000f490       __real@129e74d2            0000000180066490     libopus:bands.obj
 0002:0000f494       __real@1e3ce508            0000000180066494     libopus:analysis.obj
 0002:0000f498       __real@26901d7d            0000000180066498     libopus:bands.obj
 0002:0000f49c       __real@2b8cbccc            000000018006649c     libopus:levinsondurbin_FLP.obj
 0002:0000f4a0       __real@2edbe6ff            00000001800664a0     libopus:analysis.obj
 0002:0000f4a4       __real@3089705f            00000001800664a4     libopus:schur_FLP.obj
 0002:0000f4a8       __real@31800000            00000001800664a8     libopus:opus_encoder.obj
 0002:0000f4ac       __real@322bcc77            00000001800664ac     libopus:residual_energy_FLP.obj
 0002:0000f4b0       __real@358637bd            00000001800664b0     libopus:find_LTP_FLP.obj
 0002:0000f4b4       __real@36500998            00000001800664b4     libopus:celt_encoder.obj
 0002:0000f4b8       __real@36a7c5ac            00000001800664b8     libopus:solve_LS_FLP.obj
 0002:0000f4bc       __real@37800000            00000001800664bc     libopus:opus_encoder.obj
 0002:0000f4c0       __real@38000000            00000001800664c0     libopus:celt_encoder.obj
 0002:0000f4c4       __real@3851b717            00000001800664c4     libopus:noise_shape_analysis_FLP.obj
 0002:0000f4c8       __real@38800000            00000001800664c8     libopus:LTP_scale_ctrl_FLP.obj
 0002:0000f4cc       __real@38d1b717            00000001800664cc     libopus:celt_encoder.obj
 0002:0000f4d0       __real@39800000            00000001800664d0     libopus:pitch_analysis_core_FLP.obj
 0002:0000f4d4       __real@3a156c0d            00000001800664d4     libopus:analysis.obj
 0002:0000f4d8       __real@3a1d4952            00000001800664d8     libopus:bands.obj
 0002:0000f4dc       __real@3a2a152d            00000001800664dc     libopus:opus_decoder.obj
 0002:0000f4e0       __real@3a51b717            00000001800664e0     libopus:opus_encoder.obj
 0002:0000f4e4       __real@3a800000            00000001800664e4     libopus:process_gains_FLP.obj
 0002:0000f4e8       __real@3a83126f            00000001800664e8     libopus:celt_lpc.obj
 0002:0000f4ec       __real@3b800000            00000001800664ec     libopus:noise_shape_analysis_FLP.obj
 0002:0000f4f0       __real@3b83126f            00000001800664f0     libopus:find_pitch_lags_FLP.obj
 0002:0000f4f4       __real@3bcb295f            00000001800664f4     libopus:celt_encoder.obj
 0002:0000f4f8       __real@3be21965            00000001800664f8     libopus:celt_encoder.obj
 0002:0000f4fc       __real@3c000000            00000001800664fc     libopus:noise_shape_analysis_FLP.obj
 0002:0000f500       __real@3c23d70a            0000000180066500     libopus:find_LTP_FLP.obj
 0002:0000f504       __real@3c75c28f            0000000180066504     libopus:analysis.obj
 0002:0000f508       __real@3c800000            0000000180066508     libopus:bands.obj
 0002:0000f50c       __real@3c888889            000000018006650c     libopus:find_LTP_FLP.obj
 0002:0000f510       __real@3ca3d70a            0000000180066510     libopus:celt_encoder.obj
 0002:0000f518       __real@3cd203af9ee75616    0000000180066518     libopus:analysis.obj
 0002:0000f520       __real@3cf5c28f            0000000180066520     libopus:analysis.obj
 0002:0000f524       __real@3cfdf3b6            0000000180066524     libopus:celt_encoder.obj
 0002:0000f528       __real@3d23d70a            0000000180066528     libopus:mlp.obj
 0002:0000f52c       __real@3d4ccccd            000000018006652c     libopus:opus_encoder.obj
 0002:0000f530       __real@3d800000            0000000180066530     libopus:celt_encoder.obj
 0002:0000f534       __real@3db00965            0000000180066534     libopus:analysis.obj
 0002:0000f538       __real@3db851ec            0000000180066538     libopus:celt_encoder.obj
 0002:0000f53c       __real@3dc00000            000000018006653c     libopus:celt_encoder.obj
 0002:0000f540       __real@3dcccccd            0000000180066540     libopus:LTP_scale_ctrl_FLP.obj
 0002:0000f544       __real@3dfbe22e            0000000180066544     libopus:analysis.obj
 0002:0000f548       __real@3e000000            0000000180066548     libopus:celt_encoder.obj
 0002:0000f550       __real@3e112e0be0000000    0000000180066550     libopus:burg_modified_FLP.obj
 0002:0000f558       __real@3e124925            0000000180066558     libopus:opus_encoder.obj
 0002:0000f55c       __real@3e199800            000000018006655c     libopus:quant_bands.obj
 0002:0000f560       __real@3e19999a            0000000180066560     libopus:celt_encoder.obj
 0002:0000f564       __real@3e22f983            0000000180066564     libopus:analysis.obj
 0002:0000f568       __real@3e4ccccd            0000000180066568     libopus:celt_encoder.obj
 0002:0000f56c       __real@3e6b851f            000000018006656c     libopus:analysis.obj
 0002:0000f570       __real@3e800000            0000000180066570     libopus:prefilter_FLP.obj
 0002:0000f574       __real@3e866666            0000000180066574     libopus:noise_shape_analysis_FLP.obj
 0002:0000f578       __real@3e88d64d            0000000180066578     libopus:analysis.obj
 0002:0000f57c       __real@3e99999a            000000018006657c     libopus:pitch.obj
 0002:0000f580       __real@3ea1e8e6            0000000180066580     libopus:analysis.obj
 0002:0000f584       __real@3ea8f5c3            0000000180066584     libopus:process_gains_FLP.obj
 0002:0000f588       __real@3ecccccd            0000000180066588     libopus:celt_encoder.obj
 0002:0000f58c       __real@3edcf805            000000018006658c     libopus:analysis.obj
 0002:0000f590       __real@3ee4f8b580000000    0000000180066590     libopus:burg_modified_FLP.obj
 0002:0000f598       __real@3efbe0df            0000000180066598     libopus:analysis.obj
 0002:0000f59c       __real@3efffe00            000000018006659c     libopus:prefilter_FLP.obj
 0002:0000f5a0       __real@3f000000            00000001800665a0     libopus:apply_sine_window_FLP.obj
 0002:0000f5a4       __real@3f08d64d            00000001800665a4     libopus:analysis.obj
 0002:0000f5a8       __real@3f0ccccd            00000001800665a8     libopus:celt_encoder.obj
 0002:0000f5ac       __real@3f19999a            00000001800665ac     libopus:noise_shape_analysis_FLP.obj
 0002:0000f5b0       __real@3f21e8e6            00000001800665b0     libopus:analysis.obj
 0002:0000f5b4       __real@3f27f62a            00000001800665b4     libopus:pitch.obj
 0002:0000f5b8       __real@3f2b851f            00000001800665b8     libopus:celt_encoder.obj
 0002:0000f5bc       __real@3f2db121            00000001800665bc     libopus:analysis.obj
 0002:0000f5c0       __real@3f326a01            00000001800665c0     libopus:analysis.obj
 0002:0000f5c4       __real@3f333333            00000001800665c4     libopus:pitch.obj
 0002:0000f5c8       __real@3f3504f3            00000001800665c8     libopus:kiss_fft.obj
 0002:0000f5cc       __real@3f3504f7            00000001800665cc     libopus:celt_encoder.obj
 0002:0000f5d0       __real@3f3a9fbd            00000001800665d0     libopus:pitch.obj
 0002:0000f5d4       __real@3f400000            00000001800665d4     libopus:celt_encoder.obj
 0002:0000f5d8       __real@3f4ccccd            00000001800665d8     libopus:celt_encoder.obj
 0002:0000f5dc       __real@3f4f5c28            00000001800665dc     libopus:pitch.obj
 0002:0000f5e0       __real@3f50624dd2f1a9fc    00000001800665e0     libopus:pitch_analysis_core_FLP.obj
 0002:0000f5e8       __real@3f59999a            00000001800665e8     libopus:pitch.obj
 0002:0000f5ec       __real@3f5b6db7            00000001800665ec     libopus:opus_encoder.obj
 0002:0000f5f0       __real@3f666666            00000001800665f0     libopus:pitch.obj
 0002:0000f5f4       __real@3f733333            00000001800665f4     libopus:noise_shape_analysis_FLP.obj
 0002:0000f5f8       __real@3f7d70a4            00000001800665f8     libopus:noise_shape_analysis_FLP.obj
 0002:0000f5fc       __real@3f800000            00000001800665fc     libopus:residual_energy_FLP.obj
 0002:0000f600       __real@3f800347            0000000180066600     libopus:pitch.obj
 0002:0000f604       __real@3f8020c5            0000000180066604     libopus:celt_encoder.obj
 0002:0000f608       __real@3f866666            0000000180066608     libopus:noise_shape_analysis_FLP.obj
 0002:0000f60c       __real@3f99999a            000000018006660c     libopus:process_gains_FLP.obj
 0002:0000f610       __real@3f9ae148            0000000180066610     libopus:analysis.obj
 0002:0000f614       __real@3fa66666            0000000180066614     libopus:noise_shape_analysis_FLP.obj
 0002:0000f618       __real@3fb504f3            0000000180066618     libopus:bands.obj
 0002:0000f61c       __real@3fb7aace            000000018006661c     libopus:analysis.obj
 0002:0000f620       __real@3fb999999999999a    0000000180066620     libopus:analysis.obj
 0002:0000f628       __real@3fc00000            0000000180066628     libopus:celt_encoder.obj
 0002:0000f630       __real@3fc1cac083126e98    0000000180066630     libopus:celt_encoder.obj
 0002:0000f638       __real@3fc90fdb            0000000180066638     libopus:analysis.obj
 0002:0000f640       __real@3fd3333333333333    0000000180066640     libopus:celt_encoder.obj
 0002:0000f648       __real@3fd47ae140000000    0000000180066648     libopus:noise_shape_analysis_FLP.obj
 0002:0000f650       __real@3fd999999999999a    0000000180066650     libopus:celt_encoder.obj
 0002:0000f658       __real@3fe0000000000000    0000000180066658     libopus:celt_encoder.obj
 0002:0000f660       __real@3fe62e42fefa39ef    0000000180066660     libopus:bands.obj
 0002:0000f668       __real@3fe947ae147ae148    0000000180066668     libopus:celt_encoder.obj
 0002:0000f670       __real@3feccccccccccccd    0000000180066670     libopus:analysis.obj
 0002:0000f678       __real@3fefff2e40000000    0000000180066678     libopus:LPC_inv_pred_gain_FLP.obj
 0002:0000f680       __real@3ff0000000000000    0000000180066680     libopus:solve_LS_FLP.obj
 0002:0000f688       __real@3ff428f5c28f5c29    0000000180066688     libopus:celt_encoder.obj
 0002:0000f690       __real@3ff71547652b82fe    0000000180066690     libopus:quant_bands.obj
 0002:0000f698       __real@40000000            0000000180066698     libopus:LTP_scale_ctrl_FLP.obj
 0002:0000f6a0       __real@4000000000000000    00000001800666a0     libopus:noise_shape_analysis_FLP.obj
 0002:0000f6a8       __real@400a934f0979a36c    00000001800666a8     libopus:pitch_analysis_core_FLP.obj
 0002:0000f6b0       __real@4024000000000000    00000001800666b0     libopus:analysis.obj
 0002:0000f6b8       __real@40400000            00000001800666b8     libopus:find_LTP_FLP.obj
 0002:0000f6bc       __real@40490fdb            00000001800666bc     libopus:apply_sine_window_FLP.obj
 0002:0000f6c0       __real@407fef9e            00000001800666c0     libopus:noise_shape_analysis_FLP.obj
 0002:0000f6c4       __real@40800000            00000001800666c4     libopus:noise_shape_analysis_FLP.obj
 0002:0000f6c8       __real@40a00000            00000001800666c8     libopus:celt_encoder.obj
 0002:0000f6cc       __real@40c00000            00000001800666cc     libopus:celt_encoder.obj
 0002:0000f6d0       __real@40c45f30e0000000    00000001800666d0     libopus:vq.obj
 0002:0000f6d8       __real@41000000            00000001800666d8     libopus:mlp.obj
 0002:0000f6e0       __real@4103880000000000    00000001800666e0     libopus:pitch_analysis_core_FLP.obj
 0002:0000f6e8       __real@41100000            00000001800666e8     libopus:analysis.obj
 0002:0000f6ec       __real@41400000            00000001800666ec     libopus:opus_encoder.obj
 0002:0000f6f0       __real@41800000            00000001800666f0     libopus:quant_bands.obj
 0002:0000f6f4       __real@41900000            00000001800666f4     libopus:analysis.obj
 0002:0000f6f8       __real@41a00000            00000001800666f8     libopus:opus_encoder.obj
 0002:0000f6fc       __real@41a80000            00000001800666fc     libopus:process_gains_FLP.obj
 0002:0000f700       __real@41c80000            0000000180066700     libopus:mlp.obj
 0002:0000f704       __real@41f00000            0000000180066704     libopus:analysis.obj
 0002:0000f708       __real@42000000            0000000180066708     libopus:celt_encoder.obj
 0002:0000f70c       __real@42280000            000000018006670c     libopus:celt_encoder.obj
 0002:0000f710       __real@42800000            0000000180066710     libopus:celt_encoder.obj
 0002:0000f714       __real@42a00000            0000000180066714     libopus:opus_encoder.obj
 0002:0000f718       __real@42c80000            0000000180066718     libopus:opus_encoder.obj
 0002:0000f71c       __real@43230000            000000018006671c     libopus:celt_encoder.obj
 0002:0000f720       __real@43480000            0000000180066720     libopus:quant_bands.obj
 0002:0000f724       __real@44800000            0000000180066724     libopus:wrappers_FLP.obj
 0002:0000f728       __real@45800000            0000000180066728     libopus:wrappers_FLP.obj
 0002:0000f72c       __real@46000000            000000018006672c     libopus:wrappers_FLP.obj
 0002:0000f730       __real@461c4000            0000000180066730     libopus:find_pred_coefs_FLP.obj
 0002:0000f734       __real@467a0000            0000000180066734     libopus:opus_encoder.obj
 0002:0000f738       __real@46800000            0000000180066738     libopus:wrappers_FLP.obj
 0002:0000f73c       __real@46fffe00            000000018006673c     libopus:opus_encoder.obj
 0002:0000f740       __real@47000000            0000000180066740     libopus:celt_encoder.obj
 0002:0000f744       __real@470ca000            0000000180066744     libopus:opus_encoder.obj
 0002:0000f748       __real@477385d1            0000000180066748     libopus:analysis.obj
 0002:0000f74c       __real@477a0000            000000018006674c     libopus:opus_encoder.obj
 0002:0000f750       __real@47800000            0000000180066750     libopus:celt_encoder.obj
 0002:0000f754       __real@48800000            0000000180066754     libopus:wrappers_FLP.obj
 0002:0000f758       __real@4e6e6b28            0000000180066758     libopus:analysis.obj
 0002:0000f75c       __real@5368d4a5            000000018006675c     libopus:analysis.obj
 0002:0000f760       __real@7f7fffff            0000000180066760     libopus:find_LPC_FLP.obj
 0002:0000f764       __real@b7800000            0000000180066764     libopus:opus_encoder.obj
 0002:0000f768       __real@bb800000            0000000180066768     libopus:bands.obj
 0002:0000f76c       __real@bcfdf3b6            000000018006676c     libopus:celt_encoder.obj
 0002:0000f770       __real@bdcccccd            0000000180066770     libopus:celt_encoder.obj
 0002:0000f774       __real@be000000            0000000180066774     libopus:bands.obj
 0002:0000f778       __real@be23d70a            0000000180066778     libopus:noise_shape_analysis_FLP.obj
 0002:0000f77c       __real@be4ccccd            000000018006677c     libopus:analysis.obj
 0002:0000f780       __real@be800000            0000000180066780     libopus:celt_encoder.obj
 0002:0000f784       __real@becccccd            0000000180066784     libopus:noise_shape_analysis_FLP.obj
 0002:0000f788       __real@bf000000            0000000180066788     libopus:opus_encoder.obj
 0002:0000f78c       __real@bf800000            000000018006678c     libopus:mlp.obj
 0002:0000f790       __real@bf99999a            0000000180066790     libopus:celt_encoder.obj
 0002:0000f794       __real@bfc00000            0000000180066794     libopus:celt_encoder.obj
 0002:0000f798       __real@bfc90fdb            0000000180066798     libopus:analysis.obj
 0002:0000f7a0       __real@bfefff2e40000000    00000001800667a0     libopus:LPC_inv_pred_gain_FLP.obj
 0002:0000f7a8       __real@c0000000            00000001800667a8     libopus:opus.obj
 0002:0000f7b0       __real@c000000000000000    00000001800667b0     libopus:burg_modified_FLP.obj
 0002:0000f7b8       __real@c0800000            00000001800667b8     libopus:celt_encoder.obj
 0002:0000f7bc       __real@c1000000            00000001800667bc     libopus:mlp.obj
 0002:0000f7c0       __real@c1100000            00000001800667c0     libopus:quant_bands.obj
 0002:0000f7c4       __real@c1200000            00000001800667c4     libopus:celt_encoder.obj
 0002:0000f7c8       __real@c1e00000            00000001800667c8     libopus:quant_bands.obj
 0002:0000f7cc       __real@c1ff3333            00000001800667cc     libopus:celt_encoder.obj
 0002:0000f7d0       __real@c47a0000            00000001800667d0     libopus:pitch_analysis_core_FLP.obj
 0002:0000f7d4       __real@c7000000            00000001800667d4     libopus:opus_encoder.obj
 0002:0000f7d8       __real@c7800000            00000001800667d8     libopus:celt_encoder.obj
 0002:0000f7dc       __real@d8635fa9            00000001800667dc     libopus:vq.obj
 0002:0000f7e0       __xmm@00000001000000010000000100000001 00000001800667e0     libopus:opus_encoder.obj
 0002:0000f7f0       __xmm@00000002000000020000000200000002 00000001800667f0     libopus:opus_encoder.obj
 0002:0000f800       __xmm@00000003000000020000000100000000 0000000180066800     libopus:sort.obj
 0002:0000f810       __xmm@00000005000000050000000500000005 0000000180066810     libopus:celt_encoder.obj
 0002:0000f820       __xmm@00000006000000060000000600000006 0000000180066820     libopus:opus_encoder.obj
 0002:0000f830       __xmm@00000009000000090000000900000009 0000000180066830     libopus:celt_encoder.obj
 0002:0000f840       __xmm@38800000388000003880000038800000 0000000180066840     libopus:wrappers_FLP.obj
 0002:0000f850       __xmm@388637be388637be388637be388637be 0000000180066850     libopus:celt_decoder.obj
 0002:0000f860       __xmm@39800000398000003980000039800000 0000000180066860     libopus:wrappers_FLP.obj
 0002:0000f870       __xmm@3a83126f3a83126f3a83126f3a83126f 0000000180066870     libopus:celt_decoder.obj
 0002:0000f880       __xmm@3bcb295f3bcb295f3bcb295f3bcb295f 0000000180066880     libopus:celt_encoder.obj
 0002:0000f890       __xmm@3c03126f3c03126f3c03126f3c03126f 0000000180066890     libopus:pitch.obj
 0002:0000f8a0       __xmm@3d8000003d8000003d8000003d800000 00000001800668a0     libopus:celt_encoder.obj
 0002:0000f8b0       __xmm@3e8000003e8000003e8000003e800000 00000001800668b0     libopus:celt_encoder.obj
 0002:0000f8c0       __xmm@3f0000003f0000003f0000003f000000 00000001800668c0     libopus:celt_encoder.obj
 0002:0000f8d0       __xmm@3f3504f33f3504f33f3504f33f3504f3 00000001800668d0     libopus:bands.obj
 0002:0000f8e0       __xmm@7fffffffffffffff7fffffffffffffff 00000001800668e0     libopus:analysis.obj
 0002:0000f8f0       __xmm@80000000000000008000000000000000 00000001800668f0     libopus:burg_modified_FLP.obj
 0002:0000f900       __xmm@80000000800000008000000080000000 0000000180066900     libopus:k2a_FLP.obj
 0002:00010828       __real@3e45798ee2308c3a    0000000180067828     LIBCMT:atan2.obj
 0002:00010830       __real@3f70000000000000    0000000180067830     LIBCMT:atan2.obj
 0002:00010838       __real@3fb0000000000000    0000000180067838     LIBCMT:atan2.obj
 0002:00010840       __real@3fb70c3192d751c2    0000000180067840     LIBCMT:atan2.obj
 0002:00010848       __real@3fbc718839b8c4eb    0000000180067848     LIBCMT:atan2.obj
 0002:00010850       __real@3fc2492482bd6be1    0000000180067850     LIBCMT:atan2.obj
 0002:00010858       __real@3fc99992b9802d7d    0000000180067858     LIBCMT:atan2.obj
 0002:00010860       __real@3fc99999999643a3    0000000180067860     LIBCMT:atan2.obj
 0002:00010868       __real@3fd5555555550877    0000000180067868     LIBCMT:atan2.obj
 0002:00010870       __real@3fd5555555555538    0000000180067870     LIBCMT:atan2.obj
 0002:00010878       __real@4010000000000000    0000000180067878     LIBCMT:atan2.obj
 0002:00010880       __real@4070000000000000    0000000180067880     LIBCMT:atan2.obj
 0002:00010888       __real@8000000000000000    0000000180067888     LIBCMT:atan2.obj
 0002:00010890       __real@c010000000000000    0000000180067890     LIBCMT:atan2.obj
 0002:00010a60       __real@bff0000000000000    0000000180067a60     LIBCMT:floor.obj
 0002:00012280       __Lcosarray                0000000180069280     LIBCMT:Lsincos_array.obj
 0002:000122e0       __Lsinarray                00000001800692e0     LIBCMT:Lsincos_array.obj
 0002:00012660       __two_to_jby64_table       0000000180069660     LIBCMT:two_to_jby64_table.obj
 0002:00012860       __two_to_jby64_head_table  0000000180069860     LIBCMT:two_to_jby64_head_tail_table.obj
 0002:00012a60       __two_to_jby64_tail_table  0000000180069a60     LIBCMT:two_to_jby64_head_tail_table.obj
 0002:00012c60       __log_256_lead             0000000180069c60     LIBCMT:log_256_lead_tail_table.obj
 0002:00013470       __log_256_tail             000000018006a470     LIBCMT:log_256_lead_tail_table.obj
 0002:00013c80       __log_F_inv_qword          000000018006ac80     LIBCMT:log_F_inv_qword_table.obj
 0002:00014490       __log10_256_lead           000000018006b490     LIBCMT:log10_256_lead_tail_table.obj
 0002:00014ca0       __log10_256_tail           000000018006bca0     LIBCMT:log10_256_lead_tail_table.obj
 0002:000154b0       __L_2_by_pi_bits           000000018006c4b0     LIBCMT:L2_by_pi_bits.obj
 0002:00015550       _load_config_used          000000018006c550     LIBCMT:loadcfg.obj
 0002:00015658       ??_R1A@?0A@EA@exception@std@@8 000000018006c658     libcpmt:xthrow.obj
 0002:00015680       ??_R3exception@std@@8      000000018006c680     libcpmt:xthrow.obj
 0002:00015698       ??_R2exception@std@@8      000000018006c698     libcpmt:xthrow.obj
 0002:000156a8       ??_R4bad_alloc@std@@6B@    000000018006c6a8     libcpmt:xthrow.obj
 0002:000156d0       ??_R3bad_alloc@std@@8      000000018006c6d0     libcpmt:xthrow.obj
 0002:000156e8       ??_R2bad_alloc@std@@8      000000018006c6e8     libcpmt:xthrow.obj
 0002:00015700       ??_R1A@?0A@EA@bad_alloc@std@@8 000000018006c700     libcpmt:xthrow.obj
 0002:00015728       ??_R4type_info@@6B@        000000018006c728     LIBCMT:typinfo.obj
 0002:00015750       ??_R3type_info@@8          000000018006c750     LIBCMT:typinfo.obj
 0002:00015768       ??_R2type_info@@8          000000018006c768     LIBCMT:typinfo.obj
 0002:00015778       ??_R1A@?0A@EA@type_info@@8 000000018006c778     LIBCMT:typinfo.obj
 0002:000157a0       ??_R4exception@std@@6B@    000000018006c7a0     LIBCMT:stdexcpt.obj
 0002:000157c8       __rtc_iaa                  000000018006c7c8     LIBCMT:initsect.obj
 0002:000157d0       __rtc_izz                  000000018006c7d0     LIBCMT:initsect.obj
 0002:000157d8       __rtc_taa                  000000018006c7d8     LIBCMT:initsect.obj
 0002:000157e0       __rtc_tzz                  000000018006c7e0     LIBCMT:initsect.obj
 0002:00019598       _TI2?AVbad_alloc@std@@     0000000180070598     libcpmt:xthrow.obj
 0002:000195b8       _CTA2?AVbad_alloc@std@@    00000001800705b8     libcpmt:xthrow.obj
 0002:000195d0       _CT??_R0?AVbad_alloc@std@@@8??0bad_alloc@std@@QEAA@AEBV01@@Z24 00000001800705d0     libcpmt:xthrow.obj
 0002:000195f8       _CT??_R0?AVexception@std@@@8??0exception@std@@QEAA@AEBV01@@Z24 00000001800705f8     libcpmt:xthrow.obj
 0002:0001961c       __DELAY_IMPORT_DESCRIPTOR_node_exe 000000018007061c     node:node.exe
 0002:0001963c       __NULL_DELAY_IMPORT_DESCRIPTOR 000000018007063c     node:node.exe
 0002:000198c8       \177node_NULL_THUNK_DATA_DLN 00000001800708c8     node:node.exe
 0002:0001ae28       \177node_NULL_THUNK_DATA_DLB 0000000180071e28     node:node.exe
 0002:0001f074       __IMPORT_DESCRIPTOR_KERNEL32 0000000180076074     kernel32:KERNEL32.dll
 0002:0001f088       __NULL_IMPORT_DESCRIPTOR   0000000180076088     kernel32:KERNEL32.dll
 0003:00000070       _fltused                   0000000180077070     LIBCMT:fpinit.obj
 0003:00000074       _ldused                    0000000180077074     LIBCMT:fpinit.obj
 0003:00000078       __security_cookie          0000000180077078     LIBCMT:gs_cookie.obj
 0003:00000080       __security_cookie_complement 0000000180077080     LIBCMT:gs_cookie.obj
 0003:00000088       __isa_available            0000000180077088     LIBCMT:cpu_disp.obj
 0003:0000008c       __isa_enabled              000000018007708c     LIBCMT:cpu_disp.obj
 0003:00000090       __abort_behavior           0000000180077090     LIBCMT:abort.obj
 0003:000000a0       _iob                       00000001800770a0     LIBCMT:_file.obj
 0003:00000470       _mbctype                   0000000180077470     LIBCMT:mbctype.obj
 0003:00000580       _mbcasemap                 0000000180077580     LIBCMT:mbctype.obj
 0003:00000680       __initialmbcinfo           0000000180077680     LIBCMT:mbctype.obj
 0003:000009a0       __ptmbcinfo                00000001800779a0     LIBCMT:mbctype.obj
 0003:000009a8       __flsindex                 00000001800779a8     LIBCMT:tidtable.obj
 0003:00000b20       __mb_cur_max               0000000180077b20     LIBCMT:nlsdata.obj
 0003:00000b24       __wclocalestr              0000000180077b24     LIBCMT:nlsdata.obj
 0003:00000b30       __lc_time_c                0000000180077b30     LIBCMT:nlsdata.obj
 0003:00000df0       __ptlocinfo                0000000180077df0     LIBCMT:nlsdata.obj
 0003:00000e00       __initiallocinfo           0000000180077e00     LIBCMT:nlsdata.obj
 0003:00000f58       __globallocalestatus       0000000180077f58     LIBCMT:glstatus.obj
 0003:00000f70       __badioinfo                0000000180077f70     LIBCMT:ioinit.obj
 0003:00000fd0       _cfltcvt_tab               0000000180077fd0     LIBCMT:cmiscdat.obj
 0003:00001430       _matherr_flag              0000000180078430     LIBCMT:matherr.obj
 0003:00001440       __lconv_c                  0000000180078440     LIBCMT:lconv.obj
 0003:000014d8       __lconv_static_decimal     00000001800784d8     LIBCMT:lconv.obj
 0003:000014dc       __lconv_static_W_decimal   00000001800784dc     LIBCMT:lconv.obj
 0003:000014e0       __lconv                    00000001800784e0     LIBCMT:lconv.obj
 0003:000014e8       _pctype                    00000001800784e8     LIBCMT:ctype.obj
 0003:000014f0       _pwctype                   00000001800784f0     LIBCMT:ctype.obj
 0003:00001500       __nullstring               0000000180078500     LIBCMT:output.obj
 0003:00001508       __wnullstring              0000000180078508     LIBCMT:output.obj
 0003:00001510       _d_inf                     0000000180078510     LIBCMT:util.obj
 0003:00001518       _d_ind                     0000000180078518     LIBCMT:util.obj
 0003:00001520       _d_max                     0000000180078520     LIBCMT:util.obj
 0003:00001528       _d_min                     0000000180078528     LIBCMT:util.obj
 0003:00001530       _d_mzero                   0000000180078530     LIBCMT:util.obj
 0003:00001568       _confh                     0000000180078568     LIBCMT:initcon.obj
 0003:00001570       _pow10pos                  0000000180078570     LIBCMT:constpow.obj
 0003:000016d0       _pow10neg                  00000001800786d0     LIBCMT:constpow.obj
 0003:00001830       _HUGE                      0000000180078830     LIBCMT:huge.obj
 0003:00001880       __pfnDliNotifyHook2        0000000180078880     win_delay_load_hook.obj
 0003:000018d0       ??_R0?AVbad_alloc@std@@@8  00000001800788d0     libcpmt:xthrow.obj
 0003:000018f8       ??_R0?AVexception@std@@@8  00000001800788f8     libcpmt:xthrow.obj
 0003:00001920       ??_R0?AVtype_info@@@8      0000000180078920     LIBCMT:typinfo.obj
 0003:00001940       __imp_?Length@Buffer@node@@YA_KV?$Local@VObject@v8@@@v8@@@Z 0000000180078940     node:node.exe
 0003:00001948       __imp_?Data@Buffer@node@@YAPEADV?$Local@VObject@v8@@@v8@@@Z 0000000180078948     node:node.exe
 0003:00001950       __imp_?Copy@Buffer@node@@YA?AV?$MaybeLocal@VObject@v8@@@v8@@PEAVIsolate@4@PEBD_K@Z 0000000180078950     node:node.exe
 0003:00001958       __imp_node_module_register 0000000180078958     node:node.exe
 0003:00001960       __imp_?Initialize@Locker@v8@@AEAAXPEAVIsolate@2@@Z 0000000180078960     node:node.exe
 0003:00001968       __imp_?GetId@UnboundScript@v8@@QEAAHXZ 0000000180078968     node:node.exe
 0003:00001970       __imp_?GetUnboundScript@Script@v8@@QEAA?AV?$Local@VUnboundScript@v8@@@2@XZ 0000000180078970     node:node.exe
 0003:00001978       __imp_?ToLocalEmpty@V8@v8@@CAXXZ 0000000180078978     node:node.exe
 0003:00001980       __imp_?ClearWeak@V8@v8@@CAPEAXPEAPEAVObject@internal@2@@Z 0000000180078980     node:node.exe
 0003:00001988       __imp_?MakeWeak@V8@v8@@CAXPEAPEAVObject@internal@2@PEAXP6AXAEBV?$WeakCallbackData@VValue@v8@@X@2@@Z@Z 0000000180078988     node:node.exe
 0003:00001990       __imp_?DisposeGlobal@V8@v8@@CAXPEAPEAVObject@internal@2@@Z 0000000180078990     node:node.exe
 0003:00001998       __imp_?GlobalizeReference@V8@v8@@CAPEAPEAVObject@internal@2@PEAVIsolate@42@PEAPEAV342@@Z 0000000180078998     node:node.exe
 0003:000019a0       __imp_?Escape@EscapableHandleScope@v8@@AEAAPEAPEAVObject@internal@2@PEAPEAV342@@Z 00000001800789a0     node:node.exe
 0003:000019a8       __imp_??0EscapableHandleScope@v8@@QEAA@PEAVIsolate@1@@Z 00000001800789a8     node:node.exe
 0003:000019b0       __imp_?Int32Value@Value@v8@@QEBAHXZ 00000001800789b0     node:node.exe
 0003:000019b8       __imp_?ToInt32@Value@v8@@QEBA?AV?$MaybeLocal@VInt32@v8@@@2@V?$Local@VContext@v8@@@2@@Z 00000001800789b8     node:node.exe
 0003:000019c0       __imp_?ToUint32@Value@v8@@QEBA?AV?$MaybeLocal@VUint32@v8@@@2@V?$Local@VContext@v8@@@2@@Z 00000001800789c0     node:node.exe
 0003:000019c8       __imp_?ToInteger@Value@v8@@QEBA?AV?$MaybeLocal@VInteger@v8@@@2@V?$Local@VContext@v8@@@2@@Z 00000001800789c8     node:node.exe
 0003:000019d0       __imp_?ToObject@Value@v8@@QEBA?AV?$MaybeLocal@VObject@v8@@@2@V?$Local@VContext@v8@@@2@@Z 00000001800789d0     node:node.exe
 0003:000019d8       __imp_?ToDetailString@Value@v8@@QEBA?AV?$MaybeLocal@VString@v8@@@2@V?$Local@VContext@v8@@@2@@Z 00000001800789d8     node:node.exe
 0003:000019e0       __imp_?ToString@Value@v8@@QEBA?AV?$MaybeLocal@VString@v8@@@2@V?$Local@VContext@v8@@@2@@Z 00000001800789e0     node:node.exe
 0003:000019e8       __imp_?ToNumber@Value@v8@@QEBA?AV?$MaybeLocal@VNumber@v8@@@2@V?$Local@VContext@v8@@@2@@Z 00000001800789e8     node:node.exe
 0003:000019f0       __imp_?ToBoolean@Value@v8@@QEBA?AV?$MaybeLocal@VBoolean@v8@@@2@V?$Local@VContext@v8@@@2@@Z 00000001800789f0     node:node.exe
 0003:000019f8       __imp_?IsNumber@Value@v8@@QEBA_NXZ 00000001800789f8     node:node.exe
 0003:00001a00       __imp_?IsObject@Value@v8@@QEBA_NXZ 0000000180078a00     node:node.exe
 0003:00001a08       __imp_?SetClassName@FunctionTemplate@v8@@QEAAXV?$Local@VString@v8@@@2@@Z 0000000180078a08     node:node.exe
 0003:00001a10       __imp_?PrototypeTemplate@FunctionTemplate@v8@@QEAA?AV?$Local@VObjectTemplate@v8@@@2@XZ 0000000180078a10     node:node.exe
 0003:00001a18       __imp_?InstanceTemplate@FunctionTemplate@v8@@QEAA?AV?$Local@VObjectTemplate@v8@@@2@XZ 0000000180078a18     node:node.exe
 0003:00001a20       __imp_?GetFunction@FunctionTemplate@v8@@QEAA?AV?$Local@VFunction@v8@@@2@XZ 0000000180078a20     node:node.exe
 0003:00001a28       __imp_?New@FunctionTemplate@v8@@SA?AV?$Local@VFunctionTemplate@v8@@@2@PEAVIsolate@2@P6AXAEBV?$FunctionCallbackInfo@VValue@v8@@@2@@ZV?$Local@VValue@v8@@@2@V?$Local@VSignature@v8@@@2@H@Z 0000000180078a28     node:node.exe
 0003:00001a30       __imp_?TypeError@Exception@v8@@SA?AV?$Local@VValue@v8@@@2@V?$Local@VString@v8@@@2@@Z 0000000180078a30     node:node.exe
 0003:00001a38       __imp_?NewFromUtf8@String@v8@@SA?AV?$MaybeLocal@VString@v8@@@2@PEAVIsolate@2@PEBDW4NewStringType@2@H@Z 0000000180078a38     node:node.exe
 0003:00001a40       __imp_?CreateHandle@HandleScope@v8@@KAPEAPEAVObject@internal@2@PEAVIsolate@42@PEAV342@@Z 0000000180078a40     node:node.exe
 0003:00001a48       __imp_?CreateHandle@HandleScope@v8@@CAPEAPEAVObject@internal@2@PEAVHeapObject@42@PEAV342@@Z 0000000180078a48     node:node.exe
 0003:00001a50       __imp_??1HandleScope@v8@@QEAA@XZ 0000000180078a50     node:node.exe
 0003:00001a58       __imp_??0HandleScope@v8@@QEAA@PEAVIsolate@1@@Z 0000000180078a58     node:node.exe
 0003:00001a60       __imp_?SlowGetAlignedPointerFromInternalField@Object@v8@@AEAAPEAXH@Z 0000000180078a60     node:node.exe
 0003:00001a68       __imp_?SlowGetInternalField@Object@v8@@AEAA?AV?$Local@VValue@v8@@@2@H@Z 0000000180078a68     node:node.exe
 0003:00001a70       __imp_?SetAlignedPointerInInternalField@Object@v8@@QEAAXHPEAX@Z 0000000180078a70     node:node.exe
 0003:00001a78       __imp_?SetInternalField@Object@v8@@QEAAXHV?$Local@VValue@v8@@@2@@Z 0000000180078a78     node:node.exe
 0003:00001a80       __imp_?InternalFieldCount@Object@v8@@QEAAHXZ 0000000180078a80     node:node.exe
 0003:00001a88       __imp_?Set@Object@v8@@QEAA_NV?$Local@VValue@v8@@@2@0@Z 0000000180078a88     node:node.exe
 0003:00001a90       __imp_?Initialize@Unlocker@v8@@AEAAXPEAVIsolate@2@@Z 0000000180078a90     node:node.exe
 0003:00001a98       __imp_?Set@Template@v8@@QEAAXV?$Local@VName@v8@@@2@V?$Local@VData@v8@@@2@W4PropertyAttribute@2@@Z 0000000180078a98     node:node.exe
 0003:00001aa0       __imp_?SetInternalFieldCount@ObjectTemplate@v8@@QEAAXH@Z 0000000180078aa0     node:node.exe
 0003:00001aa8       __imp_?SetHandler@ObjectTemplate@v8@@QEAAXAEBUIndexedPropertyHandlerConfiguration@2@@Z 0000000180078aa8     node:node.exe
 0003:00001ab0       __imp_?NewInstance@ObjectTemplate@v8@@QEAA?AV?$MaybeLocal@VObject@v8@@@2@V?$Local@VContext@v8@@@2@@Z 0000000180078ab0     node:node.exe
 0003:00001ab8       __imp_?New@ObjectTemplate@v8@@SA?AV?$Local@VObjectTemplate@v8@@@2@PEAVIsolate@2@V?$Local@VFunctionTemplate@v8@@@2@@Z 0000000180078ab8     node:node.exe
 0003:00001ac0       __imp_?New@Integer@v8@@SA?AV?$Local@VInteger@v8@@@2@PEAVIsolate@2@H@Z 0000000180078ac0     node:node.exe
 0003:00001ac8       __imp_?NewInstance@Function@v8@@QEBA?AV?$MaybeLocal@VObject@v8@@@2@V?$Local@VContext@v8@@@2@HQEAV?$Local@VValue@v8@@@2@@Z 0000000180078ac8     node:node.exe
 0003:00001ad0       __imp_?CollectAllGarbage@Isolate@v8@@AEAAXPEBD@Z 0000000180078ad0     node:node.exe
 0003:00001ad8       __imp_?VisitHandlesForPartialDependence@Isolate@v8@@QEAAXPEAVPersistentHandleVisitor@2@@Z 0000000180078ad8     node:node.exe
 0003:00001ae0       __imp_?VisitHandlesWithClassIds@Isolate@v8@@QEAAXPEAVPersistentHandleVisitor@2@@Z 0000000180078ae0     node:node.exe
 0003:00001ae8       __imp_?VisitExternalResources@Isolate@v8@@QEAAXPEAVExternalResourceVisitor@2@@Z 0000000180078ae8     node:node.exe
 0003:00001af0       __imp_?RemoveMemoryAllocationCallback@Isolate@v8@@QEAAXP6AXW4ObjectSpace@2@W4AllocationAction@2@H@Z@Z 0000000180078af0     node:node.exe
 0003:00001af8       __imp_?AddMemoryAllocationCallback@Isolate@v8@@QEAAXP6AXW4ObjectSpace@2@W4AllocationAction@2@H@Z01@Z 0000000180078af8     node:node.exe
 0003:00001b00       __imp_?SetCaptureStackTraceForUncaughtExceptions@Isolate@v8@@QEAAX_NHW4StackTraceOptions@StackTrace@2@@Z 0000000180078b00     node:node.exe
 0003:00001b08       __imp_?SetFailedAccessCheckCallbackFunction@Isolate@v8@@QEAAXP6AXV?$Local@VObject@v8@@@2@W4AccessType@2@V?$Local@VValue@v8@@@2@@Z@Z 0000000180078b08     node:node.exe
 0003:00001b10       __imp_?RemoveMessageListeners@Isolate@v8@@QEAAXP6AXV?$Local@VMessage@v8@@@2@V?$Local@VValue@v8@@@2@@Z@Z 0000000180078b10     node:node.exe
 0003:00001b18       __imp_?AddMessageListener@Isolate@v8@@QEAA_NP6AXV?$Local@VMessage@v8@@@2@V?$Local@VValue@v8@@@2@@Z1@Z 0000000180078b18     node:node.exe
 0003:00001b20       __imp_?IsDead@Isolate@v8@@QEAA_NXZ 0000000180078b20     node:node.exe
 0003:00001b28       __imp_?SetAllowCodeGenerationFromStringsCallback@Isolate@v8@@QEAAXP6A_NV?$Local@VContext@v8@@@2@@Z@Z 0000000180078b28     node:node.exe
 0003:00001b30       __imp_?SetFatalErrorHandler@Isolate@v8@@QEAAXP6AXPEBD0@Z@Z 0000000180078b30     node:node.exe
 0003:00001b38       __imp_?CancelTerminateExecution@Isolate@v8@@QEAAXXZ 0000000180078b38     node:node.exe
 0003:00001b40       __imp_?IsExecutionTerminating@Isolate@v8@@QEAA_NXZ 0000000180078b40     node:node.exe
 0003:00001b48       __imp_?TerminateExecution@Isolate@v8@@QEAAXXZ 0000000180078b48     node:node.exe
 0003:00001b50       __imp_?RemoveGCEpilogueCallback@Isolate@v8@@QEAAXP6AXPEAV12@W4GCType@2@W4GCCallbackFlags@2@@Z@Z 0000000180078b50     node:node.exe
 0003:00001b58       __imp_?RemoveGCPrologueCallback@Isolate@v8@@QEAAXP6AXPEAV12@W4GCType@2@W4GCCallbackFlags@2@@Z@Z 0000000180078b58     node:node.exe
 0003:00001b60       __imp_?ThrowException@Isolate@v8@@QEAA?AV?$Local@VValue@v8@@@2@V32@@Z 0000000180078b60     node:node.exe
 0003:00001b68       __imp_?GetCurrentContext@Isolate@v8@@QEAA?AV?$Local@VContext@v8@@@2@XZ 0000000180078b68     node:node.exe
 0003:00001b70       __imp_?Exit@Isolate@v8@@QEAAXXZ 0000000180078b70     node:node.exe
 0003:00001b78       __imp_?Enter@Isolate@v8@@QEAAXXZ 0000000180078b78     node:node.exe
 0003:00001b80       __imp_?GetCurrent@Isolate@v8@@SAPEAV12@XZ 0000000180078b80     node:node.exe
 0003:00001b88       __imp_?ResetToBookmark@ExternalSourceStream@ScriptCompiler@v8@@UEAAXXZ 0000000180078b88     node:node.exe
 0003:00001b90       __imp_?SetBookmark@ExternalSourceStream@ScriptCompiler@v8@@UEAA_NXZ 0000000180078b90     node:node.exe
 0003:00001b98       __imp_?Value@External@v8@@QEBAPEAXXZ 0000000180078b98     node:node.exe
 0003:00001ba0       __imp_?New@External@v8@@SA?AV?$Local@VExternal@v8@@@2@PEAVIsolate@2@PEAX@Z 0000000180078ba0     node:node.exe
 0003:00001ba8       \177node_NULL_THUNK_DATA_DLA 0000000180078ba8     node:node.exe
 0003:00001bc0       __hmod__node_exe           0000000180078bc0     node:node.exe
 0003:00001bd8       _aenvptr                   0000000180078bd8     LIBCMT:dllcrt0.obj
 0003:00001be0       _wenvptr                   0000000180078be0     LIBCMT:dllcrt0.obj
 0003:00002164       __fastflag                 0000000180079164     LIBCMT:fpinit.obj
 0003:00002168       __favor                    0000000180079168     LIBCMT:cpu_disp.obj
 0003:00002170       __pInvalidArgHandler       0000000180079170     LIBCMT:invarg.obj
 0003:00002178       _C_Exit_Done               0000000180079178     LIBCMT:crt0dat.obj
 0003:0000217c       __argc                     000000018007917c     LIBCMT:crt0dat.obj
 0003:00002180       __argv                     0000000180079180     LIBCMT:crt0dat.obj
 0003:00002188       __wargv                    0000000180079188     LIBCMT:crt0dat.obj
 0003:00002190       _environ                   0000000180079190     LIBCMT:crt0dat.obj
 0003:00002198       _wenviron                  0000000180079198     LIBCMT:crt0dat.obj
 0003:000021a0       _pgmptr                    00000001800791a0     LIBCMT:crt0dat.obj
 0003:000021a8       _wpgmptr                   00000001800791a8     LIBCMT:crt0dat.obj
 0003:000021b0       _umaskval                  00000001800791b0     LIBCMT:crt0dat.obj
 0003:000021b4       _exitflag                  00000001800791b4     LIBCMT:crt0dat.obj
 0003:000021b8       _C_Termination_Done        00000001800791b8     LIBCMT:crt0dat.obj
 0003:000021c0       __winitenv                 00000001800791c0     LIBCMT:crt0dat.obj
 0003:000021c8       __initenv                  00000001800791c8     LIBCMT:crt0dat.obj
 0003:000021d0       __error_mode               00000001800791d0     LIBCMT:errmode.obj
 0003:000021d4       _cflush                    00000001800791d4     LIBCMT:_file.obj
 0003:00002230       __app_type                 0000000180079230     LIBCMT:crt0msg.obj
 0003:00002868       _maxwait                   0000000180079868     LIBCMT:crtheap.obj
 0003:00002870       __pPurecall                0000000180079870     LIBCMT:inithelp.obj
 0003:00002878       ?_pnhHeap@@3P6AH_K@ZEA     0000000180079878     LIBCMT:handler.obj
 0003:00002880       __mbcodepage               0000000180079880     LIBCMT:mbctype.obj
 0003:00002884       __ismbcodepage             0000000180079884     LIBCMT:mbctype.obj
 0003:00002888       __mbulinfo                 0000000180079888     LIBCMT:mbctype.obj
 0003:00002898       __mblocalename             0000000180079898     LIBCMT:mbctype.obj
 0003:000028a4       __locale_changed           00000001800798a4     LIBCMT:wsetloca.obj
 0003:000028a8       _crtheap                   00000001800798a8     LIBCMT:heapinit.obj
 0003:000028b0       __pioinfo                  00000001800798b0     LIBCMT:ioinit.obj
 0003:00002bb8       _newmode                   0000000180079bb8     LIBCMT:_newmode.obj
 0003:00002bc0       ?g_OutOfMemoryExceptionCallback@@3P6APEAXXZEA 0000000180079bc0     LIBCMT:frame.obj
 0003:00002bc8       ?__pInconsistency@@3P6AXXZEA 0000000180079bc8     LIBCMT:hooks.obj
 0003:00002e18       _stdbuf                    0000000180079e18     LIBCMT:_sftbuf.obj
 0003:00002e30       __lconv_static_null        0000000180079e30     LIBCMT:lconv.obj
 0003:00002e34       __lconv_static_W_null      0000000180079e34     LIBCMT:lconv.obj
 0003:00002e38       ?m_pGetParameter@UnDecorator@@0P6APEADJ@ZEA 0000000180079e38     LIBCMT:undname.obj
 0003:00002e40       ?pArgList@UnDecorator@@0PEAVReplicator@@EA 0000000180079e40     LIBCMT:undname.obj
 0003:00002e48       ?pZNameList@UnDecorator@@0PEAVReplicator@@EA 0000000180079e48     LIBCMT:undname.obj
 0003:00002e50       ?pTemplateArgList@UnDecorator@@0PEAVReplicator@@EA 0000000180079e50     LIBCMT:undname.obj
 0003:00002e58       ?gName@UnDecorator@@0PEBDEB 0000000180079e58     LIBCMT:undname.obj
 0003:00002e60       ?name@UnDecorator@@0PEBDEB 0000000180079e60     LIBCMT:undname.obj
 0003:00002e68       ?outputString@UnDecorator@@0PEADEA 0000000180079e68     LIBCMT:undname.obj
 0003:00002e70       ?maxStringLength@UnDecorator@@0HA 0000000180079e70     LIBCMT:undname.obj
 0003:00002e74       ?disableFlags@UnDecorator@@0KA 0000000180079e74     LIBCMT:undname.obj
 0003:00002e78       ?fExplicitTemplateParams@UnDecorator@@0_NA 0000000180079e78     LIBCMT:undname.obj
 0003:00002e79       ?fGetTemplateArgumentList@UnDecorator@@0_NA 0000000180079e79     LIBCMT:undname.obj
 0003:00002ea8       _outputformat              0000000180079ea8     LIBCMT:outputformat.obj
 0003:00002eb8       __pfnDliFailureHook2       0000000180079eb8     DelayImp:delayhk1.obj
 0003:00002ec0       ?id@?$num_put@_WV?$back_insert_iterator@V?$basic_string@_WU?$char_traits@_W@std@@V?$allocator@_W@2@@std@@@std@@@std@@2V0locale@2@A 0000000180079ec0     node-opus.obj
 0003:00002ec8       ?_System_object@?$_Error_objects@H@std@@2V_System_error_category@2@A 0000000180079ec8     node-opus.obj
 0003:00002ed0       ?id@?$numpunct@_W@std@@2V0locale@2@A 0000000180079ed0     node-opus.obj
 0003:00002ed8       ?id@?$num_put@DV?$back_insert_iterator@V?$basic_string@DU?$char_traits@D@std@@V?$allocator@D@2@@std@@@std@@@std@@2V0locale@2@A 0000000180079ed8     node-opus.obj
 0003:00002ee0       ?_Iostream_object@?$_Error_objects@H@std@@2V_Iostream_error_category@2@A 0000000180079ee0     node-opus.obj
 0003:00002ef0       ?_Generic_object@?$_Error_objects@H@std@@2V_Generic_error_category@2@A 0000000180079ef0     node-opus.obj
 0003:00002ef8       ?id@?$numpunct@D@std@@2V0locale@2@A 0000000180079ef8     node-opus.obj
 0003:00002f00       __fma3_is_available        0000000180079f00     LIBCMT:fma3_available.obj
 0003:00002f04       __use_fma3_lib             0000000180079f04     LIBCMT:fma3_available.obj
 0003:00002f08       _debugger_hook_dummy       0000000180079f08     <common>
 0003:00002f20       encodedKERNEL32Functions   0000000180079f20     <common>
 0003:00003028       _nhandle                   000000018007a028     <common>
 0003:00003030       __piob                     000000018007a030     <common>
 0003:00003038       _nstream                   000000018007a038     <common>
 0003:00003040       _bufin                     000000018007a040     <common>
 0003:00004040       __dyn_tls_init_callback    000000018007b040     <common>
 0003:00004048       __onexitend                000000018007b048     <common>
 0003:00004050       __onexitbegin              000000018007b050     <common>
 0003:00004058       __mbctype_initialized      000000018007b058     <common>
 0003:0000405c       __env_initialized          000000018007b05c     <common>
 0003:00004060       _acmdln                    000000018007b060     <common>

 entry point at        0001:00044a9c

 Static symbols

 0000:fff7f000       .debug$S                   0000000180000000     kernel32:KERNEL32.dll
 0000:fff7f000       .debug$S                   0000000180000000     node:node.exe
 0000:fff7f000       .debug$S                   0000000180000000     node:node.exe
 0000:fff7f000       .debug$S                   0000000180000000     node:node.exe
 0000:fff7f000       .debug$S                   0000000180000000     node:node.exe
 0000:fff7f000       .debug$S                   0000000180000000     node:node.exe
 0000:fff7f000       .debug$S                   0000000180000000     node:node.exe
 0000:fff7f000       .debug$S                   0000000180000000     node:node.exe
 0000:fff7f000       .debug$S                   0000000180000000     node:node.exe
 0000:fff7f000       .debug$S                   0000000180000000     node:node.exe
 0000:fff7f000       .debug$S                   0000000180000000     node:node.exe
 0000:fff7f000       .debug$S                   0000000180000000     node:node.exe
 0000:fff7f000       .debug$S                   0000000180000000     node:node.exe
 0000:fff7f000       .debug$S                   0000000180000000     node:node.exe
 0000:fff7f000       .debug$S                   0000000180000000     node:node.exe
 0000:fff7f000       .debug$S                   0000000180000000     node:node.exe
 0000:fff7f000       .debug$S                   0000000180000000     node:node.exe
 0000:fff7f000       .debug$S                   0000000180000000     node:node.exe
 0000:fff7f000       .debug$S                   0000000180000000     node:node.exe
 0000:fff7f000       .debug$S                   0000000180000000     node:node.exe
 0000:fff7f000       .debug$S                   0000000180000000     node:node.exe
 0000:fff7f000       .debug$S                   0000000180000000     node:node.exe
 0000:fff7f000       .debug$S                   0000000180000000     node:node.exe
 0000:fff7f000       .debug$S                   0000000180000000     node:node.exe
 0000:fff7f000       .debug$S                   0000000180000000     node:node.exe
 0000:fff7f000       .debug$S                   0000000180000000     node:node.exe
 0000:fff7f000       .debug$S                   0000000180000000     node:node.exe
 0000:fff7f000       .debug$S                   0000000180000000     node:node.exe
 0000:fff7f000       .debug$S                   0000000180000000     node:node.exe
 0000:fff7f000       .debug$S                   0000000180000000     node:node.exe
 0000:fff7f000       .debug$S                   0000000180000000     node:node.exe
 0000:fff7f000       .debug$S                   0000000180000000     node:node.exe
 0000:fff7f000       .debug$S                   0000000180000000     node:node.exe
 0000:fff7f000       .debug$S                   0000000180000000     node:node.exe
 0000:fff7f000       .debug$S                   0000000180000000     node:node.exe
 0000:fff7f000       .debug$S                   0000000180000000     node:node.exe
 0000:fff7f000       .debug$S                   0000000180000000     node:node.exe
 0000:fff7f000       .debug$S                   0000000180000000     node:node.exe
 0000:fff7f000       .debug$S                   0000000180000000     node:node.exe
 0000:fff7f000       .debug$S                   0000000180000000     node:node.exe
 0000:fff7f000       .debug$S                   0000000180000000     node:node.exe
 0000:fff7f000       .debug$S                   0000000180000000     node:node.exe
 0000:fff7f000       .debug$S                   0000000180000000     node:node.exe
 0000:fff7f000       .debug$S                   0000000180000000     node:node.exe
 0000:fff7f000       .debug$S                   0000000180000000     node:node.exe
 0000:fff7f000       .debug$S                   0000000180000000     node:node.exe
 0000:fff7f000       .debug$S                   0000000180000000     node:node.exe
 0000:fff7f000       .debug$S                   0000000180000000     node:node.exe
 0000:fff7f000       .debug$S                   0000000180000000     node:node.exe
 0000:fff7f000       .debug$S                   0000000180000000     node:node.exe
 0000:fff7f000       .debug$S                   0000000180000000     node:node.exe
 0000:fff7f000       .debug$S                   0000000180000000     node:node.exe
 0000:fff7f000       .debug$S                   0000000180000000     node:node.exe
 0000:fff7f000       .debug$S                   0000000180000000     node:node.exe
 0000:fff7f000       .debug$S                   0000000180000000     node:node.exe
 0000:fff7f000       .debug$S                   0000000180000000     node:node.exe
 0000:fff7f000       .debug$S                   0000000180000000     node:node.exe
 0000:fff7f000       .debug$S                   0000000180000000     node:node.exe
 0000:fff7f000       .debug$S                   0000000180000000     node:node.exe
 0000:fff7f000       .debug$S                   0000000180000000     node:node.exe
 0000:fff7f000       .debug$S                   0000000180000000     node:node.exe
 0000:fff7f000       .debug$S                   0000000180000000     node:node.exe
 0000:fff7f000       .debug$S                   0000000180000000     node:node.exe
 0000:fff7f000       .debug$S                   0000000180000000     node:node.exe
 0000:fff7f000       .debug$S                   0000000180000000     node:node.exe
 0000:fff7f000       .debug$S                   0000000180000000     node:node.exe
 0000:fff7f000       .debug$S                   0000000180000000     node:node.exe
 0000:fff7f000       .debug$S                   0000000180000000     node:node.exe
 0000:fff7f000       .debug$S                   0000000180000000     node:node.exe
 0000:fff7f000       .debug$S                   0000000180000000     node:node.exe
 0000:fff7f000       .debug$S                   0000000180000000     node:node.exe
 0000:fff7f000       .debug$S                   0000000180000000     node:node.exe
 0000:fff7f000       .debug$S                   0000000180000000     node:node.exe
 0000:fff7f000       .debug$S                   0000000180000000     node:node.exe
 0000:fff7f000       .debug$S                   0000000180000000     node:node.exe
 0000:fff7f000       .debug$S                   0000000180000000     node:node.exe
 0000:fff7f000       .debug$S                   0000000180000000     node:node.exe
 0000:fff7f000       .debug$S                   0000000180000000     kernel32:KERNEL32.dll
 0000:fff7f000       .debug$S                   0000000180000000     kernel32:KERNEL32.dll
 0000:fff7f000       .debug$S                   0000000180000000     kernel32:KERNEL32.dll
 0000:fff7f000       .debug$S                   0000000180000000     kernel32:KERNEL32.dll
 0000:fff7f000       .debug$S                   0000000180000000     kernel32:KERNEL32.dll
 0000:fff7f000       .debug$S                   0000000180000000     kernel32:KERNEL32.dll
 0000:fff7f000       .debug$S                   0000000180000000     kernel32:KERNEL32.dll
 0000:fff7f000       .debug$S                   0000000180000000     kernel32:KERNEL32.dll
 0000:fff7f000       .debug$S                   0000000180000000     kernel32:KERNEL32.dll
 0000:fff7f000       .debug$S                   0000000180000000     kernel32:KERNEL32.dll
 0000:fff7f000       .debug$S                   0000000180000000     kernel32:KERNEL32.dll
 0000:fff7f000       .debug$S                   0000000180000000     kernel32:KERNEL32.dll
 0000:fff7f000       .debug$S                   0000000180000000     kernel32:KERNEL32.dll
 0000:fff7f000       .debug$S                   0000000180000000     kernel32:KERNEL32.dll
 0000:fff7f000       .debug$S                   0000000180000000     kernel32:KERNEL32.dll
 0000:fff7f000       .debug$S                   0000000180000000     kernel32:KERNEL32.dll
 0000:fff7f000       .debug$S                   0000000180000000     kernel32:KERNEL32.dll
 0000:fff7f000       .debug$S                   0000000180000000     kernel32:KERNEL32.dll
 0000:fff7f000       .debug$S                   0000000180000000     kernel32:KERNEL32.dll
 0000:fff7f000       .debug$S                   0000000180000000     kernel32:KERNEL32.dll
 0000:fff7f000       .debug$S                   0000000180000000     kernel32:KERNEL32.dll
 0000:fff7f000       .debug$S                   0000000180000000     kernel32:KERNEL32.dll
 0000:fff7f000       .debug$S                   0000000180000000     kernel32:KERNEL32.dll
 0000:fff7f000       .debug$S                   0000000180000000     kernel32:KERNEL32.dll
 0000:fff7f000       .debug$S                   0000000180000000     kernel32:KERNEL32.dll
 0000:fff7f000       .debug$S                   0000000180000000     kernel32:KERNEL32.dll
 0000:fff7f000       .debug$S                   0000000180000000     kernel32:KERNEL32.dll
 0000:fff7f000       .debug$S                   0000000180000000     kernel32:KERNEL32.dll
 0000:fff7f000       .debug$S                   0000000180000000     kernel32:KERNEL32.dll
 0000:fff7f000       .debug$S                   0000000180000000     kernel32:KERNEL32.dll
 0000:fff7f000       .debug$S                   0000000180000000     kernel32:KERNEL32.dll
 0000:fff7f000       .debug$S                   0000000180000000     kernel32:KERNEL32.dll
 0000:fff7f000       .debug$S                   0000000180000000     kernel32:KERNEL32.dll
 0000:fff7f000       .debug$S                   0000000180000000     kernel32:KERNEL32.dll
 0000:fff7f000       .debug$S                   0000000180000000     kernel32:KERNEL32.dll
 0000:fff7f000       .debug$S                   0000000180000000     kernel32:KERNEL32.dll
 0000:fff7f000       .debug$S                   0000000180000000     kernel32:KERNEL32.dll
 0000:fff7f000       .debug$S                   0000000180000000     kernel32:KERNEL32.dll
 0000:fff7f000       .debug$S                   0000000180000000     kernel32:KERNEL32.dll
 0000:fff7f000       .debug$S                   0000000180000000     kernel32:KERNEL32.dll
 0000:fff7f000       .debug$S                   0000000180000000     kernel32:KERNEL32.dll
 0000:fff7f000       .debug$S                   0000000180000000     kernel32:KERNEL32.dll
 0000:fff7f000       .debug$S                   0000000180000000     kernel32:KERNEL32.dll
 0000:fff7f000       .debug$S                   0000000180000000     kernel32:KERNEL32.dll
 0000:fff7f000       .debug$S                   0000000180000000     kernel32:KERNEL32.dll
 0000:fff7f000       .debug$S                   0000000180000000     kernel32:KERNEL32.dll
 0000:fff7f000       .debug$S                   0000000180000000     kernel32:KERNEL32.dll
 0000:fff7f000       .debug$S                   0000000180000000     kernel32:KERNEL32.dll
 0000:fff7f000       .debug$S                   0000000180000000     kernel32:KERNEL32.dll
 0000:fff7f000       .debug$S                   0000000180000000     kernel32:KERNEL32.dll
 0000:fff7f000       .debug$S                   0000000180000000     kernel32:KERNEL32.dll
 0000:fff7f000       .debug$S                   0000000180000000     kernel32:KERNEL32.dll
 0000:fff7f000       .debug$S                   0000000180000000     kernel32:KERNEL32.dll
 0000:fff7f000       .debug$S                   0000000180000000     kernel32:KERNEL32.dll
 0000:fff7f000       .debug$S                   0000000180000000     kernel32:KERNEL32.dll
 0000:fff7f000       .debug$S                   0000000180000000     kernel32:KERNEL32.dll
 0000:fff7f000       .debug$S                   0000000180000000     kernel32:KERNEL32.dll
 0000:fff7f000       .debug$S                   0000000180000000     node:node.exe
 0000:fff7f000       .debug$S                   0000000180000000     kernel32:KERNEL32.dll
 0000:fff7f000       .debug$S                   0000000180000000     kernel32:KERNEL32.dll
 0000:fff7f000       .debug$S                   0000000180000000     kernel32:KERNEL32.dll
 0000:fff7f000       .debug$S                   0000000180000000     kernel32:KERNEL32.dll
 0000:fff7f000       .debug$S                   0000000180000000     kernel32:KERNEL32.dll
 0000:fff7f000       .debug$S                   0000000180000000     kernel32:KERNEL32.dll
 0000:fff7f000       .debug$S                   0000000180000000     kernel32:KERNEL32.dll
 0000:fff7f000       .debug$S                   0000000180000000     kernel32:KERNEL32.dll
 0000:fff7f000       .debug$S                   0000000180000000     kernel32:KERNEL32.dll
 0000:fff7f000       .debug$S                   0000000180000000     kernel32:KERNEL32.dll
 0000:fff7f000       .debug$S                   0000000180000000     kernel32:KERNEL32.dll
 0000:fff7f000       .debug$S                   0000000180000000     kernel32:KERNEL32.dll
 0000:fff7f000       .debug$S                   0000000180000000     kernel32:KERNEL32.dll
 0000:fff7f000       .debug$S                   0000000180000000     kernel32:KERNEL32.dll
 0000:fff7f000       .debug$S                   0000000180000000     kernel32:KERNEL32.dll
 0000:fff7f000       .debug$S                   0000000180000000     kernel32:KERNEL32.dll
 0000:fff7f000       .debug$S                   0000000180000000     kernel32:KERNEL32.dll
 0000:fff7f000       .debug$S                   0000000180000000     kernel32:KERNEL32.dll
 0000:fff7f000       .debug$S                   0000000180000000     kernel32:KERNEL32.dll
 0000:fff7f000       .debug$S                   0000000180000000     kernel32:KERNEL32.dll
 0000:fff7f000       .debug$S                   0000000180000000     kernel32:KERNEL32.dll
 0000:fff7f000       .debug$S                   0000000180000000     kernel32:KERNEL32.dll
 0000:fff7f000       .debug$S                   0000000180000000     kernel32:KERNEL32.dll
 0000:fff7f000       .debug$S                   0000000180000000     kernel32:KERNEL32.dll
 0001:00000000       ??__Epiecewise_construct@std@@YAXXZ 0000000180001000 f   node-opus.obj
 0001:00000010       ??__Eallocator_arg@std@@YAXXZ 0000000180001010 f   node-opus.obj
 0001:00001550       ?FunctionCallbackWrapper@imp@Nan@@YAXAEBV?$FunctionCallbackInfo@VValue@v8@@@v8@@@Z 0000000180002550 f   node-opus.obj
 0001:000017f0       $LN13                      00000001800027f0     node-opus.obj
 0001:000024b0       _register_node_opus        00000001800034b0 f   node-opus.obj
 0001:00002540       load_exe_hook              0000000180003540 f   win_delay_load_hook.obj
 0001:000027f0       smooth_fade                00000001800037f0 f   libopus:opus_decoder.obj
 0001:00002b50       opus_decode_frame          0000000180003b50 f   libopus:opus_decoder.obj
 0001:0000405c       $LN25                      000000018000505c     libopus:opus_decoder.obj
 0001:00004080       $LN24                      0000000180005080     libopus:opus_decoder.obj
 0001:00004210       celt_inner_prod_sse        0000000180005210 f   libopus:vq.obj
 0001:00004210       celt_inner_prod_sse        0000000180005210 f   libopus:pitch.obj
 0001:00004210       celt_inner_prod_sse        0000000180005210 f   libopus:celt_encoder.obj
 0001:00004210       celt_inner_prod_sse        0000000180005210 f   libopus:opus_encoder.obj
 0001:000046a0       gen_toc                    00000001800056a0 f   libopus:opus_encoder.obj
 0001:00004740       silk_biquad_float          0000000180005740 f   libopus:opus_encoder.obj
 0001:00004ab0       hp_cutoff                  0000000180005ab0 f   libopus:opus_encoder.obj
 0001:00004bc0       dc_reject                  0000000180005bc0 f   libopus:opus_encoder.obj
 0001:00004ec0       stereo_fade                0000000180005ec0 f   libopus:opus_encoder.obj
 0001:00005460       gain_fade                  0000000180006460 f   libopus:opus_encoder.obj
 0001:00005a50       user_bitrate_to_bitrate    0000000180006a50 f   libopus:opus_encoder.obj
 0001:00005ac0       transient_boost            0000000180006ac0 f   libopus:opus_encoder.obj
 0001:00005bf0       transient_viterbi          0000000180006bf0 f   libopus:opus_encoder.obj
 0001:000061a0       optimize_framesize         00000001800071a0 f   libopus:opus_encoder.obj
 0001:00009fdc       $LN118                     000000018000afdc     libopus:opus_encoder.obj
 0001:0000a930       parse_size                 000000018000b930 f   libopus:opus.obj
 0001:0000ae10       ec_dec_normalize           000000018000be10 f   libopus:entdec.obj
 0001:0000b150       opus_custom_decoder_init   000000018000c150 f   libopus:celt_decoder.obj
 0001:0000b210       deemphasis                 000000018000c210 f   libopus:celt_decoder.obj
 0001:0000b620       celt_synthesis             000000018000c620 f   libopus:celt_decoder.obj
 0001:0000bbd0       tf_decode                  000000018000cbd0 f   libopus:celt_decoder.obj
 0001:0000bdc0       celt_plc_pitch_search      000000018000cdc0 f   libopus:celt_decoder.obj
 0001:0000be50       celt_decode_lost           000000018000ce50 f   libopus:celt_decoder.obj
 0001:0000f3f0       opus_repacketizer_cat_impl 00000001800103f0 f   libopus:repacketizer.obj
 0001:0000fd50       celt_maxabs16              0000000180010d50 f   libopus:celt_encoder.obj
 0001:0000fe20       opus_custom_encoder_init_arch 0000000180010e20 f   libopus:celt_encoder.obj
 0001:0000ffa0       transient_analysis         0000000180010fa0 f   libopus:celt_encoder.obj
 0001:00010cd0       compute_mdcts              0000000180011cd0 f   libopus:celt_encoder.obj
 0001:00011520       l1_metric                  0000000180012520 f   libopus:celt_encoder.obj
 0001:000115f0       tf_analysis                00000001800125f0 f   libopus:celt_encoder.obj
 0001:00011bc0       tf_encode                  0000000180012bc0 f   libopus:celt_encoder.obj
 0001:00011d90       alloc_trim_analysis        0000000180012d90 f   libopus:celt_encoder.obj
 0001:00012250       stereo_analysis            0000000180013250 f   libopus:celt_encoder.obj
 0001:00012550       dynalloc_analysis          0000000180013550 f   libopus:celt_encoder.obj
 0001:00013930       run_prefilter              0000000180014930 f   libopus:celt_encoder.obj
 0001:00013f50       compute_vbr                0000000180014f50 f   libopus:celt_encoder.obj
 0001:000170f4       $LN57                      00000001800180f4     libopus:celt_encoder.obj
 0001:00017120       $LN56                      0000000180018120     libopus:celt_encoder.obj
 0001:00017148       $LN55                      0000000180018148     libopus:celt_encoder.obj
 0001:00017240       silk_QueryEncoder          0000000180018240 f   libopus:enc_API.obj
 0001:00018570       ec_enc_normalize           0000000180019570 f   libopus:entenc.obj
 0001:00018a80       fast_atan2f                0000000180019a80 f   libopus:analysis.obj
 0001:00018e60       tonality_analysis          0000000180019e60 f   libopus:analysis.obj
 0001:0001b1a0       bits2pulses                000000018001c1a0 f   libopus:bands.obj
 0001:0001b2b0       dual_inner_prod            000000018001c2b0 f   libopus:bands.obj
 0001:0001b2b0       dual_inner_prod            000000018001c2b0 f   libopus:pitch.obj
 0001:0001bd20       intensity_stereo           000000018001cd20 f   libopus:bands.obj
 0001:0001bf20       stereo_split               000000018001cf20 f   libopus:bands.obj
 0001:0001c110       stereo_merge               000000018001d110 f   libopus:bands.obj
 0001:0001c7e0       deinterleave_hadamard      000000018001d7e0 f   libopus:bands.obj
 0001:0001ca50       interleave_hadamard        000000018001da50 f   libopus:bands.obj
 0001:0001cea0       compute_theta              000000018001dea0 f   libopus:bands.obj
 0001:0001d7a0       quant_band_n1              000000018001e7a0 f   libopus:bands.obj
 0001:0001d950       quant_partition            000000018001e950 f   libopus:bands.obj
 0001:0001e160       quant_band                 000000018001f160 f   libopus:bands.obj
 0001:0001e620       quant_band_stereo          000000018001f620 f   libopus:bands.obj
 0001:0001f4f0       comb_filter_const          00000001800204f0 f   libopus:celt.obj
 0001:0001fe80       loss_distortion            0000000180020e80 f   libopus:quant_bands.obj
 0001:0001ffd0       quant_coarse_energy_impl   0000000180020fd0 f   libopus:quant_bands.obj
 0001:00021620       xcorr_kernel_sse           0000000180022620 f   libopus:pitch.obj
 0001:00021730       celt_inner_prod_c          0000000180022730 f   libopus:pitch.obj
 0001:000217e0       find_best_pitch            00000001800227e0 f   libopus:pitch.obj
 0001:00021c40       celt_fir5                  0000000180022c40 f   libopus:pitch.obj
 0001:00023b90       exp_rotation1              0000000180024b90 f   libopus:vq.obj
 0001:00023f00       exp_rotation               0000000180024f00 f   libopus:vq.obj
 0001:000240d0       extract_collapse_mask      00000001800250d0 f   libopus:vq.obj
 0001:00024a40       interp_bits2pulses         0000000180025a40 f   libopus:rate.obj
 0001:00029400       silk_short2float_array     000000018002a400 f   libopus:control_codec.obj
 0001:00029400       silk_short2float_array     000000018002a400 f   libopus:encode_frame_FLP.obj
 0001:00029600       silk_setup_resamplers      000000018002a600 f   libopus:control_codec.obj
 0001:00029870       silk_setup_fs              000000018002a870 f   libopus:control_codec.obj
 0001:00029b60       silk_setup_complexity      000000018002ab60 f   libopus:control_codec.obj
 0001:00029d70       silk_setup_LBRR            000000018002ad70 f   libopus:control_codec.obj
 0001:0002a910       silk_LBRR_encode_FLP       000000018002b910 f   libopus:encode_frame_FLP.obj
 0001:0002ab60       silk_DIV32_varQ            000000018002bb60 f   libopus:stereo_LR_to_MS.obj
 0001:0002ab60       silk_DIV32_varQ            000000018002bb60 f   libopus:stereo_find_predictor.obj
 0001:0002c450       tansig_approx              000000018002d450 f   libopus:mlp.obj
 0001:0002c810       kf_bfly2                   000000018002d810 f   libopus:kiss_fft.obj
 0001:0002c970       kf_bfly4                   000000018002d970 f   libopus:kiss_fft.obj
 0001:0002cfe0       kf_bfly3                   000000018002dfe0 f   libopus:kiss_fft.obj
 0001:0002d1d0       kf_bfly5                   000000018002e1d0 f   libopus:kiss_fft.obj
 0001:0002dd00       icwrs                      000000018002ed00 f   libopus:cwrs.obj
 0001:0002ddb0       cwrsi                      000000018002edb0 f   libopus:cwrs.obj
 0001:0002e030       silk_CNG_exc               000000018002f030 f   libopus:CNG.obj
 0001:0002e720       silk_INVERSE32_varQ        000000018002f720 f   libopus:PLC.obj
 0001:0002e7e0       silk_PLC_update            000000018002f7e0 f   libopus:PLC.obj
 0001:0002ea80       silk_PLC_conceal           000000018002fa80 f   libopus:PLC.obj
 0001:0002f800       silk_resampler_private_IIR_FIR_INTERPOL 0000000180030800 f   libopus:resampler_private_IIR_FIR.obj
 0001:0002fa40       silk_resampler_private_down_FIR_INTERPOL 0000000180030a40 f   libopus:resampler_private_down_FIR.obj
 0001:00030460       decode_split               0000000180031460 f   libopus:shell_coder.obj
 0001:000310d0       silk_DIV32_varQ            00000001800320d0 f   libopus:decode_core.obj
 0001:000310d0       silk_DIV32_varQ            00000001800320d0 f   libopus:NSQ.obj
 0001:000310d0       silk_DIV32_varQ            00000001800320d0 f   libopus:NSQ_del_dec.obj
 0001:000311e0       silk_INVERSE32_varQ        00000001800321e0 f   libopus:decode_core.obj
 0001:000311e0       silk_INVERSE32_varQ        00000001800321e0 f   libopus:NSQ.obj
 0001:000311e0       silk_INVERSE32_varQ        00000001800321e0 f   libopus:NSQ_del_dec.obj
 0001:00032330       silk_VAD_GetNoiseLevels    0000000180033330 f   libopus:VAD.obj
 0001:000325c0       warped_true2monic_coefs    00000001800335c0 f   libopus:noise_shape_analysis_FLP.obj
 0001:00034930       silk_LP_interpolate_filter_taps 0000000180035930 f   libopus:LP_variable_cutoff.obj
 0001:00034f40       silk_warped_LPC_analysis_filter_FLP 0000000180035f40 f   libopus:prefilter_FLP.obj
 0001:00035390       silk_prefilt_FLP           0000000180036390 f   libopus:prefilter_FLP.obj
 0001:00036a10       silk_INVERSE32_varQ        0000000180037a10 f   libopus:LPC_inv_pred_gain.obj
 0001:00038410       silk_noise_shape_quantizer 0000000180039410 f   libopus:NSQ.obj
 0001:00038b00       silk_nsq_scale_states      0000000180039b00 f   libopus:NSQ.obj
 0001:00039380       silk_A2NLSF_eval_poly      000000018003a380 f   libopus:A2NLSF.obj
 0001:00039430       silk_A2NLSF_init           000000018003a430 f   libopus:A2NLSF.obj
 0001:0003a3f0       silk_noise_shape_quantizer_del_dec 000000018003b3f0 f   libopus:NSQ_del_dec.obj
 0001:0003b050       silk_nsq_del_dec_scale_states 000000018003c050 f   libopus:NSQ_del_dec.obj
 0001:0003da90       silk_P_Ana_calc_corr_st3   000000018003ea90 f   libopus:pitch_analysis_core_FLP.obj
 0001:0003deb0       silk_P_Ana_calc_energy_st3 000000018003eeb0 f   libopus:pitch_analysis_core_FLP.obj
 0001:0003e2f0       silk_LPC_analysis_filter16_FLP 000000018003f2f0 f   libopus:LPC_analysis_filter_FLP.obj
 0001:0003e810       silk_LPC_analysis_filter12_FLP 000000018003f810 f   libopus:LPC_analysis_filter_FLP.obj
 0001:0003ec20       silk_LPC_analysis_filter10_FLP 000000018003fc20 f   libopus:LPC_analysis_filter_FLP.obj
 0001:0003efa0       silk_LPC_analysis_filter8_FLP 000000018003ffa0 f   libopus:LPC_analysis_filter_FLP.obj
 0001:0003f290       silk_LPC_analysis_filter6_FLP 0000000180040290 f   libopus:LPC_analysis_filter_FLP.obj
 0001:000408e0       silk_SolveWithUpperTriangularFromLowerWdiagOnes_FLP 00000001800418e0 f   libopus:solve_LS_FLP.obj
 0001:00040a00       silk_SolveWithLowerTriangularWdiagOnes_FLP 0000000180041a00 f   libopus:solve_LS_FLP.obj
 0001:00040b20       silk_LDL_FLP               0000000180041b20 f   libopus:solve_LS_FLP.obj
 0001:00043650       $$000000                   0000000180044650     LIBCMT:amdsecgs.obj
 0001:00043680       $$000000                   0000000180044680     LIBCMT:memcpy.obj
 0001:00043770       MoveSmall                  0000000180044770     LIBCMT:memcpy.obj
 0001:00044538       swprintf                   0000000180045538 f   LIBCMT:wassert.obj
 0001:00044adc       __DllMainCRTStartup        0000000180045adc f   LIBCMT:dllcrt0.obj
 0001:00044ed0       $$000000                   0000000180045ed0     LIBCMT:strlen.obj
 0001:00045b3c       _initterm                  0000000180046b3c f   LIBCMT:crt0dat.obj
 0001:00045bf0       doexit                     0000000180046bf0 f   LIBCMT:crt0dat.obj
 0001:00045e64       xtow_s                     0000000180046e64 f   LIBCMT:xtows.obj
 0001:00046268       flsall                     0000000180047268 f   LIBCMT:fflush.obj
 0001:00047308       _call_matherr              0000000180048308 f   LIBCMT:libm_error.obj
 0001:00047370       _exception_enabled         0000000180048370 f   LIBCMT:libm_error.obj
 0001:0004795c       ?getSystemCP@@YAHH@Z       000000018004895c f   LIBCMT:mbctype.obj
 0001:000479dc       ?setSBCS@@YAXPEAUthreadmbcinfostruct@@@Z 00000001800489dc f   LIBCMT:mbctype.obj
 0001:00047a6c       ?setSBUpLow@@YAXPEAUthreadmbcinfostruct@@@Z 0000000180048a6c f   LIBCMT:mbctype.obj
 0001:00048ec0       parse_cmdline              0000000180049ec0 f   LIBCMT:stdargv.obj
 0001:00049aa0       $$000000                   000000018004aaa0     LIBCMT:strcmp.obj
 0001:00049fd8       _cftoe2_l                  000000018004afd8 f   LIBCMT:cvt.obj
 0001:0004a2cc       _cftof2_l                  000000018004b2cc f   LIBCMT:cvt.obj
 0001:0004a860       $$000000                   000000018004b860     LIBCMT:memset.obj
 0001:0004aa05       MsetTab                    000000018004ba05     LIBCMT:memset.obj
 0001:0004c3e0       write_char                 000000018004d3e0 f   LIBCMT:woutput.obj
 0001:0004c418       write_multi_char           000000018004d418 f   LIBCMT:woutput.obj
 0001:0004c46c       write_string               000000018004d46c f   LIBCMT:woutput.obj
 0001:0004c8d0       $$000000                   000000018004d8d0     LIBCMT:jmpuwind.obj
 0001:0004caf0       $$000000                   000000018004daf0     LIBCMT:fpsr.obj
 0001:0004d424       ?__crtLCMapStringA_stat@@YAHPEAUlocaleinfo_struct@@PEB_WKPEBDHPEADHHH@Z 000000018004e424 f   LIBCMT:a_map.obj
 0001:0004d7a8       ?__crtGetStringTypeA_stat@@YAHPEAUlocaleinfo_struct@@KPEBDHPEAGHH@Z 000000018004e7a8 f   LIBCMT:a_str.obj
 0001:0004db10       $$000000                   000000018004eb10     LIBCMT:memcmp.obj
 0001:0004dbe8       ?x_ismbbtype_l@@YAHPEAUlocaleinfo_struct@@IHH@Z 000000018004ebe8 f   LIBCMT:ismbbyte.obj
 0001:0004dc80       $$000000                   000000018004ec80     LIBCMT:handlers.obj
 0001:0004e900       $$000000                   000000018004f900     LIBCMT:chkstk.obj
 0001:00051c00       $$000000                   0000000180052c00     LIBCMT:cos.obj
 0001:00052160       $$000000                   0000000180053160     LIBCMT:exp.obj
 0001:000526d0       $$000000                   00000001800536d0     LIBCMT:log.obj
 0001:00052c10       $$000000                   0000000180053c10     LIBCMT:log10.obj
 0001:000531d0       $$000000                   00000001800541d0     LIBCMT:pow.obj
 0001:000549b0       $$000000                   00000001800559b0     LIBCMT:remainder_piby2_forAsm.obj
 0001:00054d00       $$000000                   0000000180055d00     LIBCMT:remainder_piby2_forFMA3.obj
 0001:00055160       _log_special_common        0000000180056160 f   LIBCMT:log_special.obj
 0001:00055330       _onexit$fin$0              0000000180056330 f   LIBCMT:onexit.obj
 0001:00055344       _CRT_INIT$fin$0            0000000180056344 f   LIBCMT:dllcrt0.obj
 0001:0005536a       __DllMainCRTStartup$filt$0 000000018005636a f   LIBCMT:dllcrt0.obj
 0001:000553b3       doexit$fin$0               00000001800563b3 f   LIBCMT:crt0dat.obj
 0001:000553d7       flsall$fin$0               00000001800563d7 f   LIBCMT:fflush.obj
 0001:000553ff       flsall$fin$1               00000001800563ff f   LIBCMT:fflush.obj
 0001:00055418       setvbuf$fin$0              0000000180056418 f   LIBCMT:setvbuf.obj
 0001:00055430       fwprintf$fin$0             0000000180056430 f   LIBCMT:fwprintf.obj
 0001:0005544a       raise$fin$0                000000018005644a f   LIBCMT:winsig.obj
 0001:00055468       _ctrlfp$filt$0             0000000180056468 f   LIBCMT:fpctrl.obj
 0001:00055494       __updatetlocinfo$fin$0     0000000180056494 f   LIBCMT:localref.obj
 0001:00055494       _locterm$fin$0             0000000180056494 f   LIBCMT:localref.obj
 0001:000554ad       __updatetmbcinfo$fin$0     00000001800564ad f   LIBCMT:mbctype.obj
 0001:000554ad       _setmbcp$fin$0             00000001800564ad f   LIBCMT:mbctype.obj
 0001:000554c6       _initptd$fin$1             00000001800564c6 f   LIBCMT:tidtable.obj
 0001:000554c6       _freefls$fin$1             00000001800564c6 f   LIBCMT:tidtable.obj
 0001:000554df       _freefls$fin$0             00000001800564df f   LIBCMT:tidtable.obj
 0001:000554df       _initptd$fin$0             00000001800564df f   LIBCMT:tidtable.obj
 0001:000554f8       _ioinit$fin$0              00000001800564f8 f   LIBCMT:ioinit.obj
 0001:00055513       __DestructExceptionObject$filt$0 0000000180056513 f   LIBCMT:frame.obj
 0001:0005552b       ?fin$0@?0??_Type_info_dtor@type_info@@CAXPEAV1@@Z@4HA 000000018005652b f   LIBCMT:typname.obj
 0001:00055544       _mtinitlocknum$fin$0       0000000180056544 f   LIBCMT:mlock.obj
 0001:00055570       _IsNonwritableInCurrentImage$filt$0 0000000180056570 f   LIBCMT:pesect.obj
 0001:00055590       _fcloseall$fin$0           0000000180056590 f   LIBCMT:closeall.obj
 0001:000555a9       _write$fin$0               00000001800565a9 f   LIBCMT:write.obj
 0001:000555a9       _lseeki64$fin$0            00000001800565a9 f   LIBCMT:write.obj
 0001:000555c0       fflush$fin$0               00000001800565c0 f   LIBCMT:fclose.obj
 0001:000555c0       fclose$fin$0               00000001800565c0 f   LIBCMT:fclose.obj
 0001:000555d8       __lock_fhandle$fin$0       00000001800565d8 f   LIBCMT:osfinfo.obj
 0001:000555f1       _commit$fin$0              00000001800565f1 f   LIBCMT:close.obj
 0001:000555f1       _close$fin$0               00000001800565f1 f   LIBCMT:close.obj
 0002:00000230       piecewise_construct$initializer$ 0000000180057230     node-opus.obj
 0002:00000238       allocator_arg$initializer$ 0000000180057238     node-opus.obj
 0002:00000258       pinit                      0000000180057258     LIBCMT:onexit.obj
 0002:00000260       pinit                      0000000180057260     LIBCMT:cpu_disp.obj
 0002:00000268       pinit                      0000000180057268     LIBCMT:_file.obj
 0002:00000270       pinit                      0000000180057270     LIBCMT:mbctype.obj
 0002:00000278       init_fma3                  0000000180057278     LIBCMT:fma3_available.obj
 0002:00000290       pterm                      0000000180057290     LIBCMT:wsetloca.obj
 0002:00000298       pterm                      0000000180057298     LIBCMT:initcon.obj
 0002:000002a0       pterm                      00000001800572a0     LIBCMT:_file.obj
 0002:00000310       _Win_errtab                0000000180057310     libcpmt:syserror.obj
 0002:000007c0       _Sys_errtab                00000001800577c0     libcpmt:syserror.obj
 0002:000018a0       GS_ExceptionPointers       00000001800588a0     LIBCMT:gs_report.obj
 0002:000018b0       ?ExceptionTemplate@?1??_CxxThrowException@@9@4UEHExceptionRecord@@B 00000001800588b0     LIBCMT:throw.obj
 0002:000019f0       rterrs                     00000001800589f0     LIBCMT:crt0msg.obj
 0002:000024c8       _mb_locale_names           00000001800594c8     LIBCMT:mbctype.obj
 0002:000028e0       _first_127char             00000001800598e0     LIBCMT:wsetloca.obj
 0002:00006070       __real@433fffffffffffff    000000018005d070     LIBCMT:fpsr.obj
 0002:00006078       __real@c33fffffffffffff    000000018005d078     LIBCMT:fpsr.obj
 0002:00006970       tokenTable                 000000018005d970     LIBCMT:undname.obj
 0002:000069e0       nameTable                  000000018005d9e0     LIBCMT:undname.obj
 0002:00006c60       rttiTable                  000000018005dc60     LIBCMT:undname.obj
 0002:00007b30       mono_music_bandwidth_thresholds 000000018005eb30     libopus:opus_encoder.obj
 0002:00007b50       mono_voice_bandwidth_thresholds 000000018005eb50     libopus:opus_encoder.obj
 0002:00007b70       mode_thresholds            000000018005eb70     libopus:opus_encoder.obj
 0002:00007b80       stereo_voice_bandwidth_thresholds 000000018005eb80     libopus:opus_encoder.obj
 0002:00007ba0       stereo_voice_threshold     000000018005eba0     libopus:opus_encoder.obj
 0002:00007ba4       stereo_music_threshold     000000018005eba4     libopus:opus_encoder.obj
 0002:00007ba8       spread_icdf                000000018005eba8     libopus:celt_decoder.obj
 0002:00007bac       tapset_icdf                000000018005ebac     libopus:celt_decoder.obj
 0002:00007bb0       stereo_music_bandwidth_thresholds 000000018005ebb0     libopus:opus_encoder.obj
 0002:00007bd0       trim_icdf                  000000018005ebd0     libopus:celt_decoder.obj
 0002:00007bdc       spread_icdf                000000018005ebdc     libopus:celt_encoder.obj
 0002:00007be0       ?intensity_histeresis@?DN@??celt_encode_with_ec@@9@9 000000018005ebe0     libopus:celt_encoder.obj
 0002:00007c34       tapset_icdf                000000018005ec34     libopus:celt_encoder.obj
 0002:00007c38       ?exp2_table8@?1??compute_qn@@9@9 000000018005ec38     libopus:bands.obj
 0002:00007c48       ?gains@?1??comb_filter@@9@9 000000018005ec48     libopus:celt.obj
 0002:00007c70       ?inv_table@?1??transient_analysis@@9@9 000000018005ec70     libopus:celt_encoder.obj
 0002:00007cf0       ?intensity_thresholds@?DN@??celt_encode_with_ec@@9@9 000000018005ecf0     libopus:celt_encoder.obj
 0002:00007d44       beta_intra                 000000018005ed44     libopus:quant_bands.obj
 0002:00007d48       trim_icdf                  000000018005ed48     libopus:celt_encoder.obj
 0002:00007d58       beta_coef                  000000018005ed58     libopus:quant_bands.obj
 0002:00007d68       small_energy_icdf          000000018005ed68     libopus:quant_bands.obj
 0002:00007d70       extra_bands                000000018005ed70     libopus:analysis.obj
 0002:00007dc8       static_mode_list           000000018005edc8     libopus:modes.obj
 0002:00007dd0       analysis_window            000000018005edd0     libopus:analysis.obj
 0002:00008190       dct_table                  000000018005f190     libopus:analysis.obj
 0002:00008390       tbands                     000000018005f390     libopus:analysis.obj
 0002:000083e0       ordery_table               000000018005f3e0     libopus:bands.obj
 0002:00008460       ?bit_interleave_table@?5??quant_band@@9@9 000000018005f460     libopus:bands.obj
 0002:00008470       ?bit_deinterleave_table@?N@??quant_band@@9@9 000000018005f470     libopus:bands.obj
 0002:000084a0       ?error_strings@?1??opus_strerror@@9@9 000000018005f4a0     libopus:celt.obj
 0002:00008550       e_prob_model               000000018005f550     libopus:quant_bands.obj
 0002:000086a0       pred_coef                  000000018005f6a0     libopus:quant_bands.obj
 0002:000086b0       second_check               000000018005f6b0     libopus:pitch.obj
 0002:000086f0       ?correction@?1??ec_tell_frac@@9@9 000000018005f6f0     libopus:entcode.obj
 0002:00008710       ?SPREAD_FACTOR@?1??exp_rotation@@9@9 000000018005f710     libopus:vq.obj
 0002:00008720       LOG2_FRAC_TABLE            000000018005f720     libopus:rate.obj
 0002:00008738       eband5ms                   000000018005f738     libopus:modes.obj
 0002:00008770       fft_state48000_960_2       000000018005f770     libopus:modes.obj
 0002:000087b0       cache_index50              000000018005f7b0     libopus:modes.obj
 0002:00008888       delay_matrix_enc           000000018005f888     libopus:resampler.obj
 0002:000088a0       cache_bits50               000000018005f8a0     libopus:modes.obj
 0002:00008a30       window120                  000000018005fa30     libopus:modes.obj
 0002:00008c10       mdct_twiddles960           000000018005fc10     libopus:modes.obj
 0002:0000a830       fft_bitrev60               0000000180061830     libopus:modes.obj
 0002:0000a8b0       fft_twiddles48000_960      00000001800618b0     libopus:modes.obj
 0002:0000b7b0       fft_state48000_960_0       00000001800627b0     libopus:modes.obj
 0002:0000b7f0       cache_caps50               00000001800627f0     libopus:modes.obj
 0002:0000b8a0       fft_bitrev240              00000001800628a0     libopus:modes.obj
 0002:0000ba80       band_allocation            0000000180062a80     libopus:modes.obj
 0002:0000bb70       fft_bitrev120              0000000180062b70     libopus:modes.obj
 0002:0000bc60       logN400                    0000000180062c60     libopus:modes.obj
 0002:0000bc90       fft_state48000_960_3       0000000180062c90     libopus:modes.obj
 0002:0000bcd0       mode48000_960_120          0000000180062cd0     libopus:modes.obj
 0002:0000bd70       fft_bitrev480              0000000180062d70     libopus:modes.obj
 0002:0000c130       fft_state48000_960_1       0000000180063130     libopus:modes.obj
 0002:0000c170       delay_matrix_dec           0000000180063170     libopus:resampler.obj
 0002:0000c1e4       silk_LBRR_flags_2_iCDF     00000001800631e4     libopus:tables_other.obj
 0002:0000c288       silk_LBRR_flags_3_iCDF     0000000180063288     libopus:tables_other.obj
 0002:0000c2b8       PLC_RAND_ATTENUATE_V_Q15   00000001800632b8     libopus:PLC.obj
 0002:0000c2f8       topo                       00000001800632f8     libopus:mlp_data.obj
 0002:0000c304       HARM_ATT_Q15               0000000180063304     libopus:PLC.obj
 0002:0000c308       PLC_RAND_ATTENUATE_UV_Q15  0000000180063308     libopus:PLC.obj
 0002:0000c310       weights                    0000000180063310     libopus:mlp_data.obj
 0002:0000c9a8       silk_resampler_up2_hq_1    00000001800639a8     libopus:resampler_private_up2_HQ.obj
 0002:0000c9b0       tansig_table               00000001800639b0     libopus:mlp.obj
 0002:0000ccd4       silk_resampler_up2_hq_0    0000000180063cd4     libopus:resampler_private_up2_HQ.obj
 0002:0000cce0       CELT_PVQ_U_ROW             0000000180063ce0     libopus:cwrs.obj
 0002:0000cd80       CELT_PVQ_U_DATA            0000000180063d80     libopus:cwrs.obj
 0002:0000e608       silk_LTP_gain_iCDF_0       0000000180065608     libopus:tables_LTP.obj
 0002:0000e6a8       silk_LTP_gain_vq_0_gain    00000001800656a8     libopus:tables_LTP.obj
 0002:0000e7b4       A_fb1_20                   00000001800657b4     libopus:ana_filt_bank_1.obj
 0002:0000e7b8       silk_LTP_gain_BITS_Q5_1    00000001800657b8     libopus:tables_LTP.obj
 0002:0000e7c8       silk_LTP_gain_vq_0         00000001800657c8     libopus:tables_LTP.obj
 0002:0000e808       silk_LTP_gain_BITS_Q5_0    0000000180065808     libopus:tables_LTP.obj
 0002:0000e828       silk_NLSF_PRED_NB_MB_Q8    0000000180065828     libopus:tables_NLSF_CB_NB_MB.obj
 0002:0000e858       silk_LTP_gain_iCDF_1       0000000180065858     libopus:tables_LTP.obj
 0002:0000e868       silk_LTP_gain_iCDF_2       0000000180065868     libopus:tables_LTP.obj
 0002:0000e888       silk_NLSF_DELTA_MIN_NB_MB_Q15 0000000180065888     libopus:tables_NLSF_CB_NB_MB.obj
 0002:0000e8a0       silk_LTP_gain_vq_1         00000001800658a0     libopus:tables_LTP.obj
 0002:0000e908       silk_NLSF_DELTA_MIN_WB_Q15 0000000180065908     libopus:tables_NLSF_CB_WB.obj
 0002:0000e930       silk_LTP_gain_vq_2         0000000180065930     libopus:tables_LTP.obj
 0002:0000e9d0       silk_LTP_gain_vq_1_gain    00000001800659d0     libopus:tables_LTP.obj
 0002:0000e9e0       silk_LTP_gain_BITS_Q5_2    00000001800659e0     libopus:tables_LTP.obj
 0002:0000ea00       silk_LTP_gain_vq_2_gain    0000000180065a00     libopus:tables_LTP.obj
 0002:0000ea60       silk_NLSF_CB1_NB_MB_Q8     0000000180065a60     libopus:tables_NLSF_CB_NB_MB.obj
 0002:0000eba0       silk_NLSF_CB2_iCDF_NB_MB   0000000180065ba0     libopus:tables_NLSF_CB_NB_MB.obj
 0002:0000ebe8       sigm_LUT_neg_Q15           0000000180065be8     libopus:sigm_Q15.obj
 0002:0000ec00       silk_NLSF_CB2_BITS_NB_MB_Q5 0000000180065c00     libopus:tables_NLSF_CB_NB_MB.obj
 0002:0000ec48       sigm_LUT_slope_Q10         0000000180065c48     libopus:sigm_Q15.obj
 0002:0000ec60       silk_NLSF_CB2_SELECT_NB_MB 0000000180065c60     libopus:tables_NLSF_CB_NB_MB.obj
 0002:0000ed00       silk_NLSF_CB1_iCDF_NB_MB   0000000180065d00     libopus:tables_NLSF_CB_NB_MB.obj
 0002:0000ed80       silk_NLSF_CB2_BITS_WB_Q5   0000000180065d80     libopus:tables_NLSF_CB_WB.obj
 0002:0000edc8       sigm_LUT_pos_Q15           0000000180065dc8     libopus:sigm_Q15.obj
 0002:0000ede0       silk_NLSF_CB1_WB_Q8        0000000180065de0     libopus:tables_NLSF_CB_WB.obj
 0002:0000efe0       silk_NLSF_CB1_iCDF_WB      0000000180065fe0     libopus:tables_NLSF_CB_WB.obj
 0002:0000f020       silk_NLSF_CB2_iCDF_WB      0000000180066020     libopus:tables_NLSF_CB_WB.obj
 0002:0000f068       A_fb1_21                   0000000180066068     libopus:ana_filt_bank_1.obj
 0002:0000f070       silk_NLSF_CB2_SELECT_WB    0000000180066070     libopus:tables_NLSF_CB_WB.obj
 0002:0000f170       silk_NLSF_PRED_WB_Q8       0000000180066170     libopus:tables_NLSF_CB_WB.obj
 0002:0000f190       tiltWeights                0000000180066190     libopus:VAD.obj
 0002:0000f1a0       ?ordering10@?1??silk_NLSF2A@@9@9 00000001800661a0     libopus:NLSF2A.obj
 0002:0000f1b0       ?ordering16@?1??silk_NLSF2A@@9@9 00000001800661b0     libopus:NLSF2A.obj
 0002:0000f378       silk_resampler_down2_0     0000000180066378     libopus:resampler_down2.obj
 0002:0000f3c8       silk_resampler_down2_1     00000001800663c8     libopus:resampler_down2.obj
 0002:0000f910       ?atan_jby256_lead@?1??atan2@@9@9 0000000180066910     LIBCMT:atan2.obj
 0002:000100a0       ?atan_jby256_tail@?1??atan2@@9@9 00000001800670a0     LIBCMT:atan2.obj
 0002:000108a0       L_real_piby2_1             00000001800678a0     LIBCMT:cos.obj
 0002:000108b0       L_real_piby2_1tail         00000001800678b0     LIBCMT:cos.obj
 0002:000108c0       L_real_piby2_2             00000001800678c0     LIBCMT:cos.obj
 0002:000108d0       L_real_piby2_2tail         00000001800678d0     LIBCMT:cos.obj
 0002:000108e0       L_one                      00000001800678e0     LIBCMT:cos.obj
 0002:000108f0       L_signbit                  00000001800678f0     LIBCMT:cos.obj
 0002:00010900       L_int_one                  0000000180067900     LIBCMT:cos.obj
 0002:00010910       L_int_two                  0000000180067910     LIBCMT:cos.obj
 0002:00010920       L_2_by_pi                  0000000180067920     LIBCMT:cos.obj
 0002:00010928       L_one_half                 0000000180067928     LIBCMT:cos.obj
 0002:00010930       L_neg_one_half             0000000180067930     LIBCMT:cos.obj
 0002:00010938       L_two_to_neg_27            0000000180067938     LIBCMT:cos.obj
 0002:00010940       L_two_to_neg_13            0000000180067940     LIBCMT:cos.obj
 0002:00010948       L_piby4                    0000000180067948     LIBCMT:cos.obj
 0002:00010950       L_small_arg_cw             0000000180067950     LIBCMT:cos.obj
 0002:00010958       L_small_arg_bdl            0000000180067958     LIBCMT:cos.obj
 0002:00010960       L_sign_mask                0000000180067960     LIBCMT:cos.obj
 0002:00010968       L__inf_mask_64             0000000180067968     LIBCMT:cos.obj
 0002:00010970       __flag_x_nan               0000000180067970     LIBCMT:exp.obj
 0002:00010974       __flag_y_zero              0000000180067974     LIBCMT:exp.obj
 0002:00010978       __flag_y_inf               0000000180067978     LIBCMT:exp.obj
 0002:00010980       L__real_1_by_720           0000000180067980     LIBCMT:exp.obj
 0002:00010990       L__real_1_by_120           0000000180067990     LIBCMT:exp.obj
 0002:000109a0       L__real_1_by_6             00000001800679a0     LIBCMT:exp.obj
 0002:000109b0       L__real_1_by_2             00000001800679b0     LIBCMT:exp.obj
 0002:000109c0       L__real_1_by_24            00000001800679c0     LIBCMT:exp.obj
 0002:000109d0       L__log2_by_64_mtail_mhead  00000001800679d0     LIBCMT:exp.obj
 0002:000109e0       L__ln_of_smallest_normal   00000001800679e0     LIBCMT:exp.obj
 0002:000109e8       L__zero                    00000001800679e8     LIBCMT:exp.obj
 0002:000109f0       L__max_exp_arg             00000001800679f0     LIBCMT:exp.obj
 0002:000109f8       L__denormal_tiny_threshold 00000001800679f8     LIBCMT:exp.obj
 0002:00010a00       L__min_exp_arg             0000000180067a00     LIBCMT:exp.obj
 0002:00010a08       L__real_64_by_log2         0000000180067a08     LIBCMT:exp.obj
 0002:00010a10       L__positive_infinity       0000000180067a10     LIBCMT:exp.obj
 0002:00010a18       L__negative_infinity       0000000180067a18     LIBCMT:exp.obj
 0002:00010a20       L__real_qnanbit            0000000180067a20     LIBCMT:exp.obj
 0002:00010a28       L__real_x_near0_threshold  0000000180067a28     LIBCMT:exp.obj
 0002:00010a30       L__log2_by_64_mhead        0000000180067a30     LIBCMT:exp.obj
 0002:00010a38       L__log2_by_64_mtail        0000000180067a38     LIBCMT:exp.obj
 0002:00010a40       L__real_smallest_denormal  0000000180067a40     LIBCMT:exp.obj
 0002:00010a48       L__real_one                0000000180067a48     LIBCMT:exp.obj
 0002:00010a50       L__2_to_neg_26             0000000180067a50     LIBCMT:exp.obj
 0002:00010a58       L__min_normal              0000000180067a58     LIBCMT:exp.obj
 0002:00010a70       __real_ninf                0000000180067a70     LIBCMT:log.obj
 0002:00010a80       __real_inf                 0000000180067a80     LIBCMT:log.obj
 0002:00010a90       __real_neg_qnan            0000000180067a90     LIBCMT:log.obj
 0002:00010aa0       __real_qnanbit             0000000180067aa0     LIBCMT:log.obj
 0002:00010ab0       __real_min_norm            0000000180067ab0     LIBCMT:log.obj
 0002:00010ac0       __real_mant                0000000180067ac0     LIBCMT:log.obj
 0002:00010ad0       __mask_1023                0000000180067ad0     LIBCMT:log.obj
 0002:00010ae0       __mask_001                 0000000180067ae0     LIBCMT:log.obj
 0002:00010af0       __mask_mant_all8           0000000180067af0     LIBCMT:log.obj
 0002:00010b00       __mask_mant9               0000000180067b00     LIBCMT:log.obj
 0002:00010b10       __real_two                 0000000180067b10     LIBCMT:log.obj
 0002:00010b20       __real_one                 0000000180067b20     LIBCMT:log.obj
 0002:00010b30       __real_near_one_lt         0000000180067b30     LIBCMT:log.obj
 0002:00010b40       __real_near_one_gt         0000000180067b40     LIBCMT:log.obj
 0002:00010b50       __real_half                0000000180067b50     LIBCMT:log.obj
 0002:00010b60       __mask_100                 0000000180067b60     LIBCMT:log.obj
 0002:00010b70       __real_1_over_512          0000000180067b70     LIBCMT:log.obj
 0002:00010b80       __real_1_over_2            0000000180067b80     LIBCMT:log.obj
 0002:00010b90       __real_1_over_3            0000000180067b90     LIBCMT:log.obj
 0002:00010ba0       __real_1_over_4            0000000180067ba0     LIBCMT:log.obj
 0002:00010bb0       __real_1_over_5            0000000180067bb0     LIBCMT:log.obj
 0002:00010bc0       __real_1_over_6            0000000180067bc0     LIBCMT:log.obj
 0002:00010bd0       __mask_1023_f              0000000180067bd0     LIBCMT:log.obj
 0002:00010be0       __mask_2045                0000000180067be0     LIBCMT:log.obj
 0002:00010bf0       __real_threshold           0000000180067bf0     LIBCMT:log.obj
 0002:00010c00       __real_notsign             0000000180067c00     LIBCMT:log.obj
 0002:00010c10       __real_ca1                 0000000180067c10     LIBCMT:log.obj
 0002:00010c20       __real_ca2                 0000000180067c20     LIBCMT:log.obj
 0002:00010c30       __real_ca3                 0000000180067c30     LIBCMT:log.obj
 0002:00010c40       __real_ca4                 0000000180067c40     LIBCMT:log.obj
 0002:00010c50       __real_log2_lead           0000000180067c50     LIBCMT:log.obj
 0002:00010c60       __real_log2_tail           0000000180067c60     LIBCMT:log.obj
 0002:00010c70       __flag_x_zero              0000000180067c70     LIBCMT:log.obj
 0002:00010c74       __flag_x_neg               0000000180067c74     LIBCMT:log.obj
 0002:00010c78       __flag_x_nan               0000000180067c78     LIBCMT:log.obj
 0002:00010c80       __real_ninf                0000000180067c80     LIBCMT:log10.obj
 0002:00010c90       __real_inf                 0000000180067c90     LIBCMT:log10.obj
 0002:00010ca0       __real_neg_qnan            0000000180067ca0     LIBCMT:log10.obj
 0002:00010cb0       __real_qnanbit             0000000180067cb0     LIBCMT:log10.obj
 0002:00010cc0       __int_1023                 0000000180067cc0     LIBCMT:log10.obj
 0002:00010cd0       __mask_001                 0000000180067cd0     LIBCMT:log10.obj
 0002:00010ce0       __mask_mant                0000000180067ce0     LIBCMT:log10.obj
 0002:00010cf0       __mask_mant_top8           0000000180067cf0     LIBCMT:log10.obj
 0002:00010d00       __mask_mant9               0000000180067d00     LIBCMT:log10.obj
 0002:00010d10       __real_log10_e             0000000180067d10     LIBCMT:log10.obj
 0002:00010d20       __real_log10_e_lead        0000000180067d20     LIBCMT:log10.obj
 0002:00010d30       __real_log10_e_tail        0000000180067d30     LIBCMT:log10.obj
 0002:00010d40       __real_log10_2_lead        0000000180067d40     LIBCMT:log10.obj
 0002:00010d50       __real_log10_2_tail        0000000180067d50     LIBCMT:log10.obj
 0002:00010d60       __real_two                 0000000180067d60     LIBCMT:log10.obj
 0002:00010d70       __real_one                 0000000180067d70     LIBCMT:log10.obj
 0002:00010d80       __real_half                0000000180067d80     LIBCMT:log10.obj
 0002:00010d90       __mask_100                 0000000180067d90     LIBCMT:log10.obj
 0002:00010da0       __real_1_over_512          0000000180067da0     LIBCMT:log10.obj
 0002:00010db0       __real_1_over_2            0000000180067db0     LIBCMT:log10.obj
 0002:00010dc0       __real_1_over_3            0000000180067dc0     LIBCMT:log10.obj
 0002:00010dd0       __real_1_over_4            0000000180067dd0     LIBCMT:log10.obj
 0002:00010de0       __real_1_over_5            0000000180067de0     LIBCMT:log10.obj
 0002:00010df0       __real_1_over_6            0000000180067df0     LIBCMT:log10.obj
 0002:00010e00       __real_neg_1023            0000000180067e00     LIBCMT:log10.obj
 0002:00010e10       __mask_2045                0000000180067e10     LIBCMT:log10.obj
 0002:00010e20       __real_threshold           0000000180067e20     LIBCMT:log10.obj
 0002:00010e30       __real_near_one_lt         0000000180067e30     LIBCMT:log10.obj
 0002:00010e40       __real_near_one_gt         0000000180067e40     LIBCMT:log10.obj
 0002:00010e50       __real_min_norm            0000000180067e50     LIBCMT:log10.obj
 0002:00010e60       __real_notsign             0000000180067e60     LIBCMT:log10.obj
 0002:00010e70       __real_ca1                 0000000180067e70     LIBCMT:log10.obj
 0002:00010e80       __real_ca2                 0000000180067e80     LIBCMT:log10.obj
 0002:00010e90       __real_ca3                 0000000180067e90     LIBCMT:log10.obj
 0002:00010ea0       __real_ca4                 0000000180067ea0     LIBCMT:log10.obj
 0002:00010eb0       __mask_lower               0000000180067eb0     LIBCMT:log10.obj
 0002:00010ec0       __flag_x_zero              0000000180067ec0     LIBCMT:log10.obj
 0002:00010ec4       __flag_x_neg               0000000180067ec4     LIBCMT:log10.obj
 0002:00010ec8       __flag_x_nan               0000000180067ec8     LIBCMT:log10.obj
 0002:00010ed0       __flag_x_one_y_snan        0000000180067ed0     LIBCMT:pow.obj
 0002:00010ed4       __flag_x_zero_z_inf        0000000180067ed4     LIBCMT:pow.obj
 0002:00010ed8       __flag_x_nan               0000000180067ed8     LIBCMT:pow.obj
 0002:00010edc       __flag_y_nan               0000000180067edc     LIBCMT:pow.obj
 0002:00010ee0       __flag_x_nan_y_nan         0000000180067ee0     LIBCMT:pow.obj
 0002:00010ee4       __flag_x_neg_y_notint      0000000180067ee4     LIBCMT:pow.obj
 0002:00010ee8       __flag_z_zero              0000000180067ee8     LIBCMT:pow.obj
 0002:00010eec       __flag_z_denormal          0000000180067eec     LIBCMT:pow.obj
 0002:00010ef0       __flag_z_inf               0000000180067ef0     LIBCMT:pow.obj
 0002:00010f00       __ay_max_bound             0000000180067f00     LIBCMT:pow.obj
 0002:00010f08       __ay_min_bound             0000000180067f08     LIBCMT:pow.obj
 0002:00010f10       __sign_mask                0000000180067f10     LIBCMT:pow.obj
 0002:00010f18       __sign_and_exp_mask        0000000180067f18     LIBCMT:pow.obj
 0002:00010f20       __exp_mask                 0000000180067f20     LIBCMT:pow.obj
 0002:00010f28       __neg_inf                  0000000180067f28     LIBCMT:pow.obj
 0002:00010f30       __pos_inf                  0000000180067f30     LIBCMT:pow.obj
 0002:00010f38       __pos_one                  0000000180067f38     LIBCMT:pow.obj
 0002:00010f40       __pos_zero                 0000000180067f40     LIBCMT:pow.obj
 0002:00010f48       __exp_mant_mask            0000000180067f48     LIBCMT:pow.obj
 0002:00010f50       __mant_mask                0000000180067f50     LIBCMT:pow.obj
 0002:00010f58       __ind_pattern              0000000180067f58     LIBCMT:pow.obj
 0002:00010f60       __neg_qnan                 0000000180067f60     LIBCMT:pow.obj
 0002:00010f68       __qnan                     0000000180067f68     LIBCMT:pow.obj
 0002:00010f70       __qnan_set                 0000000180067f70     LIBCMT:pow.obj
 0002:00010f78       __neg_one                  0000000180067f78     LIBCMT:pow.obj
 0002:00010f80       __neg_zero                 0000000180067f80     LIBCMT:pow.obj
 0002:00010f88       __exp_shift                0000000180067f88     LIBCMT:pow.obj
 0002:00010f90       __exp_bias                 0000000180067f90     LIBCMT:pow.obj
 0002:00010f98       __exp_bias_m1              0000000180067f98     LIBCMT:pow.obj
 0002:00010fa0       __yexp_53                  0000000180067fa0     LIBCMT:pow.obj
 0002:00010fa8       __mant_full                0000000180067fa8     LIBCMT:pow.obj
 0002:00010fb0       __1_before_mant            0000000180067fb0     LIBCMT:pow.obj
 0002:00010fb8       __mask_mant_all8           0000000180067fb8     LIBCMT:pow.obj
 0002:00010fc0       __mask_mant9               0000000180067fc0     LIBCMT:pow.obj
 0002:00010fd0       __real_fffffffff8000000    0000000180067fd0     LIBCMT:pow.obj
 0002:00010fe0       __mask_8000000000000000    0000000180067fe0     LIBCMT:pow.obj
 0002:00010ff0       __real_4090040000000000    0000000180067ff0     LIBCMT:pow.obj
 0002:00011000       __real_C090C80000000000    0000000180068000     LIBCMT:pow.obj
 0002:00011010       __real_ninf                0000000180068010     LIBCMT:pow.obj
 0002:00011020       __real_inf                 0000000180068020     LIBCMT:pow.obj
 0002:00011030       __real_nan                 0000000180068030     LIBCMT:pow.obj
 0002:00011040       __real_mant                0000000180068040     LIBCMT:pow.obj
 0002:00011050       __mask_1023                0000000180068050     LIBCMT:pow.obj
 0002:00011060       __mask_001                 0000000180068060     LIBCMT:pow.obj
 0002:00011070       __real_log2_lead           0000000180068070     LIBCMT:pow.obj
 0002:00011080       __real_log2_tail           0000000180068080     LIBCMT:pow.obj
 0002:00011090       __real_two                 0000000180068090     LIBCMT:pow.obj
 0002:000110a0       __real_one                 00000001800680a0     LIBCMT:pow.obj
 0002:000110b0       __real_half                00000001800680b0     LIBCMT:pow.obj
 0002:000110c0       __mask_100                 00000001800680c0     LIBCMT:pow.obj
 0002:000110d0       __real_1_over_2            00000001800680d0     LIBCMT:pow.obj
 0002:000110e0       __real_1_over_3            00000001800680e0     LIBCMT:pow.obj
 0002:000110f0       __real_1_over_4            00000001800680f0     LIBCMT:pow.obj
 0002:00011100       __real_1_over_5            0000000180068100     LIBCMT:pow.obj
 0002:00011110       __real_1_over_6            0000000180068110     LIBCMT:pow.obj
 0002:00011120       __real_1_over_7            0000000180068120     LIBCMT:pow.obj
 0002:00011130       __mask_1023_f              0000000180068130     LIBCMT:pow.obj
 0002:00011140       __mask_2045                0000000180068140     LIBCMT:pow.obj
 0002:00011150       __real_threshold           0000000180068150     LIBCMT:pow.obj
 0002:00011160       __real_notsign             0000000180068160     LIBCMT:pow.obj
 0002:00011170       __log_F_inv_head           0000000180068170     LIBCMT:pow.obj
 0002:00011980       __log_F_inv_tail           0000000180068980     LIBCMT:pow.obj
 0002:00012190       __denormal_threshold       0000000180069190     LIBCMT:pow.obj
 0002:000121a0       __enable_almost_inf        00000001800691a0     LIBCMT:pow.obj
 0002:000121b0       __real_zero                00000001800691b0     LIBCMT:pow.obj
 0002:000121c0       __real_smallest_denormal   00000001800691c0     LIBCMT:pow.obj
 0002:000121d0       __denormal_tiny_threshold  00000001800691d0     LIBCMT:pow.obj
 0002:000121e0       __real_p65536              00000001800691e0     LIBCMT:pow.obj
 0002:000121f0       __real_m68800              00000001800691f0     LIBCMT:pow.obj
 0002:00012200       __real_64_by_log2          0000000180069200     LIBCMT:pow.obj
 0002:00012210       __real_log2_by_64_head     0000000180069210     LIBCMT:pow.obj
 0002:00012220       __real_log2_by_64_tail     0000000180069220     LIBCMT:pow.obj
 0002:00012230       __real_1_by_720            0000000180069230     LIBCMT:pow.obj
 0002:00012240       __real_1_by_120            0000000180069240     LIBCMT:pow.obj
 0002:00012250       __real_1_by_24             0000000180069250     LIBCMT:pow.obj
 0002:00012260       __real_1_by_6              0000000180069260     LIBCMT:pow.obj
 0002:00012270       __real_1_by_2              0000000180069270     LIBCMT:pow.obj
 0002:00012340       L__piby2_part3_piby2_lead  0000000180069340     LIBCMT:remainder_piby2_forAsm.obj
 0002:00012350       L__piby2_part1             0000000180069350     LIBCMT:remainder_piby2_forAsm.obj
 0002:00012360       L__piby2_part2             0000000180069360     LIBCMT:remainder_piby2_forAsm.obj
 0002:00012370       L_piby2_1                  0000000180069370     LIBCMT:remainder_piby2_forAsm.obj
 0002:00012380       L_piby2_2                  0000000180069380     LIBCMT:remainder_piby2_forAsm.obj
 0002:00012390       L_piby2_3                  0000000180069390     LIBCMT:remainder_piby2_forAsm.obj
 0002:000123a0       L_piby2_1tail              00000001800693a0     LIBCMT:remainder_piby2_forAsm.obj
 0002:000123b0       L_piby2_2tail              00000001800693b0     LIBCMT:remainder_piby2_forAsm.obj
 0002:000123c0       L_piby2_3tail              00000001800693c0     LIBCMT:remainder_piby2_forAsm.obj
 0002:000123d0       L_twobypi                  00000001800693d0     LIBCMT:remainder_piby2_forAsm.obj
 0002:000123e0       L_point_five               00000001800693e0     LIBCMT:remainder_piby2_forAsm.obj
 0002:000123f0       L_int_three                00000001800693f0     LIBCMT:remainder_piby2_forAsm.obj
 0002:00012400       L_inf_mask_64              0000000180069400     LIBCMT:remainder_piby2_forAsm.obj
 0002:00012410       L_signbit                  0000000180069410     LIBCMT:remainder_piby2_forAsm.obj
 0002:00012420       L_int_1                    0000000180069420     LIBCMT:remainder_piby2_forAsm.obj
 0002:00012430       L_int_15                   0000000180069430     LIBCMT:remainder_piby2_forAsm.obj
 0002:00012438       L_int_48                   0000000180069438     LIBCMT:remainder_piby2_forAsm.obj
 0002:00012440       L_3pio4                    0000000180069440     LIBCMT:remainder_piby2_forAsm.obj
 0002:00012448       L_5pio4                    0000000180069448     LIBCMT:remainder_piby2_forAsm.obj
 0002:00012450       L_7pio4                    0000000180069450     LIBCMT:remainder_piby2_forAsm.obj
 0002:00012458       L_9pio4                    0000000180069458     LIBCMT:remainder_piby2_forAsm.obj
 0002:00012460       L__2_by_pi_bits            0000000180069460     LIBCMT:remainder_piby2_forAsm.obj
 0002:00012500       L_piby2_lead               0000000180069500     LIBCMT:remainder_piby2_forFMA3.obj
 0002:00012510       L_fff800                   0000000180069510     LIBCMT:remainder_piby2_forFMA3.obj
 0002:00012520       L_piby2_part1              0000000180069520     LIBCMT:remainder_piby2_forFMA3.obj
 0002:00012530       L_piby2_part2              0000000180069530     LIBCMT:remainder_piby2_forFMA3.obj
 0002:00012540       L_piby2_part3              0000000180069540     LIBCMT:remainder_piby2_forFMA3.obj
 0002:00012550       L_piby2_1                  0000000180069550     LIBCMT:remainder_piby2_forFMA3.obj
 0002:00012560       L_piby2_2                  0000000180069560     LIBCMT:remainder_piby2_forFMA3.obj
 0002:00012570       L_piby2_3                  0000000180069570     LIBCMT:remainder_piby2_forFMA3.obj
 0002:00012580       L_piby2_1tail              0000000180069580     LIBCMT:remainder_piby2_forFMA3.obj
 0002:00012590       L_piby2_2tail              0000000180069590     LIBCMT:remainder_piby2_forFMA3.obj
 0002:000125a0       L_piby2_3tail              00000001800695a0     LIBCMT:remainder_piby2_forFMA3.obj
 0002:000125b0       L_sign_mask                00000001800695b0     LIBCMT:remainder_piby2_forFMA3.obj
 0002:000125c0       L_twobypi                  00000001800695c0     LIBCMT:remainder_piby2_forFMA3.obj
 0002:000125d0       L_point_five               00000001800695d0     LIBCMT:remainder_piby2_forFMA3.obj
 0002:000125e0       L_int_three                00000001800695e0     LIBCMT:remainder_piby2_forFMA3.obj
 0002:000125f0       L_inf_mask_64              00000001800695f0     LIBCMT:remainder_piby2_forFMA3.obj
 0002:00012600       L_signbit                  0000000180069600     LIBCMT:remainder_piby2_forFMA3.obj
 0002:00012610       L_r                        0000000180069610     LIBCMT:remainder_piby2_forFMA3.obj
 0002:00012620       L_xc1                      0000000180069620     LIBCMT:remainder_piby2_forFMA3.obj
 0002:00012630       L_xc2                      0000000180069630     LIBCMT:remainder_piby2_forFMA3.obj
 0002:00012640       L_xc3                      0000000180069640     LIBCMT:remainder_piby2_forFMA3.obj
 0002:00012650       L_sigma                    0000000180069650     LIBCMT:remainder_piby2_forFMA3.obj
 0002:000157e8       $unwind$_msize             000000018006c7e8     LIBCMT:msize.obj
 0002:000157e8       $unwind$_stricmp           000000018006c7e8     LIBCMT:stricmp.obj
 0002:000157e8       $unwind$_fileno            000000018006c7e8     LIBCMT:fileno.obj
 0002:000157e8       $unwind$_errno             000000018006c7e8     LIBCMT:dosmap.obj
 0002:000157e8       $unwind$_heap_init         000000018006c7e8     LIBCMT:heapinit.obj
 0002:000157e8       $unwind$_set_error_mode    000000018006c7e8     LIBCMT:errmode.obj
 0002:000157e8       $unwind$_isatty            000000018006c7e8     LIBCMT:isatty.obj
 0002:000157e8       $unwind$?IsExecutionTerminating@V8@v8@@SA_NPEAVIsolate@2@@Z 000000018006c7e8     node-opus.obj
 0002:000157e8       $unwind$_mtterm            000000018006c7e8     LIBCMT:tidtable.obj
 0002:000157e8       $unwind$?NodeInit@@YAXV?$Local@VObject@v8@@@v8@@@Z 000000018006c7e8     node-opus.obj
 0002:000157e8       $unwind$_initp_eh_hooks    000000018006c7e8     LIBCMT:hooks.obj
 0002:000157e8       $unwind$_FF_MSGBANNER      000000018006c7e8     LIBCMT:crt0msg.obj
 0002:000157e8       $unwind$?GetId@Script@v8@@QEAAHXZ 000000018006c7e8     node-opus.obj
 0002:000157e8       $unwind$__termconout       000000018006c7e8     LIBCMT:initcon.obj
 0002:000157e8       $unwind$abort              000000018006c7e8     LIBCMT:abort.obj
 0002:000157e8       $unwind$atexit             000000018006c7e8     LIBCMT:onexit.obj
 0002:000157e8       $unwind$__doserrno         000000018006c7e8     LIBCMT:dosmap.obj
 0002:000157e8       $unwind$_invoke_watson     000000018006c7e8     LIBCMT:invarg.obj
 0002:000157e8       $unwind$_get_osfhandle     000000018006c7e8     LIBCMT:osfinfo.obj
 0002:000157e8       $unwind$_purecall          000000018006c7e8     LIBCMT:purevirt.obj
 0002:000157e8       $unwind$__crtDownlevelLocaleNameToLCID 000000018006c7e8     LIBCMT:winapinls.obj
 0002:000157e8       $unwind$_set_errno_from_matherr 000000018006c7e8     LIBCMT:fpexcept.obj
 0002:000157e8       $unwind$__GSHandlerCheck   000000018006c7e8     LIBCMT:gshandler.obj
 0002:000157e8       $unwind$__report_rangecheckfailure 000000018006c7e8     LIBCMT:gs_report.obj
 0002:000157e8       $unwind$_statfp            000000018006c7e8     LIBCMT:fpctrl.obj
 0002:000157e8       $unwind$opus_repacketizer_create 000000018006c7e8     libopus:repacketizer.obj
 0002:000157e8       $unwind$?IsDead@V8@v8@@SA_NXZ 000000018006c7e8     node-opus.obj
 0002:000157e8       $unwind$__crtInitializeCriticalSectionEx 000000018006c7e8     LIBCMT:winapisupp.obj
 0002:000157e8       $unwind$__initmbctable     000000018006c7e8     LIBCMT:mbctype.obj
 0002:000157e8       $unwind$__endstdio         000000018006c7e8     LIBCMT:_file.obj
 0002:000157f0       $unwind$wcsncpy_s          000000018006c7f0     LIBCMT:wcsncpy_s.obj
 0002:000157f0       $unwind$_mtinit            000000018006c7f0     LIBCMT:tidtable.obj
 0002:000157f0       $unwind$wcsncat_s          000000018006c7f0     LIBCMT:wcsncat_s.obj
 0002:000157f0       $unwind$__crtTerminateProcess 000000018006c7f0     LIBCMT:winapisupp.obj
 0002:000157f0       $unwind$?Unref@ObjectWrap@node@@MEAAXXZ 000000018006c7f0     node-opus.obj
 0002:000157f0       $unwind$??_EAllocator@ArrayBuffer@v8@@UEAAPEAXI@Z 000000018006c7f0     node-opus.obj
 0002:000157f0       $unwind$wcscpy_s           000000018006c7f0     LIBCMT:wcscpy_s.obj
 0002:000157f0       $unwind$__crtUnhandledException 000000018006c7f0     LIBCMT:winapisupp.obj
 0002:000157f0       $unwind$wcscat_s           000000018006c7f0     LIBCMT:wcscat_s.obj
 0002:000157f0       $unwind$__crtIsPackagedApp 000000018006c7f0     LIBCMT:winapisupp.obj
 0002:000157f0       $unwind$_freebuf           000000018006c7f0     LIBCMT:_freebuf.obj
 0002:000157f0       $unwind$_lock_file2        000000018006c7f0     LIBCMT:_file.obj
 0002:000157f0       $unwind$_callnewh          000000018006c7f0     LIBCMT:handler.obj
 0002:000157f0       $unwind$ec_dec_bit_logp    000000018006c7f0     libopus:entdec.obj
 0002:000157f0       $unwind$?Ref@ObjectWrap@node@@MEAAXXZ 000000018006c7f0     node-opus.obj
 0002:000157f0       $unwind$??_EExternalResourceVisitor@v8@@UEAAPEAXI@Z 000000018006c7f0     node-opus.obj
 0002:000157f0       $unwind$opus_encoder_get_size 000000018006c7f0     libopus:opus_encoder.obj
 0002:000157f0       $unwind$_getbuf            000000018006c7f0     LIBCMT:_getbuf.obj
 0002:000157f0       $unwind$??0Scope@Isolate@v8@@QEAA@PEAV12@@Z 000000018006c7f0     node-opus.obj
 0002:000157f0       $unwind$?RemoveMessageListeners@V8@v8@@SAXP6AXV?$Local@VMessage@v8@@@2@V?$Local@VValue@v8@@@2@@Z@Z 000000018006c7f0     node-opus.obj
 0002:000157f0       $unwind$_set_statfp        000000018006c7f0     LIBCMT:fpctrl.obj
 0002:000157f0       $unwind$??_EExternalOneByteStringResource@String@v8@@UEAAPEAXI@Z 000000018006c7f0     node-opus.obj
 0002:000157f0       $unwind$__crtLoadWinApiPointers 000000018006c7f0     LIBCMT:winapisupp.obj
 0002:000157f0       $unwind$_lock_file         000000018006c7f0     LIBCMT:_file.obj
 0002:000157f0       $unwind$__GSHandlerCheckCommon 000000018006c7f0     LIBCMT:gshandler.obj
 0002:000157f0       $unwind$?SetFailedAccessCheckCallbackFunction@V8@v8@@SAXP6AXV?$Local@VObject@v8@@@2@W4AccessType@2@V?$Local@VValue@v8@@@2@@Z@Z 000000018006c7f0     node-opus.obj
 0002:000157f0       $unwind$__onexitinit       000000018006c7f0     LIBCMT:onexit.obj
 0002:000157f0       $unwind$??_EExternalStringResource@String@v8@@UEAAPEAXI@Z 000000018006c7f0     node-opus.obj
 0002:000157f0       $unwind$?SetAllowCodeGenerationFromStringsCallback@V8@v8@@SAXP6A_NV?$Local@VContext@v8@@@2@@Z@Z 000000018006c7f0     node-opus.obj
 0002:000157f0       $unwind$??1ObjectWrap@node@@UEAA@XZ 000000018006c7f0     node-opus.obj
 0002:000157f0       $unwind$?VisitHandlesWithClassIds@V8@v8@@SAXPEAVPersistentHandleVisitor@2@@Z 000000018006c7f0     node-opus.obj
 0002:000157f0       $unwind$??0Unlocker@v8@@QEAA@PEAVIsolate@1@@Z 000000018006c7f0     node-opus.obj
 0002:000157f0       $unwind$load_exe_hook      000000018006c7f0     win_delay_load_hook.obj
 0002:000157f0       $unwind$write_char         000000018006c7f0     LIBCMT:woutput.obj
 0002:000157f0       $unwind$??0bad_alloc@std@@QEAA@AEBV01@@Z 000000018006c7f0     libcpmt:xthrow.obj
 0002:000157f0       $unwind$?GetEmbedderData@Context@v8@@QEAA?AV?$Local@VValue@v8@@@2@H@Z 000000018006c7f0     node-opus.obj
 0002:000157f0       $unwind$??0exception@std@@QEAA@AEBV01@@Z 000000018006c7f0     LIBCMT:stdexcpt.obj
 0002:000157f0       $unwind$??0Locker@v8@@QEAA@PEAVIsolate@1@@Z 000000018006c7f0     node-opus.obj
 0002:000157f0       $unwind$_init_pointers     000000018006c7f0     LIBCMT:crt0dat.obj
 0002:000157f0       $unwind$??_EExternalStringResourceBase@String@v8@@UEAAPEAXI@Z 000000018006c7f0     node-opus.obj
 0002:000157f0       $unwind$?VisitExternalResources@V8@v8@@SAXPEAVExternalResourceVisitor@2@@Z 000000018006c7f0     node-opus.obj
 0002:000157f0       $unwind$??_EExternalOneByteStringResourceImpl@v8@@UEAAPEAXI@Z 000000018006c7f0     node-opus.obj
 0002:000157f0       $unwind$_clrfp             000000018006c7f0     LIBCMT:fpctrl.obj
 0002:000157f0       $unwind$?SetFatalErrorHandler@V8@v8@@SAXP6AXPEBD0@Z@Z 000000018006c7f0     node-opus.obj
 0002:000157f0       $unwind$?_Tidy@exception@std@@AEAAXXZ 000000018006c7f0     LIBCMT:stdexcpt.obj
 0002:000157f0       $unwind$?RemoveMemoryAllocationCallback@V8@v8@@SAXP6AXW4ObjectSpace@2@W4AllocationAction@2@H@Z@Z 000000018006c7f0     node-opus.obj
 0002:000157f0       $unwind$_cinit             000000018006c7f0     LIBCMT:crt0dat.obj
 0002:000157f0       $unwind$?RemoveGCPrologueCallback@V8@v8@@SAXP6AXW4GCType@2@W4GCCallbackFlags@2@@Z@Z 000000018006c7f0     node-opus.obj
 0002:000157f0       $unwind$?GetInternalField@Object@v8@@QEAA?AV?$Local@VValue@v8@@@2@H@Z 000000018006c7f0     node-opus.obj
 0002:000157f0       $unwind$??_EExternalSourceStream@ScriptCompiler@v8@@UEAAPEAXI@Z 000000018006c7f0     node-opus.obj
 0002:000157f0       $unwind$__crtCorExitProcess 000000018006c7f0     LIBCMT:crt0dat.obj
 0002:000157f0       $unwind$??_EExtension@v8@@UEAAPEAXI@Z 000000018006c7f0     node-opus.obj
 0002:000157f0       $unwind$_freeptd           000000018006c7f0     LIBCMT:tidtable.obj
 0002:000157f0       $unwind$__raise_securityfailure 000000018006c7f0     LIBCMT:gs_report.obj
 0002:000157f0       $unwind$__crtExitProcess   000000018006c7f0     LIBCMT:crt0dat.obj
 0002:000157f0       $unwind$_getptd            000000018006c7f0     LIBCMT:tidtable.obj
 0002:000157f0       $unwind$?RemoveGCEpilogueCallback@V8@v8@@SAXP6AXW4GCType@2@W4GCCallbackFlags@2@@Z@Z 000000018006c7f0     node-opus.obj
 0002:000157f0       $unwind$ec_laplace_encode  000000018006c7f0     libopus:laplace.obj
 0002:000157f0       $unwind$_amsg_exit         000000018006c7f0     LIBCMT:crt0dat.obj
 0002:000157f0       $unwind$??0_LocaleUpdate@@QEAA@PEAUlocaleinfo_struct@@@Z 000000018006c7f0     LIBCMT:stricmp.obj
 0002:000157f0       $unwind$opus_decoder_get_size 000000018006c7f0     libopus:opus_decoder.obj
 0002:000157f0       $unwind$_fflush_nolock     000000018006c7f0     LIBCMT:fflush.obj
 0002:000157f0       $unwind$??_EPersistentHandleVisitor@v8@@UEAAPEAXI@Z 000000018006c7f0     node-opus.obj
 0002:000157f0       $unwind$strcpy_s           000000018006c7f0     LIBCMT:strcpy_s.obj
 0002:000157f8       $chain$0$??_EExternalSourceStream@ScriptCompiler@v8@@UEAAPEAXI@Z 000000018006c7f8     node-opus.obj
 0002:0001580c       $chain$1$??_EExternalSourceStream@ScriptCompiler@v8@@UEAAPEAXI@Z 000000018006c80c     node-opus.obj
 0002:0001581c       $chain$0$??_EExternalOneByteStringResource@String@v8@@UEAAPEAXI@Z 000000018006c81c     node-opus.obj
 0002:0001581c       $chain$0$??_EExternalStringResourceBase@String@v8@@UEAAPEAXI@Z 000000018006c81c     node-opus.obj
 0002:0001581c       $chain$0$??_EExternalStringResource@String@v8@@UEAAPEAXI@Z 000000018006c81c     node-opus.obj
 0002:00015830       $chain$1$??_EExternalOneByteStringResource@String@v8@@UEAAPEAXI@Z 000000018006c830     node-opus.obj
 0002:00015830       $chain$1$??_EExternalStringResourceBase@String@v8@@UEAAPEAXI@Z 000000018006c830     node-opus.obj
 0002:00015830       $chain$1$??_EExternalStringResource@String@v8@@UEAAPEAXI@Z 000000018006c830     node-opus.obj
 0002:00015840       $unwind$_fassign_l         000000018006c840     LIBCMT:cvt.obj
 0002:00015840       $unwind$?NewInstance@Function@v8@@QEBA?AV?$MaybeLocal@VObject@v8@@@2@V?$Local@VContext@v8@@@2@@Z 000000018006c840     node-opus.obj
 0002:00015848       $chain$0$??_EAllocator@ArrayBuffer@v8@@UEAAPEAXI@Z 000000018006c848     node-opus.obj
 0002:0001585c       $chain$1$??_EAllocator@ArrayBuffer@v8@@UEAAPEAXI@Z 000000018006c85c     node-opus.obj
 0002:0001586c       $unwind$?SetIndexedPropertyHandler@ObjectTemplate@v8@@QEAAXP6AXIAEBV?$PropertyCallbackInfo@VValue@v8@@@2@@ZP6AXIV?$Local@VValue@v8@@@2@0@ZP6AXIAEBV?$PropertyCallbackInfo@VInteger@v8@@@2@@ZP6AXIAEBV?$PropertyCallbackInfo@VBoolean@v8@@@2@@ZP6AXAEBV?$PropertyCallbackInfo@VArray@v8@@@2@@Z2@Z 000000018006c86c     node-opus.obj
 0002:00015874       $chain$0$??_EExternalOneByteStringResourceImpl@v8@@UEAAPEAXI@Z 000000018006c874     node-opus.obj
 0002:00015888       $chain$1$??_EExternalOneByteStringResourceImpl@v8@@UEAAPEAXI@Z 000000018006c888     node-opus.obj
 0002:00015898       $chain$0$??_EExtension@v8@@UEAAPEAXI@Z 000000018006c898     node-opus.obj
 0002:000158ac       $chain$1$??_EExtension@v8@@UEAAPEAXI@Z 000000018006c8ac     node-opus.obj
 0002:000158bc       $chain$0$??_EExternalResourceVisitor@v8@@UEAAPEAXI@Z 000000018006c8bc     node-opus.obj
 0002:000158bc       $chain$0$??_EPersistentHandleVisitor@v8@@UEAAPEAXI@Z 000000018006c8bc     node-opus.obj
 0002:000158d0       $chain$1$??_EExternalResourceVisitor@v8@@UEAAPEAXI@Z 000000018006c8d0     node-opus.obj
 0002:000158d0       $chain$1$??_EPersistentHandleVisitor@v8@@UEAAPEAXI@Z 000000018006c8d0     node-opus.obj
 0002:000158e0       $unwind$?Set@Template@v8@@QEAAXPEAVIsolate@2@PEBDV?$Local@VData@v8@@@2@@Z 000000018006c8e0     node-opus.obj
 0002:000158ec       $unwind$_updatetlocinfoEx_nolock 000000018006c8ec     LIBCMT:localref.obj
 0002:000158ec       $unwind$??_GOpusEncoder@@UEAAPEAXI@Z 000000018006c8ec     node-opus.obj
 0002:000158ec       $unwind$opus_packet_get_nb_samples 000000018006c8ec     libopus:opus_decoder.obj
 0002:000158ec       $unwind$??_Gbad_alloc@std@@UEAAPEAXI@Z 000000018006c8ec     libcpmt:xthrow.obj
 0002:000158ec       $unwind$?ToObject@Value@v8@@QEBA?AV?$Local@VObject@v8@@@2@XZ 000000018006c8ec     node-opus.obj
 0002:000158ec       $unwind$_initp_misc_cfltcvt_tab 000000018006c8ec     LIBCMT:cmiscdat.obj
 0002:000158ec       $unwind$_initterm_e        000000018006c8ec     LIBCMT:crt0dat.obj
 0002:000158ec       $unwind$??_GObjectWrap@node@@UEAAPEAXI@Z 000000018006c8ec     node-opus.obj
 0002:000158ec       $unwind$__initstdio        000000018006c8ec     LIBCMT:_file.obj
 0002:000158ec       $unwind$_dosmaperr         000000018006c8ec     LIBCMT:dosmap.obj
 0002:000158ec       $unwind$__freeCrtMemory    000000018006c8ec     LIBCMT:crt0dat.obj
 0002:000158ec       $unwind$_calloc_impl       000000018006c8ec     LIBCMT:calloc_impl.obj
 0002:000158ec       $unwind$_fptostr           000000018006c8ec     LIBCMT:_fptostr.obj
 0002:000158ec       $unwind$silk_PLC_update    000000018006c8ec     libopus:PLC.obj
 0002:000158ec       $unwind$??_Gtype_info@@UEAAPEAXI@Z 000000018006c8ec     LIBCMT:typinfo.obj
 0002:000158ec       $unwind$??4exception@std@@QEAAAEAV01@AEBV01@@Z 000000018006c8ec     LIBCMT:stdexcpt.obj
 0002:000158ec       $unwind$_lock              000000018006c8ec     LIBCMT:mlock.obj
 0002:000158ec       $unwind$?AdjustAmountOfExternalAllocatedMemory@Isolate@v8@@QEAA_J_J@Z 000000018006c8ec     node-opus.obj
 0002:000158ec       $unwind$??_Gexception@std@@UEAAPEAXI@Z 000000018006c8ec     LIBCMT:stdexcpt.obj
 0002:000158ec       $unwind$_fclose_nolock     000000018006c8ec     LIBCMT:fclose.obj
 0002:000158ec       $unwind$?ToBoolean@Value@v8@@QEBA?AV?$Local@VBoolean@v8@@@2@XZ 000000018006c8ec     node-opus.obj
 0002:000158ec       $unwind$?ToInt32@Value@v8@@QEBA?AV?$Local@VInt32@v8@@@2@XZ 000000018006c8ec     node-opus.obj
 0002:000158ec       $unwind$?ToNumber@Value@v8@@QEBA?AV?$Local@VNumber@v8@@@2@XZ 000000018006c8ec     node-opus.obj
 0002:000158ec       $unwind$?ToUint32@Value@v8@@QEBA?AV?$Local@VUint32@v8@@@2@XZ 000000018006c8ec     node-opus.obj
 0002:000158ec       $unwind$_RTC_Initialize    000000018006c8ec     LIBCMT:initsect.obj
 0002:000158ec       $unwind$_getptd_noexit     000000018006c8ec     LIBCMT:tidtable.obj
 0002:000158ec       $unwind$?ToString@Value@v8@@QEBA?AV?$Local@VString@v8@@@2@XZ 000000018006c8ec     node-opus.obj
 0002:000158ec       $unwind$_close_nolock      000000018006c8ec     LIBCMT:close.obj
 0002:000158ec       $unwind$?ToInteger@Value@v8@@QEBA?AV?$Local@VInteger@v8@@@2@XZ 000000018006c8ec     node-opus.obj
 0002:000158ec       $unwind$_RTC_Terminate     000000018006c8ec     LIBCMT:initsect.obj
 0002:000158ec       $unwind$?ToDetailString@Value@v8@@QEBA?AV?$Local@VString@v8@@@2@XZ 000000018006c8ec     node-opus.obj
 0002:000158ec       $unwind$silk_init_encoder  000000018006c8ec     libopus:init_encoder.obj
 0002:000158f8       $unwind$free               000000018006c8f8     LIBCMT:free.obj
 0002:000158f8       $unwind$?AddMessageListener@V8@v8@@SA_NP6AXV?$Local@VMessage@v8@@@2@V?$Local@VValue@v8@@@2@@Z1@Z 000000018006c8f8     node-opus.obj
 0002:000158f8       $unwind$__free_lconv_num   000000018006c8f8     LIBCMT:initnum.obj
 0002:00015900       $unwind$ec_enc_uint        000000018006c900     libopus:entenc.obj
 0002:00015900       $unwind$memcpy_s           000000018006c900     LIBCMT:memcpy_s.obj
 0002:00015900       $unwind$realloc            000000018006c900     LIBCMT:realloc.obj
 0002:00015900       $unwind$celt_decoder_init  000000018006c900     libopus:celt_decoder.obj
 0002:00015900       $unwind$opus_custom_decoder_init 000000018006c900     libopus:celt_decoder.obj
 0002:00015900       $unwind$_flush             000000018006c900     LIBCMT:fflush.obj
 0002:00015900       $unwind$?SetCaptureStackTraceForUncaughtExceptions@V8@v8@@SAX_NHW4StackTraceOptions@StackTrace@2@@Z 000000018006c900     node-opus.obj
 0002:00015900       $unwind$_lseeki64_nolock   000000018006c900     LIBCMT:lseeki64.obj
 0002:00015900       $unwind$?AddMemoryAllocationCallback@V8@v8@@SAXP6AXW4ObjectSpace@2@W4AllocationAction@2@H@Z01@Z 000000018006c900     node-opus.obj
 0002:00015900       $unwind$_exception_enabled 000000018006c900     LIBCMT:libm_error.obj
 0002:00015900       $unwind$_DllMainCRTStartup 000000018006c900     LIBCMT:dllcrt0.obj
 0002:00015900       $unwind$silk_stereo_encode_pred 000000018006c900     libopus:stereo_encode_pred.obj
 0002:00015900       $unwind$malloc             000000018006c900     LIBCMT:malloc.obj
 0002:00015900       $unwind$_ioterm            000000018006c900     LIBCMT:ioinit.obj
 0002:00015900       $unwind$_mtinitlocks       000000018006c900     LIBCMT:mlock.obj
 0002:00015910       $unwind$?Wrap@ObjectWrap@node@@IEAAXV?$Local@VObject@v8@@@v8@@@Z 000000018006c910     node-opus.obj
 0002:0001591c       $unwind$_stricmp_l         000000018006c91c     LIBCMT:stricmp.obj
 0002:0001591c       $unwind$?WeakCallback@ObjectWrap@node@@CAXAEBV?$WeakCallbackData@VObject@v8@@VObjectWrap@node@@@v8@@@Z 000000018006c91c     node-opus.obj
 0002:0001591c       $unwind$?x_ismbbtype_l@@YAHPEAUlocaleinfo_struct@@IHH@Z 000000018006c91c     LIBCMT:ismbbyte.obj
 0002:0001592c       $unwind$_setargv           000000018006c92c     LIBCMT:stdargv.obj
 0002:0001592c       $unwind$?FunctionCallbackWrapper@imp@Nan@@YAXAEBV?$FunctionCallbackInfo@VValue@v8@@@v8@@@Z 000000018006c92c     node-opus.obj
 0002:0001593c       $unwind$?New@?$Factory@VFunctionTemplate@v8@@@imp@Nan@@SA?AV?$Local@VFunctionTemplate@v8@@@v8@@P6AXAEBV?$FunctionCallbackInfo@VValue@v8@@@3@@ZV?$Local@VValue@v8@@@5@V?$Local@VSignature@v8@@@5@@Z 000000018006c93c     node-opus.obj
 0002:00015948       $chain$0$?New@?$Factory@VFunctionTemplate@v8@@@imp@Nan@@SA?AV?$Local@VFunctionTemplate@v8@@@v8@@P6AXAEBV?$FunctionCallbackInfo@VValue@v8@@@3@@ZV?$Local@VValue@v8@@@5@V?$Local@VSignature@v8@@@5@@Z 000000018006c948     node-opus.obj
 0002:0001595c       $chain$1$?New@?$Factory@VFunctionTemplate@v8@@@imp@Nan@@SA?AV?$Local@VFunctionTemplate@v8@@@v8@@P6AXAEBV?$FunctionCallbackInfo@VValue@v8@@@3@@ZV?$Local@VValue@v8@@@5@V?$Local@VSignature@v8@@@5@@Z 000000018006c95c     node-opus.obj
 0002:0001596c       $unwind$?Encode@OpusEncoder@@SAXAEBV?$FunctionCallbackInfo@VValue@v8@@@Nan@@@Z 000000018006c96c     node-opus.obj
 0002:0001597c       $chain$3$?Encode@OpusEncoder@@SAXAEBV?$FunctionCallbackInfo@VValue@v8@@@Nan@@@Z 000000018006c97c     node-opus.obj
 0002:00015998       $chain$4$?Encode@OpusEncoder@@SAXAEBV?$FunctionCallbackInfo@VValue@v8@@@Nan@@@Z 000000018006c998     node-opus.obj
 0002:000159ac       $chain$5$?Encode@OpusEncoder@@SAXAEBV?$FunctionCallbackInfo@VValue@v8@@@Nan@@@Z 000000018006c9ac     node-opus.obj
 0002:000159bc       $unwind$?Decode@OpusEncoder@@SAXAEBV?$FunctionCallbackInfo@VValue@v8@@@Nan@@@Z 000000018006c9bc     node-opus.obj
 0002:000159c8       $chain$1$?Decode@OpusEncoder@@SAXAEBV?$FunctionCallbackInfo@VValue@v8@@@Nan@@@Z 000000018006c9c8     node-opus.obj
 0002:000159e0       $chain$3$?Decode@OpusEncoder@@SAXAEBV?$FunctionCallbackInfo@VValue@v8@@@Nan@@@Z 000000018006c9e0     node-opus.obj
 0002:000159f8       $chain$4$?Decode@OpusEncoder@@SAXAEBV?$FunctionCallbackInfo@VValue@v8@@@Nan@@@Z 000000018006c9f8     node-opus.obj
 0002:00015a08       $unwind$?SetBitrate@OpusEncoder@@SAXAEBV?$FunctionCallbackInfo@VValue@v8@@@Nan@@@Z 000000018006ca08     node-opus.obj
 0002:00015a10       $chain$0$?SetBitrate@OpusEncoder@@SAXAEBV?$FunctionCallbackInfo@VValue@v8@@@Nan@@@Z 000000018006ca10     node-opus.obj
 0002:00015a24       $chain$1$?SetBitrate@OpusEncoder@@SAXAEBV?$FunctionCallbackInfo@VValue@v8@@@Nan@@@Z 000000018006ca24     node-opus.obj
 0002:00015a34       $unwind$?GetBitrate@OpusEncoder@@SAXAEBV?$FunctionCallbackInfo@VValue@v8@@@Nan@@@Z 000000018006ca34     node-opus.obj
 0002:00015a40       $unwind$?New@OpusEncoder@@SAXAEBV?$FunctionCallbackInfo@VValue@v8@@@Nan@@@Z 000000018006ca40     node-opus.obj
 0002:00015a48       $chain$3$?New@OpusEncoder@@SAXAEBV?$FunctionCallbackInfo@VValue@v8@@@Nan@@@Z 000000018006ca48     node-opus.obj
 0002:00015a68       $chain$4$?New@OpusEncoder@@SAXAEBV?$FunctionCallbackInfo@VValue@v8@@@Nan@@@Z 000000018006ca68     node-opus.obj
 0002:00015a78       $unwind$?Init@OpusEncoder@@SAXV?$Local@VObject@v8@@@v8@@@Z 000000018006ca78     node-opus.obj
 0002:00015a84       $unwind$??$Unwrap@VOpusEncoder@@@ObjectWrap@node@@SAPEAVOpusEncoder@@V?$Local@VObject@v8@@@v8@@@Z 000000018006ca84     node-opus.obj
 0002:00015a8c       $unwind$opus_decoder_init  000000018006ca8c     libopus:opus_decoder.obj
 0002:00015aa0       $unwind$opus_decoder_create 000000018006caa0     libopus:opus_decoder.obj
 0002:00015ab4       $unwind$smooth_fade        000000018006cab4     libopus:opus_decoder.obj
 0002:00015ac8       $chain$2$smooth_fade       000000018006cac8     libopus:opus_decoder.obj
 0002:00015ae4       $chain$3$smooth_fade       000000018006cae4     libopus:opus_decoder.obj
 0002:00015af4       $unwind$opus_decode_frame  000000018006caf4     libopus:opus_decoder.obj
 0002:00015b14       $unwind$opus_decode_native 000000018006cb14     libopus:opus_decoder.obj
 0002:00015b2c       $unwind$opus_decode        000000018006cb2c     libopus:opus_decoder.obj
 0002:00015b54       $unwind$floor              000000018006cb54     LIBCMT:floor.obj
 0002:00015b54       $unwind$_sincos_special    000000018006cb54     LIBCMT:sincos_special.obj
 0002:00015b54       $unwind$opus_decode_float  000000018006cb54     libopus:opus_decoder.obj
 0002:00015b5c       $unwind$opus_decoder_ctl   000000018006cb5c     libopus:opus_decoder.obj
 0002:00015b5c       $unwind$opus_custom_decoder_ctl 000000018006cb5c     libopus:celt_decoder.obj
 0002:00015b68       $unwind$silk_LPC_analysis_filter16_FLP 000000018006cb68     libopus:LPC_analysis_filter_FLP.obj
 0002:00015b68       $unwind$tonality_get_info  000000018006cb68     libopus:analysis.obj
 0002:00015b68       $unwind$celt_inner_prod_sse 000000018006cb68     libopus:pitch.obj
 0002:00015b68       $unwind$silk_LPC_analysis_filter8_FLP 000000018006cb68     libopus:LPC_analysis_filter_FLP.obj
 0002:00015b68       $unwind$silk_corrVector_FLP 000000018006cb68     libopus:corrMatrix_FLP.obj
 0002:00015b68       $unwind$icwrs              000000018006cb68     libopus:cwrs.obj
 0002:00015b68       $unwind$silk_LPC_analysis_filter12_FLP 000000018006cb68     libopus:LPC_analysis_filter_FLP.obj
 0002:00015b68       $unwind$silk_LPC_analysis_filter10_FLP 000000018006cb68     libopus:LPC_analysis_filter_FLP.obj
 0002:00015b68       $unwind$ec_enc_bits        000000018006cb68     libopus:entenc.obj
 0002:00015b68       $unwind$silk_DIV32_varQ    000000018006cb68     libopus:stereo_find_predictor.obj
 0002:00015b68       $unwind$silk_LPC_analysis_filter6_FLP 000000018006cb68     libopus:LPC_analysis_filter_FLP.obj
 0002:00015b68       $unwind$celt_inner_prod_sse 000000018006cb68     libopus:celt_encoder.obj
 0002:00015b68       $unwind$celt_inner_prod_sse 000000018006cb68     libopus:opus_encoder.obj
 0002:00015b68       $unwind$opus_custom_mode_create 000000018006cb68     libopus:modes.obj
 0002:00015b68       $unwind$celt_inner_prod_sse 000000018006cb68     libopus:vq.obj
 0002:00015b68       $unwind$silk_DIV32_varQ    000000018006cb68     libopus:stereo_LR_to_MS.obj
 0002:00015b74       $unwind$opus_encoder_init  000000018006cb74     libopus:opus_encoder.obj
 0002:00015b84       $chain$2$opus_encoder_init 000000018006cb84     libopus:opus_encoder.obj
 0002:00015ba0       $chain$4$opus_encoder_init 000000018006cba0     libopus:opus_encoder.obj
 0002:00015bbc       $chain$5$opus_encoder_init 000000018006cbbc     libopus:opus_encoder.obj
 0002:00015bcc       $unwind$silk_biquad_float  000000018006cbcc     libopus:opus_encoder.obj
 0002:00015bf0       $chain$5$silk_biquad_float 000000018006cbf0     libopus:opus_encoder.obj
 0002:00015c18       $chain$6$silk_biquad_float 000000018006cc18     libopus:opus_encoder.obj
 0002:00015c28       $unwind$hp_cutoff          000000018006cc28     libopus:opus_encoder.obj
 0002:00015c3c       $unwind$dc_reject          000000018006cc3c     libopus:opus_encoder.obj
 0002:00015c48       $chain$5$dc_reject         000000018006cc48     libopus:opus_encoder.obj
 0002:00015c70       $chain$6$dc_reject         000000018006cc70     libopus:opus_encoder.obj
 0002:00015c80       $unwind$stereo_fade        000000018006cc80     libopus:opus_encoder.obj
 0002:00015c98       $chain$0$stereo_fade       000000018006cc98     libopus:opus_encoder.obj
 0002:00015cac       $chain$1$stereo_fade       000000018006ccac     libopus:opus_encoder.obj
 0002:00015cbc       $unwind$gain_fade          000000018006ccbc     libopus:opus_encoder.obj
 0002:00015cd8       $unwind$opus_encoder_create 000000018006ccd8     libopus:opus_encoder.obj
 0002:00015cec       $chain$0$opus_encoder_create 000000018006ccec     libopus:opus_encoder.obj
 0002:00015d00       $chain$3$opus_encoder_create 000000018006cd00     libopus:opus_encoder.obj
 0002:00015d00       $chain$1$opus_encoder_create 000000018006cd00     libopus:opus_encoder.obj
 0002:00015d10       $chain$2$opus_encoder_create 000000018006cd10     libopus:opus_encoder.obj
 0002:00015d24       $unwind$transient_boost    000000018006cd24     libopus:opus_encoder.obj
 0002:00015d34       $unwind$transient_viterbi  000000018006cd34     libopus:opus_encoder.obj
 0002:00015d48       $chain$7$transient_viterbi 000000018006cd48     libopus:opus_encoder.obj
 0002:00015d78       $chain$12$transient_viterbi 000000018006cd78     libopus:opus_encoder.obj
 0002:00015d9c       $chain$13$transient_viterbi 000000018006cd9c     libopus:opus_encoder.obj
 0002:00015dac       $chain$14$transient_viterbi 000000018006cdac     libopus:opus_encoder.obj
 0002:00015dc0       $chain$15$transient_viterbi 000000018006cdc0     libopus:opus_encoder.obj
 0002:00015dd0       $unwind$optimize_framesize 000000018006cdd0     libopus:opus_encoder.obj
 0002:00015e04       $unwind$downmix_float      000000018006ce04     libopus:opus_encoder.obj
 0002:00015e0c       $chain$6$downmix_float     000000018006ce0c     libopus:opus_encoder.obj
 0002:00015e38       $chain$7$downmix_float     000000018006ce38     libopus:opus_encoder.obj
 0002:00015e50       $chain$8$downmix_float     000000018006ce50     libopus:opus_encoder.obj
 0002:00015e60       $unwind$downmix_int        000000018006ce60     libopus:opus_encoder.obj
 0002:00015e68       $chain$6$downmix_int       000000018006ce68     libopus:opus_encoder.obj
 0002:00015e94       $chain$7$downmix_int       000000018006ce94     libopus:opus_encoder.obj
 0002:00015ea8       $chain$8$downmix_int       000000018006cea8     libopus:opus_encoder.obj
 0002:00015eb8       $unwind$compute_frame_size 000000018006ceb8     libopus:opus_encoder.obj
 0002:00015ec8       $unwind$compute_stereo_width 000000018006cec8     libopus:opus_encoder.obj
 0002:00015ed4       $chain$7$compute_stereo_width 000000018006ced4     libopus:opus_encoder.obj
 0002:00015f04       $chain$8$compute_stereo_width 000000018006cf04     libopus:opus_encoder.obj
 0002:00015f18       $chain$9$compute_stereo_width 000000018006cf18     libopus:opus_encoder.obj
 0002:00015f28       $chain$10$compute_stereo_width 000000018006cf28     libopus:opus_encoder.obj
 0002:00015f38       $unwind$opus_encode_native 000000018006cf38     libopus:opus_encoder.obj
 0002:00015f70       $unwind$opus_encode        000000018006cf70     libopus:opus_encoder.obj
 0002:00015f98       $unwind$opus_encode_float  000000018006cf98     libopus:opus_encoder.obj
 0002:00015fb0       $unwind$opus_encoder_ctl   000000018006cfb0     libopus:opus_encoder.obj
 0002:00015fc0       $chain$1$opus_encoder_ctl  000000018006cfc0     libopus:opus_encoder.obj
 0002:00015fd8       $chain$2$opus_encoder_ctl  000000018006cfd8     libopus:opus_encoder.obj
 0002:00015fe8       $unwind$opus_pcm_soft_clip 000000018006cfe8     libopus:opus.obj
 0002:00015ff4       $chain$0$opus_pcm_soft_clip 000000018006cff4     libopus:opus.obj
 0002:00016008       $chain$11$opus_pcm_soft_clip 000000018006d008     libopus:opus.obj
 0002:00016044       $chain$12$opus_pcm_soft_clip 000000018006d044     libopus:opus.obj
 0002:00016054       $chain$13$opus_pcm_soft_clip 000000018006d054     libopus:opus.obj
 0002:00016064       $unwind$opus_packet_parse_impl 000000018006d064     libopus:opus.obj
 0002:0001607c       $unwind$__initconout       000000018006d07c     LIBCMT:initcon.obj
 0002:0001607c       $unwind$opus_repacketizer_out 000000018006d07c     libopus:repacketizer.obj
 0002:0001607c       $unwind$_cfltcvt           000000018006d07c     LIBCMT:cvt.obj
 0002:0001607c       $unwind$_raise_exc         000000018006d07c     LIBCMT:fpexcept.obj
 0002:0001607c       $unwind$opus_repacketizer_out_range 000000018006d07c     libopus:repacketizer.obj
 0002:0001607c       $unwind$opus_packet_parse  000000018006d07c     libopus:opus.obj
 0002:00016084       $unwind$ec_dec_normalize   000000018006d084     libopus:entdec.obj
 0002:00016084       $unwind$silk_control_SNR   000000018006d084     libopus:control_SNR.obj
 0002:0001608c       $chain$1$ec_dec_normalize  000000018006d08c     libopus:entdec.obj
 0002:000160a4       $chain$2$ec_dec_normalize  000000018006d0a4     libopus:entdec.obj
 0002:000160b4       $unwind$xtow_s             000000018006d0b4     LIBCMT:xtows.obj
 0002:000160b4       $unwind$?setSBCS@@YAXPEAUthreadmbcinfostruct@@@Z 000000018006d0b4     LIBCMT:mbctype.obj
 0002:000160b4       $unwind$ec_dec_uint        000000018006d0b4     libopus:entdec.obj
 0002:000160b4       $unwind$opus_custom_encoder_init_arch 000000018006d0b4     libopus:celt_encoder.obj
 0002:000160b4       $unwind$__freetlocinfo     000000018006d0b4     LIBCMT:localref.obj
 0002:000160b4       $unwind$_initterm          000000018006d0b4     LIBCMT:crt0dat.obj
 0002:000160b4       $unwind$_mtdeletelocks     000000018006d0b4     LIBCMT:mlock.obj
 0002:000160b4       $unwind$celt_encoder_init  000000018006d0b4     libopus:celt_encoder.obj
 0002:000160b4       $unwind$_XcptFilter        000000018006d0b4     LIBCMT:winxfltr.obj
 0002:000160c8       $unwind$silk_scale_copy_vector_FLP 000000018006d0c8     libopus:scale_copy_vector_FLP.obj
 0002:000160c8       $unwind$ec_dec_bits        000000018006d0c8     libopus:entdec.obj
 0002:000160d0       $chain$0$ec_dec_bits       000000018006d0d0     libopus:entdec.obj
 0002:000160e4       $chain$1$ec_dec_bits       000000018006d0e4     libopus:entdec.obj
 0002:000160f4       $unwind$deemphasis         000000018006d0f4     libopus:celt_decoder.obj
 0002:0001611c       $unwind$celt_synthesis     000000018006d11c     libopus:celt_decoder.obj
 0002:00016144       $unwind$tf_decode          000000018006d144     libopus:celt_decoder.obj
 0002:0001615c       $unwind$celt_plc_pitch_search 000000018006d15c     libopus:celt_decoder.obj
 0002:00016174       $unwind$celt_decode_lost   000000018006d174     libopus:celt_decoder.obj
 0002:000161b4       $unwind$celt_decode_with_ec 000000018006d1b4     libopus:celt_decoder.obj
 0002:000161e4       $unwind$silk_InitDecoder   000000018006d1e4     libopus:dec_API.obj
 0002:000161fc       $unwind$silk_Decode        000000018006d1fc     libopus:dec_API.obj
 0002:00016220       $unwind$opus_repacketizer_cat_impl 000000018006d220     libopus:repacketizer.obj
 0002:00016234       $chain$1$opus_repacketizer_cat_impl 000000018006d234     libopus:repacketizer.obj
 0002:00016248       $chain$4$opus_repacketizer_cat_impl 000000018006d248     libopus:repacketizer.obj
 0002:00016248       $chain$2$opus_repacketizer_cat_impl 000000018006d248     libopus:repacketizer.obj
 0002:00016258       $chain$3$opus_repacketizer_cat_impl 000000018006d258     libopus:repacketizer.obj
 0002:0001626c       $unwind$opus_repacketizer_out_range_impl 000000018006d26c     libopus:repacketizer.obj
 0002:00016274       $chain$6$opus_repacketizer_out_range_impl 000000018006d274     libopus:repacketizer.obj
 0002:000162a0       $chain$8$opus_repacketizer_out_range_impl 000000018006d2a0     libopus:repacketizer.obj
 0002:000162cc       $chain$9$opus_repacketizer_out_range_impl 000000018006d2cc     libopus:repacketizer.obj
 0002:000162dc       $unwind$opus_packet_pad    000000018006d2dc     libopus:repacketizer.obj
 0002:000162f4       $chain$1$opus_packet_pad   000000018006d2f4     libopus:repacketizer.obj
 0002:0001630c       $chain$2$opus_packet_pad   000000018006d30c     libopus:repacketizer.obj
 0002:0001631c       $unwind$opus_packet_unpad  000000018006d31c     libopus:repacketizer.obj
 0002:00016334       $unwind$opus_multistream_packet_pad 000000018006d334     libopus:repacketizer.obj
 0002:0001634c       $chain$2$opus_multistream_packet_pad 000000018006d34c     libopus:repacketizer.obj
 0002:00016368       $chain$3$opus_multistream_packet_pad 000000018006d368     libopus:repacketizer.obj
 0002:00016378       $chain$4$opus_multistream_packet_pad 000000018006d378     libopus:repacketizer.obj
 0002:00016394       $unwind$opus_multistream_packet_unpad 000000018006d394     libopus:repacketizer.obj
 0002:000163ac       $chain$4$opus_multistream_packet_unpad 000000018006d3ac     libopus:repacketizer.obj
 0002:000163d0       $chain$5$opus_multistream_packet_unpad 000000018006d3d0     libopus:repacketizer.obj
 0002:000163e0       $chain$6$opus_multistream_packet_unpad 000000018006d3e0     libopus:repacketizer.obj
 0002:00016404       $unwind$transient_analysis 000000018006d404     libopus:celt_encoder.obj
 0002:00016454       $unwind$patch_transient_decision 000000018006d454     libopus:celt_encoder.obj
 0002:00016480       $unwind$compute_mdcts      000000018006d480     libopus:celt_encoder.obj
 0002:00016498       $unwind$celt_preemphasis   000000018006d498     libopus:celt_encoder.obj
 0002:000164b4       $chain$0$celt_preemphasis  000000018006d4b4     libopus:celt_encoder.obj
 0002:000164c8       $chain$1$celt_preemphasis  000000018006d4c8     libopus:celt_encoder.obj
 0002:000164d8       $unwind$tf_analysis        000000018006d4d8     libopus:celt_encoder.obj
 0002:00016508       $unwind$tf_encode          000000018006d508     libopus:celt_encoder.obj
 0002:00016520       $unwind$alloc_trim_analysis 000000018006d520     libopus:celt_encoder.obj
 0002:00016530       $chain$5$alloc_trim_analysis 000000018006d530     libopus:celt_encoder.obj
 0002:00016558       $chain$8$alloc_trim_analysis 000000018006d558     libopus:celt_encoder.obj
 0002:00016574       $chain$13$alloc_trim_analysis 000000018006d574     libopus:celt_encoder.obj
 0002:00016598       $chain$14$alloc_trim_analysis 000000018006d598     libopus:celt_encoder.obj
 0002:000165b0       $chain$15$alloc_trim_analysis 000000018006d5b0     libopus:celt_encoder.obj
 0002:000165c4       $chain$16$alloc_trim_analysis 000000018006d5c4     libopus:celt_encoder.obj
 0002:000165d4       $chain$17$alloc_trim_analysis 000000018006d5d4     libopus:celt_encoder.obj
 0002:000165ec       $chain$18$alloc_trim_analysis 000000018006d5ec     libopus:celt_encoder.obj
 0002:00016600       $chain$19$alloc_trim_analysis 000000018006d600     libopus:celt_encoder.obj
 0002:00016610       $unwind$stereo_analysis    000000018006d610     libopus:celt_encoder.obj
 0002:00016634       $unwind$dynalloc_analysis  000000018006d634     libopus:celt_encoder.obj
 0002:0001667c       $unwind$run_prefilter      000000018006d67c     libopus:celt_encoder.obj
 0002:000166b0       $unwind$compute_vbr        000000018006d6b0     libopus:celt_encoder.obj
 0002:000166c8       $unwind$celt_encode_with_ec 000000018006d6c8     libopus:celt_encoder.obj
 0002:00016714       $unwind$opus_custom_encoder_ctl 000000018006d714     libopus:celt_encoder.obj
 0002:0001671c       $chain$1$opus_custom_encoder_ctl 000000018006d71c     libopus:celt_encoder.obj
 0002:00016734       $chain$2$opus_custom_encoder_ctl 000000018006d734     libopus:celt_encoder.obj
 0002:00016744       $unwind$ec_laplace_decode  000000018006d744     libopus:laplace.obj
 0002:00016744       $unwind$silk_InitEncoder   000000018006d744     libopus:enc_API.obj
 0002:00016744       $unwind$write_string       000000018006d744     LIBCMT:woutput.obj
 0002:00016744       $unwind$silk_decoder_set_fs 000000018006d744     libopus:decoder_set_fs.obj
 0002:0001675c       $unwind$silk_Encode        000000018006d75c     libopus:enc_API.obj
 0002:00016784       $unwind$decode_pulses      000000018006d784     libopus:cwrs.obj
 0002:00016784       $unwind$ec_enc_done        000000018006d784     libopus:entenc.obj
 0002:00016784       $unwind$silk_resampler_init 000000018006d784     libopus:resampler.obj
 0002:00016798       $unwind$fast_atan2f        000000018006d798     libopus:analysis.obj
 0002:000167a4       $chain$0$fast_atan2f       000000018006d7a4     libopus:analysis.obj
 0002:000167b8       $unwind$tonality_analysis  000000018006d7b8     libopus:analysis.obj
 0002:00016804       $unwind$run_analysis       000000018006d804     libopus:analysis.obj
 0002:00016814       $chain$2$run_analysis      000000018006d814     libopus:analysis.obj
 0002:00016830       $chain$3$run_analysis      000000018006d830     libopus:analysis.obj
 0002:00016840       $unwind$silk_autocorrelation_FLP 000000018006d840     libopus:autocorrelation_FLP.obj
 0002:00016840       $unwind$silk_CNG_exc       000000018006d840     libopus:CNG.obj
 0002:00016840       $unwind$dual_inner_prod    000000018006d840     libopus:bands.obj
 0002:00016840       $unwind$dual_inner_prod    000000018006d840     libopus:pitch.obj
 0002:00016850       $chain$0$dual_inner_prod   000000018006d850     libopus:pitch.obj
 0002:00016850       $chain$0$dual_inner_prod   000000018006d850     libopus:bands.obj
 0002:00016864       $chain$1$dual_inner_prod   000000018006d864     libopus:pitch.obj
 0002:00016864       $chain$1$dual_inner_prod   000000018006d864     libopus:bands.obj
 0002:00016874       $unwind$compute_band_energies 000000018006d874     libopus:bands.obj
 0002:00016890       $unwind$normalise_bands    000000018006d890     libopus:bands.obj
 0002:000168a8       $unwind$denormalise_bands  000000018006d8a8     libopus:bands.obj
 0002:000168bc       $chain$1$denormalise_bands 000000018006d8bc     libopus:bands.obj
 0002:000168d4       $chain$2$denormalise_bands 000000018006d8d4     libopus:bands.obj
 0002:000168e4       $unwind$anti_collapse      000000018006d8e4     libopus:bands.obj
 0002:000168f4       $chain$14$anti_collapse    000000018006d8f4     libopus:bands.obj
 0002:00016940       $chain$15$anti_collapse    000000018006d940     libopus:bands.obj
 0002:00016950       $unwind$intensity_stereo   000000018006d950     libopus:bands.obj
 0002:00016964       $unwind$stereo_merge       000000018006d964     libopus:bands.obj
 0002:00016984       $chain$1$stereo_merge      000000018006d984     libopus:bands.obj
 0002:0001699c       $chain$2$stereo_merge      000000018006d99c     libopus:bands.obj
 0002:000169b0       $chain$3$stereo_merge      000000018006d9b0     libopus:bands.obj
 0002:000169c0       $chain$4$stereo_merge      000000018006d9c0     libopus:bands.obj
 0002:000169d0       $unwind$spreading_decision 000000018006d9d0     libopus:bands.obj
 0002:000169e4       $chain$1$spreading_decision 000000018006d9e4     libopus:bands.obj
 0002:000169fc       $chain$2$spreading_decision 000000018006d9fc     libopus:bands.obj
 0002:00016a0c       $unwind$interleave_hadamard 000000018006da0c     libopus:bands.obj
 0002:00016a0c       $unwind$silk_setup_resamplers 000000018006da0c     libopus:control_codec.obj
 0002:00016a0c       $unwind$deinterleave_hadamard 000000018006da0c     libopus:bands.obj
 0002:00016a34       $unwind$haar1              000000018006da34     libopus:bands.obj
 0002:00016a40       $chain$2$haar1             000000018006da40     libopus:bands.obj
 0002:00016a5c       $chain$3$haar1             000000018006da5c     libopus:bands.obj
 0002:00016a6c       $unwind$compute_theta      000000018006da6c     libopus:bands.obj
 0002:00016a84       $unwind$quant_band_n1      000000018006da84     libopus:bands.obj
 0002:00016a9c       $unwind$quant_partition    000000018006da9c     libopus:bands.obj
 0002:00016aac       $chain$1$quant_partition   000000018006daac     libopus:bands.obj
 0002:00016ac4       $chain$2$quant_partition   000000018006dac4     libopus:bands.obj
 0002:00016ad8       $chain$4$quant_partition   000000018006dad8     libopus:bands.obj
 0002:00016af4       $chain$5$quant_partition   000000018006daf4     libopus:bands.obj
 0002:00016b04       $unwind$quant_band         000000018006db04     libopus:bands.obj
 0002:00016b24       $unwind$quant_band_stereo  000000018006db24     libopus:bands.obj
 0002:00016b4c       $unwind$quant_all_bands    000000018006db4c     libopus:bands.obj
 0002:00016b7c       $unwind$comb_filter_const  000000018006db7c     libopus:celt.obj
 0002:00016b8c       $unwind$comb_filter        000000018006db8c     libopus:celt.obj
 0002:00016b98       $chain$13$comb_filter      000000018006db98     libopus:celt.obj
 0002:00016be0       $chain$14$comb_filter      000000018006dbe0     libopus:celt.obj
 0002:00016bf4       $chain$15$comb_filter      000000018006dbf4     libopus:celt.obj
 0002:00016c08       $chain$16$comb_filter      000000018006dc08     libopus:celt.obj
 0002:00016c18       $chain$17$comb_filter      000000018006dc18     libopus:celt.obj
 0002:00016c38       $chain$18$comb_filter      000000018006dc38     libopus:celt.obj
 0002:00016c48       $unwind$silk_VAD_GetNoiseLevels 000000018006dc48     libopus:VAD.obj
 0002:00016c48       $unwind$init_caps          000000018006dc48     libopus:celt.obj
 0002:00016c60       $unwind$silk_SolveWithUpperTriangularFromLowerWdiagOnes_FLP 000000018006dc60     libopus:solve_LS_FLP.obj
 0002:00016c60       $unwind$loss_distortion    000000018006dc60     libopus:quant_bands.obj
 0002:00016c60       $unwind$silk_SolveWithLowerTriangularWdiagOnes_FLP 000000018006dc60     libopus:solve_LS_FLP.obj
 0002:00016c74       $unwind$quant_coarse_energy_impl 000000018006dc74     libopus:quant_bands.obj
 0002:00016c8c       $chain$11$quant_coarse_energy_impl 000000018006dc8c     libopus:quant_bands.obj
 0002:00016ccc       $chain$12$quant_coarse_energy_impl 000000018006dccc     libopus:quant_bands.obj
 0002:00016cdc       $unwind$quant_coarse_energy 000000018006dcdc     libopus:quant_bands.obj
 0002:00016d2c       $unwind$quant_fine_energy  000000018006dd2c     libopus:quant_bands.obj
 0002:00016d34       $chain$9$quant_fine_energy 000000018006dd34     libopus:quant_bands.obj
 0002:00016d6c       $chain$10$quant_fine_energy 000000018006dd6c     libopus:quant_bands.obj
 0002:00016d7c       $unwind$quant_energy_finalise 000000018006dd7c     libopus:quant_bands.obj
 0002:00016d7c       $unwind$silk_setup_fs      000000018006dd7c     libopus:control_codec.obj
 0002:00016d98       $unwind$unquant_coarse_energy 000000018006dd98     libopus:quant_bands.obj
 0002:00016da8       $chain$2$unquant_coarse_energy 000000018006dda8     libopus:quant_bands.obj
 0002:00016dc4       $chain$3$unquant_coarse_energy 000000018006ddc4     libopus:quant_bands.obj
 0002:00016dd4       $unwind$unquant_fine_energy 000000018006ddd4     libopus:quant_bands.obj
 0002:00016de0       $chain$3$unquant_fine_energy 000000018006dde0     libopus:quant_bands.obj
 0002:00016e00       $chain$4$unquant_fine_energy 000000018006de00     libopus:quant_bands.obj
 0002:00016e10       $unwind$unquant_energy_finalise 000000018006de10     libopus:quant_bands.obj
 0002:00016e2c       $unwind$amp2Log2           000000018006de2c     libopus:quant_bands.obj
 0002:00016e4c       $unwind$xcorr_kernel_sse   000000018006de4c     libopus:pitch.obj
 0002:00016e5c       $unwind$find_best_pitch    000000018006de5c     libopus:pitch.obj
 0002:00016e80       $chain$1$find_best_pitch   000000018006de80     libopus:pitch.obj
 0002:00016e98       $chain$2$find_best_pitch   000000018006de98     libopus:pitch.obj
 0002:00016ea8       $unwind$celt_fir5          000000018006dea8     libopus:pitch.obj
 0002:00016ed8       $chain$0$celt_fir5         000000018006ded8     libopus:pitch.obj
 0002:00016eec       $chain$1$celt_fir5         000000018006deec     libopus:pitch.obj
 0002:00016efc       $unwind$pitch_downsample   000000018006defc     libopus:pitch.obj
 0002:00016f18       $unwind$celt_pitch_xcorr   000000018006df18     libopus:pitch.obj
 0002:00016f38       $unwind$pitch_search       000000018006df38     libopus:pitch.obj
 0002:00016f60       $unwind$remove_doubling    000000018006df60     libopus:pitch.obj
 0002:00016fac       $unwind$_celt_lpc          000000018006dfac     libopus:celt_lpc.obj
 0002:00016fc0       $chain$0$_celt_lpc         000000018006dfc0     libopus:celt_lpc.obj
 0002:00016fd4       $chain$3$_celt_lpc         000000018006dfd4     libopus:celt_lpc.obj
 0002:00016ff0       $chain$4$_celt_lpc         000000018006dff0     libopus:celt_lpc.obj
 0002:00017000       $chain$5$_celt_lpc         000000018006e000     libopus:celt_lpc.obj
 0002:00017010       $unwind$celt_fir_c         000000018006e010     libopus:celt_lpc.obj
 0002:0001703c       $unwind$celt_iir           000000018006e03c     libopus:celt_lpc.obj
 0002:0001706c       $unwind$_celt_autocorr     000000018006e06c     libopus:celt_lpc.obj
 0002:00017094       $unwind$exp_rotation1      000000018006e094     libopus:vq.obj
 0002:000170ac       $chain$0$exp_rotation1     000000018006e0ac     libopus:vq.obj
 0002:000170c0       $chain$1$exp_rotation1     000000018006e0c0     libopus:vq.obj
 0002:000170d0       $unwind$exp_rotation       000000018006e0d0     libopus:vq.obj
 0002:000170e4       $chain$2$exp_rotation      000000018006e0e4     libopus:vq.obj
 0002:00017100       $chain$3$exp_rotation      000000018006e100     libopus:vq.obj
 0002:00017114       $chain$4$exp_rotation      000000018006e114     libopus:vq.obj
 0002:00017124       $chain$5$exp_rotation      000000018006e124     libopus:vq.obj
 0002:00017134       $unwind$extract_collapse_mask 000000018006e134     libopus:vq.obj
 0002:00017144       $unwind$alg_quant          000000018006e144     libopus:vq.obj
 0002:00017188       $unwind$alg_unquant        000000018006e188     libopus:vq.obj
 0002:000171b0       $unwind$renormalise_vector 000000018006e1b0     libopus:vq.obj
 0002:000171c0       $unwind$stereo_itheta      000000018006e1c0     libopus:vq.obj
 0002:000171d4       $unwind$interp_bits2pulses 000000018006e1d4     libopus:rate.obj
 0002:000171ec       $unwind$compute_allocation 000000018006e1ec     libopus:rate.obj
 0002:00017214       $unwind$clt_mdct_forward   000000018006e214     libopus:mdct.obj
 0002:00017240       $unwind$clt_mdct_backward  000000018006e240     libopus:mdct.obj
 0002:00017250       $chain$1$clt_mdct_backward 000000018006e250     libopus:mdct.obj
 0002:00017268       $chain$4$clt_mdct_backward 000000018006e268     libopus:mdct.obj
 0002:00017284       $chain$5$clt_mdct_backward 000000018006e284     libopus:mdct.obj
 0002:00017298       $chain$6$clt_mdct_backward 000000018006e298     libopus:mdct.obj
 0002:000172b4       $chain$7$clt_mdct_backward 000000018006e2b4     libopus:mdct.obj
 0002:000172c8       $chain$8$clt_mdct_backward 000000018006e2c8     libopus:mdct.obj
 0002:000172d8       $chain$9$clt_mdct_backward 000000018006e2d8     libopus:mdct.obj
 0002:000172e8       $unwind$silk_stereo_decode_pred 000000018006e2e8     libopus:stereo_decode_pred.obj
 0002:00017308       $unwind$silk_resampler     000000018006e308     libopus:resampler.obj
 0002:00017320       $unwind$silk_decode_pulses 000000018006e320     libopus:decode_pulses.obj
 0002:00017348       $unwind$silk_decode_frame  000000018006e348     libopus:decode_frame.obj
 0002:00017370       $unwind$silk_decode_indices 000000018006e370     libopus:decode_indices.obj
 0002:00017390       $unwind$silk_stereo_MS_to_LR 000000018006e390     libopus:stereo_MS_to_LR.obj
 0002:000173a8       $chain$0$silk_control_SNR  000000018006e3a8     libopus:control_SNR.obj
 0002:000173bc       $chain$1$silk_control_SNR  000000018006e3bc     libopus:control_SNR.obj
 0002:000173cc       $unwind$silk_encode_pulses 000000018006e3cc     libopus:encode_pulses.obj
 0002:000173cc       $unwind$silk_VAD_GetSA_Q8_c 000000018006e3cc     libopus:VAD.obj
 0002:000173f0       $unwind$silk_control_encoder 000000018006e3f0     libopus:control_codec.obj
 0002:00017408       $unwind$silk_encode_frame_FLP 000000018006e408     libopus:encode_frame_FLP.obj
 0002:00017420       $chain$3$silk_encode_frame_FLP 000000018006e420     libopus:encode_frame_FLP.obj
 0002:00017440       $chain$13$silk_encode_frame_FLP 000000018006e440     libopus:encode_frame_FLP.obj
 0002:00017478       $chain$14$silk_encode_frame_FLP 000000018006e478     libopus:encode_frame_FLP.obj
 0002:00017488       $chain$15$silk_encode_frame_FLP 000000018006e488     libopus:encode_frame_FLP.obj
 0002:00017498       $unwind$silk_LBRR_encode_FLP 000000018006e498     libopus:encode_frame_FLP.obj
 0002:000174b4       $chain$0$silk_LBRR_encode_FLP 000000018006e4b4     libopus:encode_frame_FLP.obj
 0002:000174c8       $chain$1$silk_LBRR_encode_FLP 000000018006e4c8     libopus:encode_frame_FLP.obj
 0002:000174d8       $unwind$silk_stereo_LR_to_MS 000000018006e4d8     libopus:stereo_LR_to_MS.obj
 0002:00017500       $unwind$silk_encode_indices 000000018006e500     libopus:encode_indices.obj
 0002:00017514       $chain$2$silk_encode_indices 000000018006e514     libopus:encode_indices.obj
 0002:00017530       $chain$5$silk_encode_indices 000000018006e530     libopus:encode_indices.obj
 0002:0001754c       $chain$6$silk_encode_indices 000000018006e54c     libopus:encode_indices.obj
 0002:00017560       $chain$7$silk_encode_indices 000000018006e560     libopus:encode_indices.obj
 0002:0001757c       $chain$8$silk_encode_indices 000000018006e57c     libopus:encode_indices.obj
 0002:00017590       $unwind$__DllMainCRTStartup$filt$0 000000018006e590     LIBCMT:dllcrt0.obj
 0002:00017590       $unwind$_freefls$fin$0     000000018006e590     LIBCMT:tidtable.obj
 0002:00017590       $unwind$setvbuf$fin$0      000000018006e590     LIBCMT:setvbuf.obj
 0002:00017590       $unwind$_close$fin$0       000000018006e590     LIBCMT:close.obj
 0002:00017590       $unwind$?fin$0@?0??_Type_info_dtor@type_info@@CAXPEAV1@@Z@4HA 000000018006e590     LIBCMT:typname.obj
 0002:00017590       $unwind$fclose$fin$0       000000018006e590     LIBCMT:fclose.obj
 0002:00017590       $unwind$_commit$fin$0      000000018006e590     LIBCMT:commit.obj
 0002:00017590       $unwind$flsall$fin$1       000000018006e590     LIBCMT:fflush.obj
 0002:00017590       $unwind$raise$fin$0        000000018006e590     LIBCMT:winsig.obj
 0002:00017590       $unwind$_mtinitlocknum$fin$0 000000018006e590     LIBCMT:mlock.obj
 0002:00017590       $unwind$_fcloseall$fin$0   000000018006e590     LIBCMT:closeall.obj
 0002:00017590       $unwind$_freefls$fin$1     000000018006e590     LIBCMT:tidtable.obj
 0002:00017590       $unwind$_setmbcp$fin$0     000000018006e590     LIBCMT:mbctype.obj
 0002:00017590       $unwind$doexit$fin$0       000000018006e590     LIBCMT:crt0dat.obj
 0002:00017590       $unwind$_write$fin$0       000000018006e590     LIBCMT:write.obj
 0002:00017590       $unwind$__lock_fhandle$fin$0 000000018006e590     LIBCMT:osfinfo.obj
 0002:00017590       $unwind$_ioinit$fin$0      000000018006e590     LIBCMT:ioinit.obj
 0002:00017590       $unwind$_initptd$fin$1     000000018006e590     LIBCMT:tidtable.obj
 0002:00017590       $unwind$fflush$fin$0       000000018006e590     LIBCMT:fflush.obj
 0002:00017590       $unwind$__updatetmbcinfo$fin$0 000000018006e590     LIBCMT:mbctype.obj
 0002:00017590       $unwind$_IsNonwritableInCurrentImage$filt$0 000000018006e590     LIBCMT:pesect.obj
 0002:00017590       $unwind$_initptd$fin$0     000000018006e590     LIBCMT:tidtable.obj
 0002:00017590       $unwind$_ctrlfp$filt$0     000000018006e590     LIBCMT:fpctrl.obj
 0002:00017590       $unwind$_CRT_INIT$fin$0    000000018006e590     LIBCMT:dllcrt0.obj
 0002:00017590       $unwind$_lseeki64$fin$0    000000018006e590     LIBCMT:lseeki64.obj
 0002:00017590       $unwind$__updatetlocinfo$fin$0 000000018006e590     LIBCMT:localref.obj
 0002:00017590       $unwind$fwprintf$fin$0     000000018006e590     LIBCMT:fwprintf.obj
 0002:00017590       $unwind$__DestructExceptionObject$filt$0 000000018006e590     LIBCMT:frame.obj
 0002:00017590       $unwind$_locterm$fin$0     000000018006e590     LIBCMT:wsetloca.obj
 0002:00017590       $unwind$flsall$fin$0       000000018006e590     LIBCMT:fflush.obj
 0002:00017590       $unwind$silk_HP_variable_cutoff 000000018006e590     libopus:HP_variable_cutoff.obj
 0002:00017590       $unwind$_onexit$fin$0      000000018006e590     LIBCMT:onexit.obj
 0002:00017598       $chain$2$silk_HP_variable_cutoff 000000018006e598     libopus:HP_variable_cutoff.obj
 0002:000175b4       $chain$3$silk_HP_variable_cutoff 000000018006e5b4     libopus:HP_variable_cutoff.obj
 0002:000175c8       $chain$4$silk_HP_variable_cutoff 000000018006e5c8     libopus:HP_variable_cutoff.obj
 0002:000175d8       $chain$5$silk_HP_variable_cutoff 000000018006e5d8     libopus:HP_variable_cutoff.obj
 0002:000175e8       $unwind$tansig_approx      000000018006e5e8     libopus:mlp.obj
 0002:000175fc       $unwind$mlp_process        000000018006e5fc     libopus:mlp.obj
 0002:00017614       $chain$0$mlp_process       000000018006e614     libopus:mlp.obj
 0002:00017628       $chain$13$mlp_process      000000018006e628     libopus:mlp.obj
 0002:0001766c       $chain$14$mlp_process      000000018006e66c     libopus:mlp.obj
 0002:0001767c       $chain$15$mlp_process      000000018006e67c     libopus:mlp.obj
 0002:0001768c       $unwind$kf_bfly2           000000018006e68c     libopus:kiss_fft.obj
 0002:0001768c       $unwind$strrchr            000000018006e68c     LIBCMT:strrchr.obj
 0002:00017694       $chain$0$kf_bfly2          000000018006e694     libopus:kiss_fft.obj
 0002:000176a8       $chain$1$kf_bfly2          000000018006e6a8     libopus:kiss_fft.obj
 0002:000176b8       $unwind$kf_bfly4           000000018006e6b8     libopus:kiss_fft.obj
 0002:000176c4       $chain$10$kf_bfly4         000000018006e6c4     libopus:kiss_fft.obj
 0002:00017700       $chain$11$kf_bfly4         000000018006e700     libopus:kiss_fft.obj
 0002:00017710       $unwind$kf_bfly3           000000018006e710     libopus:kiss_fft.obj
 0002:0001771c       $chain$5$kf_bfly3          000000018006e71c     libopus:kiss_fft.obj
 0002:00017744       $chain$6$kf_bfly3          000000018006e744     libopus:kiss_fft.obj
 0002:00017754       $unwind$kf_bfly5           000000018006e754     libopus:kiss_fft.obj
 0002:00017760       $chain$15$kf_bfly5         000000018006e760     libopus:kiss_fft.obj
 0002:000177b0       $chain$16$kf_bfly5         000000018006e7b0     libopus:kiss_fft.obj
 0002:000177c0       $unwind$opus_fft_impl      000000018006e7c0     libopus:kiss_fft.obj
 0002:000177d8       $chain$2$opus_fft_impl     000000018006e7d8     libopus:kiss_fft.obj
 0002:000177f4       $chain$3$opus_fft_impl     000000018006e7f4     libopus:kiss_fft.obj
 0002:00017804       $unwind$opus_fft           000000018006e804     libopus:kiss_fft.obj
 0002:0001781c       $chain$2$opus_fft          000000018006e81c     libopus:kiss_fft.obj
 0002:00017838       $chain$3$opus_fft          000000018006e838     libopus:kiss_fft.obj
 0002:00017848       $chain$1$ec_laplace_encode 000000018006e848     libopus:laplace.obj
 0002:00017860       $chain$3$ec_laplace_encode 000000018006e860     libopus:laplace.obj
 0002:00017878       $chain$4$ec_laplace_encode 000000018006e878     libopus:laplace.obj
 0002:00017888       $chain$5$ec_laplace_encode 000000018006e888     libopus:laplace.obj
 0002:00017898       $unwind$cwrsi              000000018006e898     libopus:cwrs.obj
 0002:000178a4       $chain$4$cwrsi             000000018006e8a4     libopus:cwrs.obj
 0002:000178c8       $chain$5$cwrsi             000000018006e8c8     libopus:cwrs.obj
 0002:000178d8       $chain$0$silk_CNG_exc      000000018006e8d8     libopus:CNG.obj
 0002:000178ec       $chain$1$silk_CNG_exc      000000018006e8ec     libopus:CNG.obj
 0002:000178fc       $unwind$silk_CNG           000000018006e8fc     libopus:CNG.obj
 0002:00017920       $unwind$silk_PLC_conceal   000000018006e920     libopus:PLC.obj
 0002:00017944       $unwind$silk_PLC_glue_frames 000000018006e944     libopus:PLC.obj
 0002:00017954       $unwind$silk_resampler_private_up2_HQ 000000018006e954     libopus:resampler_private_up2_HQ.obj
 0002:00017964       $chain$1$silk_resampler_private_up2_HQ 000000018006e964     libopus:resampler_private_up2_HQ.obj
 0002:0001797c       $chain$2$silk_resampler_private_up2_HQ 000000018006e97c     libopus:resampler_private_up2_HQ.obj
 0002:0001798c       $unwind$silk_resampler_private_IIR_FIR_INTERPOL 000000018006e98c     libopus:resampler_private_IIR_FIR.obj
 0002:0001799c       $chain$1$silk_resampler_private_IIR_FIR_INTERPOL 000000018006e99c     libopus:resampler_private_IIR_FIR.obj
 0002:000179b4       $chain$2$silk_resampler_private_IIR_FIR_INTERPOL 000000018006e9b4     libopus:resampler_private_IIR_FIR.obj
 0002:000179c4       $unwind$silk_resampler_private_IIR_FIR 000000018006e9c4     libopus:resampler_private_IIR_FIR.obj
 0002:000179ec       $unwind$silk_resampler_private_down_FIR_INTERPOL 000000018006e9ec     libopus:resampler_private_down_FIR.obj
 0002:000179fc       $chain$0$silk_resampler_private_down_FIR_INTERPOL 000000018006e9fc     libopus:resampler_private_down_FIR.obj
 0002:00017a10       $chain$2$silk_resampler_private_down_FIR_INTERPOL 000000018006ea10     libopus:resampler_private_down_FIR.obj
 0002:00017a28       $chain$3$silk_resampler_private_down_FIR_INTERPOL 000000018006ea28     libopus:resampler_private_down_FIR.obj
 0002:00017a38       $unwind$silk_resampler_private_down_FIR 000000018006ea38     libopus:resampler_private_down_FIR.obj
 0002:00017a60       $unwind$silk_encode_signs  000000018006ea60     libopus:code_signs.obj
 0002:00017a70       $chain$2$silk_encode_signs 000000018006ea70     libopus:code_signs.obj
 0002:00017a8c       $chain$3$silk_encode_signs 000000018006ea8c     libopus:code_signs.obj
 0002:00017a9c       $unwind$silk_decode_signs  000000018006ea9c     libopus:code_signs.obj
 0002:00017aac       $chain$2$silk_decode_signs 000000018006eaac     libopus:code_signs.obj
 0002:00017ac8       $chain$3$silk_decode_signs 000000018006eac8     libopus:code_signs.obj
 0002:00017ad8       $unwind$decode_split       000000018006ead8     libopus:shell_coder.obj
 0002:00017ae8       $chain$0$decode_split      000000018006eae8     libopus:shell_coder.obj
 0002:00017afc       $chain$1$decode_split      000000018006eafc     libopus:shell_coder.obj
 0002:00017b0c       $unwind$silk_shell_encoder 000000018006eb0c     libopus:shell_coder.obj
 0002:00017b28       $unwind$silk_shell_decoder 000000018006eb28     libopus:shell_coder.obj
 0002:00017b3c       $unwind$silk_decode_parameters 000000018006eb3c     libopus:decode_parameters.obj
 0002:00017b50       $chain$1$silk_decode_parameters 000000018006eb50     libopus:decode_parameters.obj
 0002:00017b68       $chain$2$silk_decode_parameters 000000018006eb68     libopus:decode_parameters.obj
 0002:00017b78       $unwind$__dtold            000000018006eb78     LIBCMT:cfout.obj
 0002:00017b78       $unwind$silk_DIV32_varQ    000000018006eb78     libopus:NSQ.obj
 0002:00017b78       $unwind$silk_DIV32_varQ    000000018006eb78     libopus:NSQ_del_dec.obj
 0002:00017b78       $unwind$silk_DIV32_varQ    000000018006eb78     libopus:decode_core.obj
 0002:00017b80       $unwind$silk_decode_core   000000018006eb80     libopus:decode_core.obj
 0002:00017ba4       $unwind$warped_true2monic_coefs 000000018006eba4     libopus:noise_shape_analysis_FLP.obj
 0002:00017bec       $unwind$silk_noise_shape_analysis_FLP 000000018006ebec     libopus:noise_shape_analysis_FLP.obj
 0002:00017c14       $chain$7$silk_noise_shape_analysis_FLP 000000018006ec14     libopus:noise_shape_analysis_FLP.obj
 0002:00017c44       $chain$10$silk_noise_shape_analysis_FLP 000000018006ec44     libopus:noise_shape_analysis_FLP.obj
 0002:00017c60       $chain$11$silk_noise_shape_analysis_FLP 000000018006ec60     libopus:noise_shape_analysis_FLP.obj
 0002:00017c84       $chain$12$silk_noise_shape_analysis_FLP 000000018006ec84     libopus:noise_shape_analysis_FLP.obj
 0002:00017ca4       $chain$13$silk_noise_shape_analysis_FLP 000000018006eca4     libopus:noise_shape_analysis_FLP.obj
 0002:00017cb4       $unwind$silk_NLSF2A_FLP    000000018006ecb4     libopus:wrappers_FLP.obj
 0002:00017cc8       $unwind$silk_NSQ_wrapper_FLP 000000018006ecc8     libopus:wrappers_FLP.obj
 0002:00017ce8       $unwind$silk_quant_LTP_gains_FLP 000000018006ece8     libopus:wrappers_FLP.obj
 0002:00017d04       $unwind$silk_process_gains_FLP 000000018006ed04     libopus:process_gains_FLP.obj
 0002:00017d18       $chain$4$silk_process_gains_FLP 000000018006ed18     libopus:process_gains_FLP.obj
 0002:00017d3c       $chain$6$silk_process_gains_FLP 000000018006ed3c     libopus:process_gains_FLP.obj
 0002:00017d54       $chain$7$silk_process_gains_FLP 000000018006ed54     libopus:process_gains_FLP.obj
 0002:00017d64       $chain$8$silk_process_gains_FLP 000000018006ed64     libopus:process_gains_FLP.obj
 0002:00017d80       $chain$9$silk_process_gains_FLP 000000018006ed80     libopus:process_gains_FLP.obj
 0002:00017d94       $chain$10$silk_process_gains_FLP 000000018006ed94     libopus:process_gains_FLP.obj
 0002:00017da4       $unwind$silk_LP_interpolate_filter_taps 000000018006eda4     libopus:LP_variable_cutoff.obj
 0002:00017db0       $chain$0$silk_LP_interpolate_filter_taps 000000018006edb0     libopus:LP_variable_cutoff.obj
 0002:00017dc4       $chain$2$silk_LP_interpolate_filter_taps 000000018006edc4     libopus:LP_variable_cutoff.obj
 0002:00017dd8       $chain$3$silk_LP_interpolate_filter_taps 000000018006edd8     libopus:LP_variable_cutoff.obj
 0002:00017de8       $unwind$silk_LP_variable_cutoff 000000018006ede8     libopus:LP_variable_cutoff.obj
 0002:00017e00       $chain$0$silk_LP_variable_cutoff 000000018006ee00     libopus:LP_variable_cutoff.obj
 0002:00017e14       $chain$1$silk_LP_variable_cutoff 000000018006ee14     libopus:LP_variable_cutoff.obj
 0002:00017e24       $unwind$silk_gains_quant   000000018006ee24     libopus:gain_quant.obj
 0002:00017e34       $chain$1$silk_gains_quant  000000018006ee34     libopus:gain_quant.obj
 0002:00017e4c       $chain$2$silk_gains_quant  000000018006ee4c     libopus:gain_quant.obj
 0002:00017e5c       $unwind$silk_gains_dequant 000000018006ee5c     libopus:gain_quant.obj
 0002:00017e70       $unwind$silk_warped_LPC_analysis_filter_FLP 000000018006ee70     libopus:prefilter_FLP.obj
 0002:00017e7c       $chain$1$silk_warped_LPC_analysis_filter_FLP 000000018006ee7c     libopus:prefilter_FLP.obj
 0002:00017e94       $chain$2$silk_warped_LPC_analysis_filter_FLP 000000018006ee94     libopus:prefilter_FLP.obj
 0002:00017ea4       $unwind$silk_prefilter_FLP 000000018006eea4     libopus:prefilter_FLP.obj
 0002:00017ec0       $chain$11$silk_prefilter_FLP 000000018006eec0     libopus:prefilter_FLP.obj
 0002:00017f00       $chain$12$silk_prefilter_FLP 000000018006ef00     libopus:prefilter_FLP.obj
 0002:00017f10       $unwind$silk_prefilt_FLP   000000018006ef10     libopus:prefilter_FLP.obj
 0002:00017f30       $chain$0$silk_prefilt_FLP  000000018006ef30     libopus:prefilter_FLP.obj
 0002:00017f44       $chain$1$silk_prefilt_FLP  000000018006ef44     libopus:prefilter_FLP.obj
 0002:00017f54       $unwind$silk_find_pred_coefs_FLP 000000018006ef54     libopus:find_pred_coefs_FLP.obj
 0002:00017f70       $chain$0$silk_find_pred_coefs_FLP 000000018006ef70     libopus:find_pred_coefs_FLP.obj
 0002:00017f84       $chain$1$silk_find_pred_coefs_FLP 000000018006ef84     libopus:find_pred_coefs_FLP.obj
 0002:00017f94       $unwind$silk_find_pitch_lags_FLP 000000018006ef94     libopus:find_pitch_lags_FLP.obj
 0002:00017fb8       $unwind$silk_stereo_quant_pred 000000018006efb8     libopus:stereo_quant_pred.obj
 0002:00017fd4       $unwind$silk_stereo_find_predictor 000000018006efd4     libopus:stereo_find_predictor.obj
 0002:00017fec       $unwind$silk_NLSF2A        000000018006efec     libopus:NLSF2A.obj
 0002:00018010       $unwind$silk_sum_sqr_shift 000000018006f010     libopus:sum_sqr_shift.obj
 0002:00018028       $unwind$silk_LPC_inverse_pred_gain 000000018006f028     libopus:LPC_inv_pred_gain.obj
 0002:0001803c       $chain$5$silk_LPC_inverse_pred_gain 000000018006f03c     libopus:LPC_inv_pred_gain.obj
 0002:00018064       $chain$6$silk_LPC_inverse_pred_gain 000000018006f064     libopus:LPC_inv_pred_gain.obj
 0002:00018074       $unwind$silk_LPC_analysis_filter 000000018006f074     libopus:LPC_analysis_filter.obj
 0002:00018084       $chain$2$silk_LPC_analysis_filter 000000018006f084     libopus:LPC_analysis_filter.obj
 0002:000180a0       $chain$3$silk_LPC_analysis_filter 000000018006f0a0     libopus:LPC_analysis_filter.obj
 0002:000180b0       $unwind$silk_decode_pitch  000000018006f0b0     libopus:decode_pitch.obj
 0002:000180c0       $unwind$silk_NLSF_decode   000000018006f0c0     libopus:NLSF_decode.obj
 0002:000180d8       $chain$0$silk_NLSF_decode  000000018006f0d8     libopus:NLSF_decode.obj
 0002:000180ec       $chain$2$silk_NLSF_decode  000000018006f0ec     libopus:NLSF_decode.obj
 0002:00018104       $chain$3$silk_NLSF_decode  000000018006f104     libopus:NLSF_decode.obj
 0002:00018114       $chain$4$silk_NLSF_decode  000000018006f114     libopus:NLSF_decode.obj
 0002:00018124       $unwind$silk_ana_filt_bank_1 000000018006f124     libopus:ana_filt_bank_1.obj
 0002:00018134       $chain$2$silk_ana_filt_bank_1 000000018006f134     libopus:ana_filt_bank_1.obj
 0002:00018150       $chain$3$silk_ana_filt_bank_1 000000018006f150     libopus:ana_filt_bank_1.obj
 0002:00018160       $unwind$silk_warped_autocorrelation_FLP 000000018006f160     libopus:warped_autocorrelation_FLP.obj
 0002:0001817c       $unwind$silk_apply_sine_window_FLP 000000018006f17c     libopus:apply_sine_window_FLP.obj
 0002:00018188       $chain$0$silk_autocorrelation_FLP 000000018006f188     libopus:autocorrelation_FLP.obj
 0002:0001819c       $chain$1$silk_autocorrelation_FLP 000000018006f19c     libopus:autocorrelation_FLP.obj
 0002:000181ac       $unwind$silk_levinsondurbin_FLP 000000018006f1ac     libopus:levinsondurbin_FLP.obj
 0002:000181bc       $chain$3$silk_levinsondurbin_FLP 000000018006f1bc     libopus:levinsondurbin_FLP.obj
 0002:000181dc       $chain$4$silk_levinsondurbin_FLP 000000018006f1dc     libopus:levinsondurbin_FLP.obj
 0002:000181ec       $unwind$silk_LPC_inverse_pred_gain_FLP 000000018006f1ec     libopus:LPC_inv_pred_gain_FLP.obj
 0002:00018218       $unwind$silk_NSQ_c         000000018006f218     libopus:NSQ.obj
 0002:00018240       $unwind$silk_noise_shape_quantizer 000000018006f240     libopus:NSQ.obj
 0002:0001824c       $chain$4$silk_noise_shape_quantizer 000000018006f24c     libopus:NSQ.obj
 0002:00018270       $chain$5$silk_noise_shape_quantizer 000000018006f270     libopus:NSQ.obj
 0002:00018280       $unwind$silk_nsq_scale_states 000000018006f280     libopus:NSQ.obj
 0002:0001829c       $unwind$silk_quant_LTP_gains 000000018006f29c     libopus:quant_LTP_gains.obj
 0002:000182b4       $unwind$silk_process_NLSFs 000000018006f2b4     libopus:process_NLSFs.obj
 0002:000182d0       $chain$1$silk_process_NLSFs 000000018006f2d0     libopus:process_NLSFs.obj
 0002:000182e8       $chain$2$silk_process_NLSFs 000000018006f2e8     libopus:process_NLSFs.obj
 0002:000182f8       $unwind$silk_A2NLSF_init   000000018006f2f8     libopus:A2NLSF.obj
 0002:00018300       $chain$0$silk_A2NLSF_init  000000018006f300     libopus:A2NLSF.obj
 0002:00018314       $chain$2$silk_A2NLSF_init  000000018006f314     libopus:A2NLSF.obj
 0002:0001832c       $chain$4$silk_A2NLSF_init  000000018006f32c     libopus:A2NLSF.obj
 0002:00018344       $chain$5$silk_A2NLSF_init  000000018006f344     libopus:A2NLSF.obj
 0002:00018354       $chain$6$silk_A2NLSF_init  000000018006f354     libopus:A2NLSF.obj
 0002:00018368       $chain$7$silk_A2NLSF_init  000000018006f368     libopus:A2NLSF.obj
 0002:00018378       $chain$8$silk_A2NLSF_init  000000018006f378     libopus:A2NLSF.obj
 0002:00018388       $unwind$silk_A2NLSF        000000018006f388     libopus:A2NLSF.obj
 0002:000183ac       $unwind$silk_NSQ_del_dec_c 000000018006f3ac     libopus:NSQ_del_dec.obj
 0002:000183d4       $unwind$silk_noise_shape_quantizer_del_dec 000000018006f3d4     libopus:NSQ_del_dec.obj
 0002:000183fc       $unwind$silk_nsq_del_dec_scale_states 000000018006f3fc     libopus:NSQ_del_dec.obj
 0002:00018418       $unwind$silk_biquad_alt    000000018006f418     libopus:biquad_alt.obj
 0002:00018424       $chain$5$silk_biquad_alt   000000018006f424     libopus:biquad_alt.obj
 0002:0001844c       $chain$6$silk_biquad_alt   000000018006f44c     libopus:biquad_alt.obj
 0002:0001845c       $unwind$silk_find_LTP_FLP  000000018006f45c     libopus:find_LTP_FLP.obj
 0002:00018488       $chain$0$silk_find_LTP_FLP 000000018006f488     libopus:find_LTP_FLP.obj
 0002:0001849c       $chain$2$silk_find_LTP_FLP 000000018006f49c     libopus:find_LTP_FLP.obj
 0002:000184b4       $chain$4$silk_find_LTP_FLP 000000018006f4b4     libopus:find_LTP_FLP.obj
 0002:000184cc       $chain$5$silk_find_LTP_FLP 000000018006f4cc     libopus:find_LTP_FLP.obj
 0002:000184e0       $chain$6$silk_find_LTP_FLP 000000018006f4e0     libopus:find_LTP_FLP.obj
 0002:000184f0       $chain$7$silk_find_LTP_FLP 000000018006f4f0     libopus:find_LTP_FLP.obj
 0002:00018500       $unwind$silk_residual_energy_covar_FLP 000000018006f500     libopus:residual_energy_FLP.obj
 0002:00018534       $unwind$silk_residual_energy_FLP 000000018006f534     libopus:residual_energy_FLP.obj
 0002:00018558       $unwind$silk_find_LPC_FLP  000000018006f558     libopus:find_LPC_FLP.obj
 0002:00018574       $chain$3$silk_find_LPC_FLP 000000018006f574     libopus:find_LPC_FLP.obj
 0002:00018594       $chain$5$silk_find_LPC_FLP 000000018006f594     libopus:find_LPC_FLP.obj
 0002:000185ac       $chain$6$silk_find_LPC_FLP 000000018006f5ac     libopus:find_LPC_FLP.obj
 0002:000185bc       $chain$7$silk_find_LPC_FLP 000000018006f5bc     libopus:find_LPC_FLP.obj
 0002:000185cc       $chain$1$silk_scale_copy_vector_FLP 000000018006f5cc     libopus:scale_copy_vector_FLP.obj
 0002:000185e4       $chain$2$silk_scale_copy_vector_FLP 000000018006f5e4     libopus:scale_copy_vector_FLP.obj
 0002:000185f8       $chain$3$silk_scale_copy_vector_FLP 000000018006f5f8     libopus:scale_copy_vector_FLP.obj
 0002:00018608       $chain$4$silk_scale_copy_vector_FLP 000000018006f608     libopus:scale_copy_vector_FLP.obj
 0002:00018618       $unwind$silk_LTP_analysis_filter_FLP 000000018006f618     libopus:LTP_analysis_filter_FLP.obj
 0002:00018624       $chain$5$silk_LTP_analysis_filter_FLP 000000018006f624     libopus:LTP_analysis_filter_FLP.obj
 0002:0001864c       $chain$6$silk_LTP_analysis_filter_FLP 000000018006f64c     libopus:LTP_analysis_filter_FLP.obj
 0002:0001865c       $unwind$silk_pitch_analysis_core_FLP 000000018006f65c     libopus:pitch_analysis_core_FLP.obj
 0002:00018684       $chain$0$silk_pitch_analysis_core_FLP 000000018006f684     libopus:pitch_analysis_core_FLP.obj
 0002:00018698       $chain$4$silk_pitch_analysis_core_FLP 000000018006f698     libopus:pitch_analysis_core_FLP.obj
 0002:000186b8       $chain$6$silk_pitch_analysis_core_FLP 000000018006f6b8     libopus:pitch_analysis_core_FLP.obj
 0002:000186d0       $chain$7$silk_pitch_analysis_core_FLP 000000018006f6d0     libopus:pitch_analysis_core_FLP.obj
 0002:000186e4       $chain$8$silk_pitch_analysis_core_FLP 000000018006f6e4     libopus:pitch_analysis_core_FLP.obj
 0002:000186f4       $chain$9$silk_pitch_analysis_core_FLP 000000018006f6f4     libopus:pitch_analysis_core_FLP.obj
 0002:000186f4       $chain$11$silk_pitch_analysis_core_FLP 000000018006f6f4     libopus:pitch_analysis_core_FLP.obj
 0002:00018704       $chain$10$silk_pitch_analysis_core_FLP 000000018006f704     libopus:pitch_analysis_core_FLP.obj
 0002:0001872c       $unwind$silk_P_Ana_calc_corr_st3 000000018006f72c     libopus:pitch_analysis_core_FLP.obj
 0002:00018748       $chain$1$silk_P_Ana_calc_corr_st3 000000018006f748     libopus:pitch_analysis_core_FLP.obj
 0002:00018760       $chain$2$silk_P_Ana_calc_corr_st3 000000018006f760     libopus:pitch_analysis_core_FLP.obj
 0002:00018770       $unwind$silk_P_Ana_calc_energy_st3 000000018006f770     libopus:pitch_analysis_core_FLP.obj
 0002:0001878c       $chain$2$silk_P_Ana_calc_energy_st3 000000018006f78c     libopus:pitch_analysis_core_FLP.obj
 0002:000187a8       $chain$3$silk_P_Ana_calc_energy_st3 000000018006f7a8     libopus:pitch_analysis_core_FLP.obj
 0002:000187b8       $unwind$silk_schur_FLP     000000018006f7b8     libopus:schur_FLP.obj
 0002:000187d4       $chain$0$silk_schur_FLP    000000018006f7d4     libopus:schur_FLP.obj
 0002:000187e8       $chain$1$silk_schur_FLP    000000018006f7e8     libopus:schur_FLP.obj
 0002:000187f8       $unwind$silk_k2a_FLP       000000018006f7f8     libopus:k2a_FLP.obj
 0002:0001880c       $chain$4$silk_k2a_FLP      000000018006f80c     libopus:k2a_FLP.obj
 0002:00018830       $chain$5$silk_k2a_FLP      000000018006f830     libopus:k2a_FLP.obj
 0002:00018840       $unwind$silk_inner_prod_aligned_scale 000000018006f840     libopus:inner_prod_aligned.obj
 0002:00018858       $unwind$silk_NLSF_stabilize 000000018006f858     libopus:NLSF_stabilize.obj
 0002:00018870       $unwind$silk_NLSF_VQ_weights_laroia 000000018006f870     libopus:NLSF_VQ_weights_laroia.obj
 0002:00018880       $chain$2$silk_NLSF_VQ_weights_laroia 000000018006f880     libopus:NLSF_VQ_weights_laroia.obj
 0002:0001889c       $chain$3$silk_NLSF_VQ_weights_laroia 000000018006f89c     libopus:NLSF_VQ_weights_laroia.obj
 0002:000188ac       $unwind$silk_VQ_WMat_EC_c  000000018006f8ac     libopus:VQ_WMat_EC.obj
 0002:000188b8       $chain$5$silk_VQ_WMat_EC_c 000000018006f8b8     libopus:VQ_WMat_EC.obj
 0002:000188e0       $chain$6$silk_VQ_WMat_EC_c 000000018006f8e0     libopus:VQ_WMat_EC.obj
 0002:000188f0       $unwind$silk_NLSF_encode   000000018006f8f0     libopus:NLSF_encode.obj
 0002:00018914       $unwind$silk_LDL_FLP       000000018006f914     libopus:solve_LS_FLP.obj
 0002:00018938       $unwind$silk_corrMatrix_FLP 000000018006f938     libopus:corrMatrix_FLP.obj
 0002:00018950       $unwind$silk_burg_modified_FLP 000000018006f950     libopus:burg_modified_FLP.obj
 0002:0001897c       $chain$4$silk_burg_modified_FLP 000000018006f97c     libopus:burg_modified_FLP.obj
 0002:000189a0       $chain$8$silk_burg_modified_FLP 000000018006f9a0     libopus:burg_modified_FLP.obj
 0002:000189c0       $chain$9$silk_burg_modified_FLP 000000018006f9c0     libopus:burg_modified_FLP.obj
 0002:000189d0       $chain$10$silk_burg_modified_FLP 000000018006f9d0     libopus:burg_modified_FLP.obj
 0002:000189e0       $unwind$silk_insertion_sort_decreasing_FLP 000000018006f9e0     libopus:sort_FLP.obj
 0002:000189f4       $chain$1$silk_insertion_sort_decreasing_FLP 000000018006f9f4     libopus:sort_FLP.obj
 0002:00018a08       $chain$2$silk_insertion_sort_decreasing_FLP 000000018006fa08     libopus:sort_FLP.obj
 0002:00018a18       $unwind$silk_resampler_down2_3 000000018006fa18     libopus:resampler_down2_3.obj
 0002:00018a40       $unwind$silk_insertion_sort_increasing 000000018006fa40     libopus:sort.obj
 0002:00018a58       $chain$1$silk_insertion_sort_increasing 000000018006fa58     libopus:sort.obj
 0002:00018a6c       $chain$2$silk_insertion_sort_increasing 000000018006fa6c     libopus:sort.obj
 0002:00018a7c       $unwind$silk_NLSF_del_dec_quant 000000018006fa7c     libopus:NLSF_del_dec_quant.obj
 0002:00018aa4       $unwind$silk_NLSF_VQ       000000018006faa4     libopus:NLSF_VQ.obj
 0002:00018ab8       xdata                      000000018006fab8     node:node.exe
 0002:00018ac0       $xdatasym                  000000018006fac0     LIBCMT:amdsecgs.obj
 0002:00018ac8       $xdatasym                  000000018006fac8     LIBCMT:memcpy.obj
 0002:00018acc       $unwind$swprintf           000000018006facc     LIBCMT:wassert.obj
 0002:00018ad4       $unwind$_wassert           000000018006fad4     LIBCMT:wassert.obj
 0002:00018af8       $unwind$_onexit            000000018006faf8     LIBCMT:onexit.obj
 0002:00018b28       $unwind$_CRT_INIT          000000018006fb28     LIBCMT:dllcrt0.obj
 0002:00018b48       $unwind$__DllMainCRTStartup 000000018006fb48     LIBCMT:dllcrt0.obj
 0002:00018b70       $unwind$__report_securityfailure 000000018006fb70     LIBCMT:gs_report.obj
 0002:00018b78       $xdatasym                  000000018006fb78     LIBCMT:strlen.obj
 0002:00018b7c       $unwind$_CxxThrowException 000000018006fb7c     LIBCMT:throw.obj
 0002:00018b8c       $unwind$?_Copy_str@exception@std@@AEAAXPEBD@Z 000000018006fb8c     LIBCMT:stdexcpt.obj
 0002:00018b9c       $unwind$__isa_available_init 000000018006fb9c     LIBCMT:cpu_disp.obj
 0002:00018bb0       $unwind$_call_reportfault  000000018006fbb0     LIBCMT:invarg.obj
 0002:00018bd0       $unwind$_invalid_parameter 000000018006fbd0     LIBCMT:invarg.obj
 0002:00018bd0       $unwind$_setenvp           000000018006fbd0     LIBCMT:invarg.obj
 0002:00018be4       $unwind$doexit             000000018006fbe4     LIBCMT:crt0dat.obj
 0002:00018c14       $unwind$fflush             000000018006fc14     LIBCMT:fflush.obj
 0002:00018c38       $unwind$flsall             000000018006fc38     LIBCMT:fflush.obj
 0002:00018c78       $unwind$setvbuf            000000018006fc78     LIBCMT:setvbuf.obj
 0002:00018ca4       $unwind$fwprintf           000000018006fca4     LIBCMT:fwprintf.obj
 0002:00018cc8       $unwind$_cfltcvt_l         000000018006fcc8     LIBCMT:vswprnc.obj
 0002:00018cc8       $unwind$_log10_special     000000018006fcc8     LIBCMT:vswprnc.obj
 0002:00018cc8       $unwind$_itow_s            000000018006fcc8     LIBCMT:vswprnc.obj
 0002:00018cc8       $unwind$_invalid_parameter_noinfo 000000018006fcc8     LIBCMT:vswprnc.obj
 0002:00018cc8       $unwind$_log_special       000000018006fcc8     LIBCMT:vswprnc.obj
 0002:00018cc8       $unwind$_vswprintf_c_l     000000018006fcc8     LIBCMT:vswprnc.obj
 0002:00018cc8       $unwind$wctomb_s           000000018006fcc8     LIBCMT:vswprnc.obj
 0002:00018cd0       $unwind$_vswprintf_helper  000000018006fcd0     LIBCMT:vswprnc.obj
 0002:00018ce8       $unwind$raise              000000018006fce8     LIBCMT:winsig.obj
 0002:00018d18       $unwind$__crtMessageBoxW   000000018006fd18     LIBCMT:crtmboxw.obj
 0002:00018d34       $unwind$_NMSG_WRITE        000000018006fd34     LIBCMT:crt0msg.obj
 0002:00018d58       $unwind$_malloc_crt        000000018006fd58     LIBCMT:crtheap.obj
 0002:00018d58       $unwind$GetTableIndexFromLocaleName 000000018006fd58     LIBCMT:crtheap.obj
 0002:00018d58       $unwind$_realloc_crt       000000018006fd58     LIBCMT:crtheap.obj
 0002:00018d58       $unwind$_calloc_crt        000000018006fd58     LIBCMT:crtheap.obj
 0002:00018d70       $unwind$__C_specific_handler 000000018006fd70     LIBCMT:chandler.obj
 0002:00018d8c       $unwind$_ctrlfp            000000018006fd8c     LIBCMT:fpctrl.obj
 0002:00018db4       $unwind$_call_matherr      000000018006fdb4     LIBCMT:libm_error.obj
 0002:00018dbc       $unwind$_handle_error      000000018006fdbc     LIBCMT:libm_error.obj
 0002:00018ddc       $unwind$__updatetlocinfo   000000018006fddc     LIBCMT:localref.obj
 0002:00018dfc       $unwind$__updatetmbcinfo   000000018006fdfc     LIBCMT:mbctype.obj
 0002:00018e20       $unwind$_setmbcp           000000018006fe20     LIBCMT:mbctype.obj
 0002:00018e50       $unwind$_setmbcp_nolock    000000018006fe50     LIBCMT:mbctype.obj
 0002:00018e70       $unwind$?setSBUpLow@@YAXPEAUthreadmbcinfostruct@@@Z 000000018006fe70     LIBCMT:mbctype.obj
 0002:00018e8c       $unwind$_tolower_l         000000018006fe8c     LIBCMT:tolower.obj
 0002:00018e9c       $unwind$_freefls           000000018006fe9c     LIBCMT:tidtable.obj
 0002:00018ed0       $unwind$_initptd           000000018006fed0     LIBCMT:tidtable.obj
 0002:00018f04       $unwind$_locterm           000000018006ff04     LIBCMT:wsetloca.obj
 0002:00018f24       $unwind$_ioinit            000000018006ff24     LIBCMT:ioinit.obj
 0002:00018f6c       $unwind$parse_cmdline      000000018006ff6c     LIBCMT:stdargv.obj
 0002:00018f88       $unwind$__security_init_cookie 000000018006ff88     LIBCMT:gs_support.obj
 0002:00018f94       $unwind$__crtCaptureCurrentContext 000000018006ff94     LIBCMT:winapisupp.obj
 0002:00018fa0       $unwind$__crtCapturePreviousContext 000000018006ffa0     LIBCMT:winapisupp.obj
 0002:00018fac       $unwind$__DestructExceptionObject 000000018006ffac     LIBCMT:frame.obj
 0002:00018fcc       $unwind$?terminate@@YAXXZ  000000018006ffcc     LIBCMT:hooks.obj
 0002:00018ff0       $xdatasym                  000000018006fff0     LIBCMT:strcmp.obj
 0002:00018ff4       $unwind$?_Type_info_dtor@type_info@@CAXPEAV1@@Z 000000018006fff4     LIBCMT:typname.obj
 0002:00019014       $unwind$isdigit            0000000180070014     LIBCMT:cvt.obj
 0002:00019014       $unwind$?getSystemCP@@YAHH@Z 0000000180070014     LIBCMT:cvt.obj
 0002:00019014       $unwind$??2@YAPEAX_K@Z     0000000180070014     LIBCMT:cvt.obj
 0002:00019014       $unwind$_isleadbyte_l      0000000180070014     LIBCMT:cvt.obj
 0002:00019014       $unwind$_forcdecpt_l       0000000180070014     LIBCMT:cvt.obj
 0002:00019014       $unwind$isleadbyte         0000000180070014     LIBCMT:cvt.obj
 0002:00019014       $unwind$_cropzeros_l       0000000180070014     LIBCMT:cvt.obj
 0002:0001901c       $unwind$_cftoe2_l          000000018007001c     LIBCMT:cvt.obj
 0002:00019038       $unwind$_cftoe_l           0000000180070038     LIBCMT:cvt.obj
 0002:00019050       $unwind$_cftoa_l           0000000180070050     LIBCMT:cvt.obj
 0002:0001906c       $unwind$__crtGetEnvironmentStringsA 000000018007006c     LIBCMT:cvt.obj
 0002:0001906c       $unwind$_cftof2_l          000000018007006c     LIBCMT:cvt.obj
 0002:00019084       $unwind$_cftof_l           0000000180070084     LIBCMT:cvt.obj
 0002:0001909c       $unwind$_cftog_l           000000018007009c     LIBCMT:cvt.obj
 0002:000190b8       $xdatasym                  00000001800700b8     LIBCMT:memset.obj
 0002:000190bc       $unwind$_mtinitlocknum     00000001800700bc     LIBCMT:mlock.obj
 0002:000190e4       $unwind$_IsNonwritableInCurrentImage 00000001800700e4     LIBCMT:pesect.obj
 0002:00019108       $unwind$_ftbuf             0000000180070108     LIBCMT:_sftbuf.obj
 0002:00019110       $unwind$_fcloseall         0000000180070110     LIBCMT:closeall.obj
 0002:00019138       $unwind$_commit            0000000180070138     LIBCMT:commit.obj
 0002:00019160       $unwind$_write             0000000180070160     LIBCMT:write.obj
 0002:0001918c       $unwind$_write_nolock      000000018007018c     LIBCMT:write.obj
 0002:000191b0       $unwind$_woutput_l         00000001800701b0     LIBCMT:woutput.obj
 0002:000191d4       $unwind$write_multi_char   00000001800701d4     LIBCMT:woutput.obj
 0002:000191e8       $unwind$_flsbuf            00000001800701e8     LIBCMT:_flsbuf.obj
 0002:00019200       $xdatasym                  0000000180070200     LIBCMT:jmpuwind.obj
 0002:00019214       $unwind$__crtLCMapStringEx 0000000180070214     LIBCMT:winapinls.obj
 0002:00019228       $xdatasym                  0000000180070228     LIBCMT:fpsr.obj
 0002:00019230       $unwind$_raise_exc_ex      0000000180070230     LIBCMT:fpexcept.obj
 0002:00019244       $unwind$__free_lc_time     0000000180070244     LIBCMT:inittime.obj
 0002:00019244       $unwind$__free_lconv_mon   0000000180070244     LIBCMT:inittime.obj
 0002:0001924c       $unwind$__crtLCMapStringA  000000018007024c     LIBCMT:a_map.obj
 0002:0001925c       $unwind$?__crtLCMapStringA_stat@@YAHPEAUlocaleinfo_struct@@PEB_WKPEBDHPEADHHH@Z 000000018007025c     LIBCMT:a_map.obj
 0002:00019284       $unwind$__crtGetStringTypeA 0000000180070284     LIBCMT:a_str.obj
 0002:00019294       $unwind$?__crtGetStringTypeA_stat@@YAHPEAUlocaleinfo_struct@@KPEBDHPEAGHH@Z 0000000180070294     LIBCMT:a_str.obj
 0002:000192bc       $unwind$_isctype_l         00000001800702bc     LIBCMT:isctype.obj
 0002:000192d0       $xdatasym                  00000001800702d0     LIBCMT:memcmp.obj
 0002:000192d8       $xdatasym                  00000001800702d8     LIBCMT:handlers.obj
 0002:000192e0       $unwind$_atodbl_l          00000001800702e0     LIBCMT:atodbl.obj
 0002:000192f4       $unwind$__crt_atoflt_l     00000001800702f4     LIBCMT:atodbl.obj
 0002:00019308       $unwind$_fltout2           0000000180070308     LIBCMT:cfout.obj
 0002:00019320       $unwind$fclose             0000000180070320     LIBCMT:fclose.obj
 0002:00019344       $unwind$_stbuf             0000000180070344     LIBCMT:osfinfo.obj
 0002:00019344       $unwind$_free_osfhnd       0000000180070344     LIBCMT:osfinfo.obj
 0002:00019354       $unwind$__lock_fhandle     0000000180070354     LIBCMT:osfinfo.obj
 0002:00019380       $unwind$_lseeki64          0000000180070380     LIBCMT:lseeki64.obj
 0002:000193ac       $unwind$_mbtowc_l          00000001800703ac     LIBCMT:mbtowc.obj
 0002:000193c4       $unwind$__report_gsfailure 00000001800703c4     LIBCMT:putwch.obj
 0002:000193c4       $unwind$_putwch_nolock     00000001800703c4     LIBCMT:putwch.obj
 0002:000193d0       $xdatasym                  00000001800703d0     LIBCMT:chkstk.obj
 0002:000193d8       $unwind$_fputwc_nolock     00000001800703d8     LIBCMT:fputwc.obj
 0002:000193f4       $unwind$_ld12tof           00000001800703f4     LIBCMT:intrncvt.obj
 0002:000193f4       $unwind$_ld12tod           00000001800703f4     LIBCMT:intrncvt.obj
 0002:00019418       $unwind$__strgtold12_l     0000000180070418     LIBCMT:strgtold.obj
 0002:0001943c       $unwind$$I10_OUTPUT        000000018007043c     LIBCMT:x10fout.obj
 0002:00019460       $unwind$_close             0000000180070460     LIBCMT:close.obj
 0002:00019488       $unwind$_wctomb_s_l        0000000180070488     LIBCMT:wctomb.obj
 0002:00019498       $unwind$_flswbuf           0000000180070498     LIBCMT:_flswbuf.obj
 0002:000194ac       $unwind$__mtold12          00000001800704ac     LIBCMT:mantold.obj
 0002:000194c4       $unwind$__delayLoadHelper2 00000001800704c4     DelayImp:delayhlp.obj
 0002:000194dc       $unwind$atan2              00000001800704dc     LIBCMT:atan2.obj
 0002:00019510       $xdatasym                  0000000180070510     LIBCMT:cos.obj
 0002:00019518       $xdatasym                  0000000180070518     LIBCMT:exp.obj
 0002:00019520       $xdatasym                  0000000180070520     LIBCMT:log.obj
 0002:00019530       $xdatasym                  0000000180070530     LIBCMT:log10.obj
 0002:00019540       $xdatasym                  0000000180070540     LIBCMT:pow.obj
 0002:00019550       $unwind$sqrt               0000000180070550     LIBCMT:sqrt.obj
 0002:00019558       $unwind$__fma3_lib_init    0000000180070558     LIBCMT:fma3_available.obj
 0002:00019560       $xdatasym                  0000000180070560     LIBCMT:remainder_piby2_forAsm.obj
 0002:00019570       $xdatasym                  0000000180070570     LIBCMT:remainder_piby2_forFMA3.obj
 0002:0001957c       $unwind$_exp_special       000000018007057c     LIBCMT:log_special.obj
 0002:0001957c       $unwind$_log_special_common 000000018007057c     LIBCMT:log_special.obj
 0002:00019588       $unwind$_pow_special       0000000180070588     LIBCMT:pow_special.obj
 0002:0001b090       .edata                     0000000180072090     node-opus.exp
 0002:0001b0b8       rgpv                       00000001800720b8     node-opus.exp
 0002:0001b558       rgszName                   0000000180072558     node-opus.exp
 0002:0001b9f8       rgwOrd                     00000001800729f8     node-opus.exp
 0002:0001bc48       szName                     0000000180072c48     node-opus.exp
 0002:0001bc57       $N00001                    0000000180072c57     node-opus.exp
 0002:0001bc84       $N00002                    0000000180072c84     node-opus.exp
 0002:0001bca9       $N00003                    0000000180072ca9     node-opus.exp
 0002:0001bcd2       $N00004                    0000000180072cd2     node-opus.exp
 0002:0001bcf6       $N00005                    0000000180072cf6     node-opus.exp
 0002:0001bd20       $N00006                    0000000180072d20     node-opus.exp
 0002:0001bd4e       $N00007                    0000000180072d4e     node-opus.exp
 0002:0001bd74       $N00008                    0000000180072d74     node-opus.exp
 0002:0001bda8       $N00009                    0000000180072da8     node-opus.exp
 0002:0001bddf       $N00010                    0000000180072ddf     node-opus.exp
 0002:0001be10       $N00011                    0000000180072e10     node-opus.exp
 0002:0001be3e       $N00012                    0000000180072e3e     node-opus.exp
 0002:0001be65       $N00013                    0000000180072e65     node-opus.exp
 0002:0001bea0       $N00014                    0000000180072ea0     node-opus.exp
 0002:0001bed3       $N00015                    0000000180072ed3     node-opus.exp
 0002:0001bf00       $N00016                    0000000180072f00     node-opus.exp
 0002:0001bf31       $N00017                    0000000180072f31     node-opus.exp
 0002:0001bf4c       $N00018                    0000000180072f4c     node-opus.exp
 0002:0001bf70       $N00019                    0000000180072f70     node-opus.exp
 0002:0001bf9e       $N00020                    0000000180072f9e     node-opus.exp
 0002:0001bfc5       $N00021                    0000000180072fc5     node-opus.exp
 0002:0001bfe9       $N00022                    0000000180072fe9     node-opus.exp
 0002:0001c00f       $N00023                    000000018007300f     node-opus.exp
 0002:0001c034       $N00024                    0000000180073034     node-opus.exp
 0002:0001c058       $N00025                    0000000180073058     node-opus.exp
 0002:0001c071       $N00026                    0000000180073071     node-opus.exp
 0002:0001c0a5       $N00027                    00000001800730a5     node-opus.exp
 0002:0001c0d6       $N00028                    00000001800730d6     node-opus.exp
 0002:0001c0fd       $N00029                    00000001800730fd     node-opus.exp
 0002:0001c130       $N00030                    0000000180073130     node-opus.exp
 0002:0001c15d       $N00031                    000000018007315d     node-opus.exp
 0002:0001c18e       $N00032                    000000018007318e     node-opus.exp
 0002:0001c1b5       $N00033                    00000001800731b5     node-opus.exp
 0002:0001c1d2       $N00034                    00000001800731d2     node-opus.exp
 0002:0001c200       $N00035                    0000000180073200     node-opus.exp
 0002:0001c234       $N00036                    0000000180073234     node-opus.exp
 0002:0001c256       $N00037                    0000000180073256     node-opus.exp
 0002:0001c27e       $N00038                    000000018007327e     node-opus.exp
 0002:0001c2aa       $N00039                    00000001800732aa     node-opus.exp
 0002:0001c2ce       $N00040                    00000001800732ce     node-opus.exp
 0002:0001c2f8       $N00041                    00000001800732f8     node-opus.exp
 0002:0001c32b       $N00042                    000000018007332b     node-opus.exp
 0002:0001c364       $N00043                    0000000180073364     node-opus.exp
 0002:0001c388       $N00044                    0000000180073388     node-opus.exp
 0002:0001c3a9       $N00045                    00000001800733a9     node-opus.exp
 0002:0001c3ce       $N00046                    00000001800733ce     node-opus.exp
 0002:0001c3ef       $N00047                    00000001800733ef     node-opus.exp
 0002:0001c415       $N00048                    0000000180073415     node-opus.exp
 0002:0001c43a       $N00049                    000000018007343a     node-opus.exp
 0002:0001c46e       $N00050                    000000018007346e     node-opus.exp
 0002:0001c4b0       $N00051                    00000001800734b0     node-opus.exp
 0002:0001c4d9       $N00052                    00000001800734d9     node-opus.exp
 0002:0001c502       $N00053                    0000000180073502     node-opus.exp
 0002:0001c527       $N00054                    0000000180073527     node-opus.exp
 0002:0001c554       $N00055                    0000000180073554     node-opus.exp
 0002:0001c585       $N00056                    0000000180073585     node-opus.exp
 0002:0001c5b5       $N00057                    00000001800735b5     node-opus.exp
 0002:0001c5e0       $N00058                    00000001800735e0     node-opus.exp
 0002:0001c607       $N00059                    0000000180073607     node-opus.exp
 0002:0001c629       $N00060                    0000000180073629     node-opus.exp
 0002:0001c650       $N00061                    0000000180073650     node-opus.exp
 0002:0001c676       $N00062                    0000000180073676     node-opus.exp
 0002:0001c69a       $N00063                    000000018007369a     node-opus.exp
 0002:0001c6bb       $N00064                    00000001800736bb     node-opus.exp
 0002:0001c6db       $N00065                    00000001800736db     node-opus.exp
 0002:0001c6ff       $N00066                    00000001800736ff     node-opus.exp
 0002:0001c720       $N00067                    0000000180073720     node-opus.exp
 0002:0001c74a       $N00068                    000000018007374a     node-opus.exp
 0002:0001c76d       $N00069                    000000018007376d     node-opus.exp
 0002:0001c796       $N00070                    0000000180073796     node-opus.exp
 0002:0001c7b9       $N00071                    00000001800737b9     node-opus.exp
 0002:0001c7e4       $N00072                    00000001800737e4     node-opus.exp
 0002:0001c818       $N00073                    0000000180073818     node-opus.exp
 0002:0001c83e       $N00074                    000000018007383e     node-opus.exp
 0002:0001c862       $N00075                    0000000180073862     node-opus.exp
 0002:0001c885       $N00076                    0000000180073885     node-opus.exp
 0002:0001c8b4       $N00077                    00000001800738b4     node-opus.exp
 0002:0001c8e4       $N00078                    00000001800738e4     node-opus.exp
 0002:0001c907       $N00079                    0000000180073907     node-opus.exp
 0002:0001c932       $N00080                    0000000180073932     node-opus.exp
 0002:0001c952       $N00081                    0000000180073952     node-opus.exp
 0002:0001c980       $N00082                    0000000180073980     node-opus.exp
 0002:0001c9a6       $N00083                    00000001800739a6     node-opus.exp
 0002:0001c9cd       $N00084                    00000001800739cd     node-opus.exp
 0002:0001c9f4       $N00085                    00000001800739f4     node-opus.exp
 0002:0001ca1c       $N00086                    0000000180073a1c     node-opus.exp
 0002:0001ca3f       $N00087                    0000000180073a3f     node-opus.exp
 0002:0001ca68       $N00088                    0000000180073a68     node-opus.exp
 0002:0001ca8b       $N00089                    0000000180073a8b     node-opus.exp
 0002:0001cab4       $N00090                    0000000180073ab4     node-opus.exp
 0002:0001cad9       $N00091                    0000000180073ad9     node-opus.exp
 0002:0001cb00       $N00092                    0000000180073b00     node-opus.exp
 0002:0001cb27       $N00093                    0000000180073b27     node-opus.exp
 0002:0001cb4f       $N00094                    0000000180073b4f     node-opus.exp
 0002:0001cb72       $N00095                    0000000180073b72     node-opus.exp
 0002:0001cb9a       $N00096                    0000000180073b9a     node-opus.exp
 0002:0001cbc1       $N00097                    0000000180073bc1     node-opus.exp
 0002:0001cbef       $N00098                    0000000180073bef     node-opus.exp
 0002:0001cc19       $N00099                    0000000180073c19     node-opus.exp
 0002:0001cc3e       $N00100                    0000000180073c3e     node-opus.exp
 0002:0001cc5d       $N00101                    0000000180073c5d     node-opus.exp
 0002:0001cc7f       $N00102                    0000000180073c7f     node-opus.exp
 0002:0001cca2       $N00103                    0000000180073ca2     node-opus.exp
 0002:0001ccc5       $N00104                    0000000180073cc5     node-opus.exp
 0002:0001cce4       $N00105                    0000000180073ce4     node-opus.exp
 0002:0001cd03       $N00106                    0000000180073d03     node-opus.exp
 0002:0001cd25       $N00107                    0000000180073d25     node-opus.exp
 0002:0001cd3b       $N00108                    0000000180073d3b     node-opus.exp
 0002:0001cd6c       $N00109                    0000000180073d6c     node-opus.exp
 0002:0001cd9a       $N00110                    0000000180073d9a     node-opus.exp
 0002:0001cdbe       $N00111                    0000000180073dbe     node-opus.exp
 0002:0001cdee       $N00112                    0000000180073dee     node-opus.exp
 0002:0001ce18       $N00113                    0000000180073e18     node-opus.exp
 0002:0001ce46       $N00114                    0000000180073e46     node-opus.exp
 0002:0001ce6a       $N00115                    0000000180073e6a     node-opus.exp
 0002:0001cec2       $N00116                    0000000180073ec2     node-opus.exp
 0002:0001cf1b       $N00117                    0000000180073f1b     node-opus.exp
 0002:0001cf59       $N00118                    0000000180073f59     node-opus.exp
 0002:0001cf87       $N00119                    0000000180073f87     node-opus.exp
 0002:0001cfbb       $N00120                    0000000180073fbb     node-opus.exp
 0002:0001cff0       $N00121                    0000000180073ff0     node-opus.exp
 0002:0001d018       $N00122                    0000000180074018     node-opus.exp
 0002:0001d046       $N00123                    0000000180074046     node-opus.exp
 0002:0001d078       $N00124                    0000000180074078     node-opus.exp
 0002:0001d0a2       $N00125                    00000001800740a2     node-opus.exp
 0002:0001d0d2       $N00126                    00000001800740d2     node-opus.exp
 0002:0001d0fd       $N00127                    00000001800740fd     node-opus.exp
 0002:0001d124       $N00128                    0000000180074124     node-opus.exp
 0002:0001d14f       $N00129                    000000018007414f     node-opus.exp
 0002:0001d17e       $N00130                    000000018007417e     node-opus.exp
 0002:0001d1ad       $N00131                    00000001800741ad     node-opus.exp
 0002:0001d1d8       $N00132                    00000001800741d8     node-opus.exp
 0002:0001d205       $N00133                    0000000180074205     node-opus.exp
 0002:0001d22d       $N00134                    000000018007422d     node-opus.exp
 0002:0001d25a       $N00135                    000000018007425a     node-opus.exp
 0002:0001d286       $N00136                    0000000180074286     node-opus.exp
 0002:0001d2b0       $N00137                    00000001800742b0     node-opus.exp
 0002:0001d2d6       $N00138                    00000001800742d6     node-opus.exp
 0002:0001d2fd       $N00139                    00000001800742fd     node-opus.exp
 0002:0001d326       $N00140                    0000000180074326     node-opus.exp
 0002:0001d355       $N00141                    0000000180074355     node-opus.exp
 0002:0001d37e       $N00142                    000000018007437e     node-opus.exp
 0002:0001d3a8       $N00143                    00000001800743a8     node-opus.exp
 0002:0001d3d1       $N00144                    00000001800743d1     node-opus.exp
 0002:0001d405       $N00145                    0000000180074405     node-opus.exp
 0002:0001d42b       $N00146                    000000018007442b     node-opus.exp
 0002:0001d45f       $N00147                    000000018007445f     node-opus.exp
 0002:0001d488       $N00148                    0000000180074488     node-opus.exp
 0002:0001d4b7       $N00149                    00000001800744b7     node-opus.exp
 0002:0001d4e0       $N00150                    00000001800744e0     node-opus.exp
 0002:0001d50f       $N00151                    000000018007450f     node-opus.exp
 0002:0001d53c       $N00152                    000000018007453c     node-opus.exp
 0002:0001d56a       $N00153                    000000018007456a     node-opus.exp
 0002:0001d593       $N00154                    0000000180074593     node-opus.exp
 0002:0001d5c1       $N00155                    00000001800745c1     node-opus.exp
 0002:0001d5ee       $N00156                    00000001800745ee     node-opus.exp
 0002:0001d622       $N00157                    0000000180074622     node-opus.exp
 0002:0001d64c       $N00158                    000000018007464c     node-opus.exp
 0002:0001d67c       $N00159                    000000018007467c     node-opus.exp
 0002:0001d6b3       $N00160                    00000001800746b3     node-opus.exp
 0002:0001d6f2       $N00161                    00000001800746f2     node-opus.exp
 0002:0001d72d       $N00162                    000000018007472d     node-opus.exp
 0002:0001d768       $N00163                    0000000180074768     node-opus.exp
 0002:0001d7c5       $N00164                    00000001800747c5     node-opus.exp
 0002:0001d7e6       $N00165                    00000001800747e6     node-opus.exp
 0002:0001d824       $N00166                    0000000180074824     node-opus.exp
 0002:0001d86f       $N00167                    000000018007486f     node-opus.exp
 0002:0001d8d3       $N00168                    00000001800748d3     node-opus.exp
 0002:0001d8ed       $N00169                    00000001800748ed     node-opus.exp
 0002:0001d92b       $N00170                    000000018007492b     node-opus.exp
 0002:0001d95c       $N00171                    000000018007495c     node-opus.exp
 0002:0001d9d6       $N00172                    00000001800749d6     node-opus.exp
 0002:0001d9fe       $N00173                    00000001800749fe     node-opus.exp
 0002:0001da47       $N00174                    0000000180074a47     node-opus.exp
 0002:0001da5d       $N00175                    0000000180074a5d     node-opus.exp
 0002:0001da91       $N00176                    0000000180074a91     node-opus.exp
 0002:0001daac       $N00177                    0000000180074aac     node-opus.exp
 0002:0001dac9       $N00178                    0000000180074ac9     node-opus.exp
 0002:0001dae9       $N00179                    0000000180074ae9     node-opus.exp
 0002:0001db20       $N00180                    0000000180074b20     node-opus.exp
 0002:0001db61       $N00181                    0000000180074b61     node-opus.exp
 0002:0001dbba       $N00182                    0000000180074bba     node-opus.exp
 0002:0001dbda       $N00183                    0000000180074bda     node-opus.exp
 0002:0001dbfc       $N00184                    0000000180074bfc     node-opus.exp
 0002:0001dc21       $N00185                    0000000180074c21     node-opus.exp
 0002:0001dc6d       $N00186                    0000000180074c6d     node-opus.exp
 0002:0001dcb9       $N00187                    0000000180074cb9     node-opus.exp
 0002:0001dd12       $N00188                    0000000180074d12     node-opus.exp
 0002:0001dd6d       $N00189                    0000000180074d6d     node-opus.exp
 0002:0001ddaf       $N00190                    0000000180074daf     node-opus.exp
 0002:0001de07       $N00191                    0000000180074e07     node-opus.exp
 0002:0001de63       $N00192                    0000000180074e63     node-opus.exp
 0002:0001de85       $N00193                    0000000180074e85     node-opus.exp
 0002:0001defc       $N00194                    0000000180074efc     node-opus.exp
 0002:0001df2a       $N00195                    0000000180074f2a     node-opus.exp
 0002:0001e043       $N00196                    0000000180075043     node-opus.exp
 0002:0001e072       $N00197                    0000000180075072     node-opus.exp
 0002:0001e0a9       $N00198                    00000001800750a9     node-opus.exp
 0002:0001e0e4       $N00199                    00000001800750e4     node-opus.exp
 0002:0001e117       $N00200                    0000000180075117     node-opus.exp
 0002:0001e14e       $N00201                    000000018007514e     node-opus.exp
 0002:0001e183       $N00202                    0000000180075183     node-opus.exp
 0002:0001e1b8       $N00203                    00000001800751b8     node-opus.exp
 0002:0001e1ed       $N00204                    00000001800751ed     node-opus.exp
 0002:0001e222       $N00205                    0000000180075222     node-opus.exp
 0002:0001e265       $N00206                    0000000180075265     node-opus.exp
 0002:0001e2b6       $N00207                    00000001800752b6     node-opus.exp
 0002:0001e311       $N00208                    0000000180075311     node-opus.exp
 0002:0001e364       $N00209                    0000000180075364     node-opus.exp
 0002:0001e3a9       $N00210                    00000001800753a9     node-opus.exp
 0002:0001e431       $N00211                    0000000180075431     node-opus.exp
 0002:0001e455       $N00212                    0000000180075455     node-opus.exp
 0002:0001e485       $N00213                    0000000180075485     node-opus.exp
 0002:0001e4b7       $N00214                    00000001800754b7     node-opus.exp
 0002:0001e4ee       $N00215                    00000001800754ee     node-opus.exp
 0002:0001e518       $N00216                    0000000180075518     node-opus.exp
 0002:0001e540       $N00217                    0000000180075540     node-opus.exp
 0002:0001e56e       $N00218                    000000018007556e     node-opus.exp
 0002:0001e59b       $N00219                    000000018007559b     node-opus.exp
 0002:0001e5da       $N00220                    00000001800755da     node-opus.exp
 0002:0001e603       $N00221                    0000000180075603     node-opus.exp
 0002:0001e630       $N00222                    0000000180075630     node-opus.exp
 0002:0001e65f       $N00223                    000000018007565f     node-opus.exp
 0002:0001e67a       $N00224                    000000018007567a     node-opus.exp
 0002:0001e699       $N00225                    0000000180075699     node-opus.exp
 0002:0001e6bc       $N00226                    00000001800756bc     node-opus.exp
 0002:0001e6df       $N00227                    00000001800756df     node-opus.exp
 0002:0001e700       $N00228                    0000000180075700     node-opus.exp
 0002:0001e737       $N00229                    0000000180075737     node-opus.exp
 0002:0001e75c       $N00230                    000000018007575c     node-opus.exp
 0002:0001e77d       $N00231                    000000018007577d     node-opus.exp
 0002:0001e7b4       $N00232                    00000001800757b4     node-opus.exp
 0002:0001e7e9       $N00233                    00000001800757e9     node-opus.exp
 0002:0001e81d       $N00234                    000000018007581d     node-opus.exp
 0002:0001e852       $N00235                    0000000180075852     node-opus.exp
 0002:0001e871       $N00236                    0000000180075871     node-opus.exp
 0002:0001e8a1       $N00237                    00000001800758a1     node-opus.exp
 0002:0001e8d0       $N00238                    00000001800758d0     node-opus.exp
 0002:0001e905       $N00239                    0000000180075905     node-opus.exp
 0002:0001e936       $N00240                    0000000180075936     node-opus.exp
 0002:0001e96c       $N00241                    000000018007596c     node-opus.exp
 0002:0001e995       $N00242                    0000000180075995     node-opus.exp
 0002:0001e9cc       $N00243                    00000001800759cc     node-opus.exp
 0002:0001ea08       $N00244                    0000000180075a08     node-opus.exp
 0002:0001ea42       $N00245                    0000000180075a42     node-opus.exp
 0002:0001ea7b       $N00246                    0000000180075a7b     node-opus.exp
 0002:0001eab5       $N00247                    0000000180075ab5     node-opus.exp
 0002:0001eaea       $N00248                    0000000180075aea     node-opus.exp
 0002:0001eb32       $N00249                    0000000180075b32     node-opus.exp
 0002:0001eb58       $N00250                    0000000180075b58     node-opus.exp
 0002:0001eb8f       $N00251                    0000000180075b8f     node-opus.exp
 0002:0001ebbe       $N00252                    0000000180075bbe     node-opus.exp
 0002:0001ebeb       $N00253                    0000000180075beb     node-opus.exp
 0002:0001ec1d       $N00254                    0000000180075c1d     node-opus.exp
 0002:0001ec4d       $N00255                    0000000180075c4d     node-opus.exp
 0002:0001ec7f       $N00256                    0000000180075c7f     node-opus.exp
 0002:0001ecac       $N00257                    0000000180075cac     node-opus.exp
 0002:0001ece4       $N00258                    0000000180075ce4     node-opus.exp
 0002:0001ed15       $N00259                    0000000180075d15     node-opus.exp
 0002:0001ed41       $N00260                    0000000180075d41     node-opus.exp
 0002:0001ed56       $N00261                    0000000180075d56     node-opus.exp
 0002:0001ed62       $N00262                    0000000180075d62     node-opus.exp
 0002:0001ed74       $N00263                    0000000180075d74     node-opus.exp
 0002:0001ed88       $N00264                    0000000180075d88     node-opus.exp
 0002:0001ed99       $N00265                    0000000180075d99     node-opus.exp
 0002:0001edae       $N00266                    0000000180075dae     node-opus.exp
 0002:0001edca       $N00267                    0000000180075dca     node-opus.exp
 0002:0001ede0       $N00268                    0000000180075de0     node-opus.exp
 0002:0001edf2       $N00269                    0000000180075df2     node-opus.exp
 0002:0001edfe       $N00270                    0000000180075dfe     node-opus.exp
 0002:0001ee10       $N00271                    0000000180075e10     node-opus.exp
 0002:0001ee24       $N00272                    0000000180075e24     node-opus.exp
 0002:0001ee35       $N00273                    0000000180075e35     node-opus.exp
 0002:0001ee4a       $N00274                    0000000180075e4a     node-opus.exp
 0002:0001ee60       $N00275                    0000000180075e60     node-opus.exp
 0002:0001ee72       $N00276                    0000000180075e72     node-opus.exp
 0002:0001ee8a       $N00277                    0000000180075e8a     node-opus.exp
 0002:0001eea6       $N00278                    0000000180075ea6     node-opus.exp
 0002:0001eec4       $N00279                    0000000180075ec4     node-opus.exp
 0002:0001eede       $N00280                    0000000180075ede     node-opus.exp
 0002:0001eefa       $N00281                    0000000180075efa     node-opus.exp
 0002:0001ef14       $N00282                    0000000180075f14     node-opus.exp
 0002:0001ef2f       $N00283                    0000000180075f2f     node-opus.exp
 0002:0001ef51       $N00284                    0000000180075f51     node-opus.exp
 0002:0001ef61       $N00285                    0000000180075f61     node-opus.exp
 0002:0001ef73       $N00286                    0000000180075f73     node-opus.exp
 0002:0001ef85       $N00287                    0000000180075f85     node-opus.exp
 0002:0001ef98       $N00288                    0000000180075f98     node-opus.exp
 0002:0001efae       $N00289                    0000000180075fae     node-opus.exp
 0002:0001efc7       $N00290                    0000000180075fc7     node-opus.exp
 0002:0001efe1       $N00291                    0000000180075fe1     node-opus.exp
 0002:0001f001       $N00292                    0000000180076001     node-opus.exp
 0002:0001f01c       $N00293                    000000018007601c     node-opus.exp
 0002:0001f033       $N00294                    0000000180076033     node-opus.exp
 0002:0001f049       $N00295                    0000000180076049     node-opus.exp
 0002:0001f065       $N00296                    0000000180076065     node-opus.exp
 0002:0001f2dc       .idata$6                   00000001800762dc     kernel32:KERNEL32.dll
 0003:00000000       _assertstring              0000000180077000     LIBCMT:wassert.obj
 0003:00000050       dotdotdot                  0000000180077050     LIBCMT:wassert.obj
 0003:00000058       newline                    0000000180077058     LIBCMT:wassert.obj
 0003:00000060       dblnewline                 0000000180077060     LIBCMT:wassert.obj
 0003:00000460       ?dazSupported@?1??_ctrlfp@@9@9 0000000180077460     LIBCMT:fpctrl.obj
 0003:000008a8       __rgctypeflag              00000001800778a8     LIBCMT:mbctype.obj
 0003:000008b0       __rgcode_page_info         00000001800778b0     LIBCMT:mbctype.obj
 0003:000009b0       errtable                   00000001800779b0     LIBCMT:dosmap.obj
 0003:00000b18       ErrnoNoMem                 0000000180077b18     LIBCMT:dosmap.obj
 0003:00000b1c       DoserrorNoMem              0000000180077b1c     LIBCMT:dosmap.obj
 0003:00000f60       _ctype_loc_style           0000000180077f60     LIBCMT:wsetloca.obj
 0003:00000fc8       ?isPackaged@?1??__crtIsPackagedApp@@9@9 0000000180077fc8     LIBCMT:winapisupp.obj
 0003:00001020       _locktable                 0000000180078020     LIBCMT:mlock.obj
 0003:00001260       ?_names@?1??_get_fname@@9@9 0000000180078260     LIBCMT:fpexcept.obj
 0003:00001538       DoubleFormat               0000000180078538     LIBCMT:intrncvt.obj
 0003:00001550       FloatFormat                0000000180078550     LIBCMT:intrncvt.obj
 0003:00001840       _module                    0000000180078840     node-opus.obj
 0003:00001888       ?pi@?1??atan2@@9@9         0000000180078888     LIBCMT:atan2.obj
 0003:00001890       ?piby2@?1??atan2@@9@9      0000000180078890     LIBCMT:atan2.obj
 0003:00001898       ?piby4@?1??atan2@@9@9      0000000180078898     LIBCMT:atan2.obj
 0003:000018a0       ?three_piby4@?1??atan2@@9@9 00000001800788a0     LIBCMT:atan2.obj
 0003:000018a8       ?pi_head@?1??atan2@@9@9    00000001800788a8     LIBCMT:atan2.obj
 0003:000018b0       ?pi_tail@?1??atan2@@9@9    00000001800788b0     LIBCMT:atan2.obj
 0003:000018b8       ?piby2_head@?1??atan2@@9@9 00000001800788b8     LIBCMT:atan2.obj
 0003:000018c0       ?piby2_tail@?1??atan2@@9@9 00000001800788c0     LIBCMT:atan2.obj
 0003:00001bc8       allocator_arg              0000000180078bc8     libcpmt:syserror.obj
 0003:00001bc9       piecewise_construct        0000000180078bc9     libcpmt:syserror.obj
 0003:00001bca       _Tuple_alloc               0000000180078bca     libcpmt:xthrow.obj
 0003:00001bcb       ignore                     0000000180078bcb     libcpmt:xthrow.obj
 0003:00001bcc       allocator_arg              0000000180078bcc     libcpmt:xthrow.obj
 0003:00001bcd       piecewise_construct        0000000180078bcd     libcpmt:xthrow.obj
 0003:00001bd0       __proc_attached            0000000180078bd0     LIBCMT:dllcrt0.obj
 0003:00001bf0       GS_ExceptionRecord         0000000180078bf0     LIBCMT:gs_report.obj
 0003:00001c90       GS_ContextRecord           0000000180078c90     LIBCMT:gs_report.obj
 0003:00002160       DebuggerWasPresent         0000000180079160     LIBCMT:gs_report.obj
 0003:000021d8       ctrlc_action               00000001800791d8     LIBCMT:winsig.obj
 0003:000021e0       ctrlbreak_action           00000001800791e0     LIBCMT:winsig.obj
 0003:000021e8       abort_action               00000001800791e8     LIBCMT:winsig.obj
 0003:000021f0       term_action                00000001800791f0     LIBCMT:winsig.obj
 0003:000021f8       ConsoleCtrlHandler_Installed 00000001800791f8     LIBCMT:winsig.obj
 0003:00002200       ?pfnMessageBox@?1??__crtMessageBoxW@@9@9 0000000180079200     LIBCMT:crtmboxw.obj
 0003:00002208       ?pfnGetActiveWindow@?1??__crtMessageBoxW@@9@9 0000000180079208     LIBCMT:crtmboxw.obj
 0003:00002210       ?pfnGetLastActivePopup@?1??__crtMessageBoxW@@9@9 0000000180079210     LIBCMT:crtmboxw.obj
 0003:00002218       ?pfnGetProcessWindowStation@?1??__crtMessageBoxW@@9@9 0000000180079218     LIBCMT:crtmboxw.obj
 0003:00002220       ?pfnGetUserObjectInformation@?1??__crtMessageBoxW@@9@9 0000000180079220     LIBCMT:crtmboxw.obj
 0003:00002240       ?outmsg@?8??_NMSG_WRITE@@9@9 0000000180079240     LIBCMT:crt0msg.obj
 0003:000028a0       fSystemSet                 00000001800798a0     LIBCMT:mbctype.obj
 0003:00002ab0       ?_pgmname@?1??_setargv@@9@9 0000000180079ab0     LIBCMT:stdargv.obj
 0003:00002bd0       __type_info_root_node      0000000180079bd0     LIBCMT:typname.obj
 0003:00002be0       lclcritsects               0000000180079be0     LIBCMT:mlock.obj
 0003:00002e10       g_pfnRtlGenRandom          0000000180079e10     LIBCMT:rand_s.obj
 0003:00002e28       __crtCallProc              0000000180079e28     LIBCMT:winapinls.obj
 0003:00002e80       heap                       0000000180079e80     LIBCMT:undname.obj
 0003:00002eb0       __enable_percent_n         0000000180079eb0     LIBCMT:printf.obj
 0003:00002ee8       allocator_arg              0000000180079ee8     node-opus.obj
 0003:00002ee9       piecewise_construct        0000000180079ee9     node-opus.obj
 0004:00000000       $pdata$?GetId@Script@v8@@QEAAHXZ 000000018007c000     node-opus.obj
 0004:0000000c       $pdata$??_EExternalSourceStream@ScriptCompiler@v8@@UEAAPEAXI@Z 000000018007c00c     node-opus.obj
 0004:00000018       $pdata$0$??_EExternalSourceStream@ScriptCompiler@v8@@UEAAPEAXI@Z 000000018007c018     node-opus.obj
 0004:00000024       $pdata$1$??_EExternalSourceStream@ScriptCompiler@v8@@UEAAPEAXI@Z 000000018007c024     node-opus.obj
 0004:00000030       $pdata$??_EExternalOneByteStringResource@String@v8@@UEAAPEAXI@Z 000000018007c030     node-opus.obj
 0004:00000030       $pdata$??_EExternalStringResourceBase@String@v8@@UEAAPEAXI@Z 000000018007c030     node-opus.obj
 0004:00000030       $pdata$??_EExternalStringResource@String@v8@@UEAAPEAXI@Z 000000018007c030     node-opus.obj
 0004:0000003c       $pdata$0$??_EExternalOneByteStringResource@String@v8@@UEAAPEAXI@Z 000000018007c03c     node-opus.obj
 0004:0000003c       $pdata$0$??_EExternalStringResourceBase@String@v8@@UEAAPEAXI@Z 000000018007c03c     node-opus.obj
 0004:0000003c       $pdata$0$??_EExternalStringResource@String@v8@@UEAAPEAXI@Z 000000018007c03c     node-opus.obj
 0004:00000048       $pdata$1$??_EExternalOneByteStringResource@String@v8@@UEAAPEAXI@Z 000000018007c048     node-opus.obj
 0004:00000048       $pdata$1$??_EExternalStringResource@String@v8@@UEAAPEAXI@Z 000000018007c048     node-opus.obj
 0004:00000048       $pdata$1$??_EExternalStringResourceBase@String@v8@@UEAAPEAXI@Z 000000018007c048     node-opus.obj
 0004:00000054       $pdata$?NewInstance@Function@v8@@QEBA?AV?$MaybeLocal@VObject@v8@@@2@V?$Local@VContext@v8@@@2@@Z 000000018007c054     node-opus.obj
 0004:00000060       $pdata$??_EAllocator@ArrayBuffer@v8@@UEAAPEAXI@Z 000000018007c060     node-opus.obj
 0004:0000006c       $pdata$0$??_EAllocator@ArrayBuffer@v8@@UEAAPEAXI@Z 000000018007c06c     node-opus.obj
 0004:00000078       $pdata$1$??_EAllocator@ArrayBuffer@v8@@UEAAPEAXI@Z 000000018007c078     node-opus.obj
 0004:00000084       $pdata$?SetIndexedPropertyHandler@ObjectTemplate@v8@@QEAAXP6AXIAEBV?$PropertyCallbackInfo@VValue@v8@@@2@@ZP6AXIV?$Local@VValue@v8@@@2@0@ZP6AXIAEBV?$PropertyCallbackInfo@VInteger@v8@@@2@@ZP6AXIAEBV?$PropertyCallbackInfo@VBoolean@v8@@@2@@ZP6AXAEBV?$PropertyCallbackInfo@VArray@v8@@@2@@Z2@Z 000000018007c084     node-opus.obj
 0004:00000090       $pdata$??_EExternalOneByteStringResourceImpl@v8@@UEAAPEAXI@Z 000000018007c090     node-opus.obj
 0004:0000009c       $pdata$0$??_EExternalOneByteStringResourceImpl@v8@@UEAAPEAXI@Z 000000018007c09c     node-opus.obj
 0004:000000a8       $pdata$1$??_EExternalOneByteStringResourceImpl@v8@@UEAAPEAXI@Z 000000018007c0a8     node-opus.obj
 0004:000000b4       $pdata$??_EExtension@v8@@UEAAPEAXI@Z 000000018007c0b4     node-opus.obj
 0004:000000c0       $pdata$0$??_EExtension@v8@@UEAAPEAXI@Z 000000018007c0c0     node-opus.obj
 0004:000000cc       $pdata$1$??_EExtension@v8@@UEAAPEAXI@Z 000000018007c0cc     node-opus.obj
 0004:000000d8       $pdata$??_EPersistentHandleVisitor@v8@@UEAAPEAXI@Z 000000018007c0d8     node-opus.obj
 0004:000000d8       $pdata$??_EExternalResourceVisitor@v8@@UEAAPEAXI@Z 000000018007c0d8     node-opus.obj
 0004:000000e4       $pdata$0$??_EExternalResourceVisitor@v8@@UEAAPEAXI@Z 000000018007c0e4     node-opus.obj
 0004:000000e4       $pdata$0$??_EPersistentHandleVisitor@v8@@UEAAPEAXI@Z 000000018007c0e4     node-opus.obj
 0004:000000f0       $pdata$1$??_EExternalResourceVisitor@v8@@UEAAPEAXI@Z 000000018007c0f0     node-opus.obj
 0004:000000f0       $pdata$1$??_EPersistentHandleVisitor@v8@@UEAAPEAXI@Z 000000018007c0f0     node-opus.obj
 0004:000000fc       $pdata$??0Scope@Isolate@v8@@QEAA@PEAV12@@Z 000000018007c0fc     node-opus.obj
 0004:00000108       $pdata$??0Unlocker@v8@@QEAA@PEAVIsolate@1@@Z 000000018007c108     node-opus.obj
 0004:00000114       $pdata$??0Locker@v8@@QEAA@PEAVIsolate@1@@Z 000000018007c114     node-opus.obj
 0004:00000120       $pdata$?Set@Template@v8@@QEAAXPEAVIsolate@2@PEBDV?$Local@VData@v8@@@2@@Z 000000018007c120     node-opus.obj
 0004:0000012c       $pdata$?GetInternalField@Object@v8@@QEAA?AV?$Local@VValue@v8@@@2@H@Z 000000018007c12c     node-opus.obj
 0004:00000138       $pdata$?ToBoolean@Value@v8@@QEBA?AV?$Local@VBoolean@v8@@@2@XZ 000000018007c138     node-opus.obj
 0004:00000144       $pdata$?ToNumber@Value@v8@@QEBA?AV?$Local@VNumber@v8@@@2@XZ 000000018007c144     node-opus.obj
 0004:00000150       $pdata$?ToString@Value@v8@@QEBA?AV?$Local@VString@v8@@@2@XZ 000000018007c150     node-opus.obj
 0004:0000015c       $pdata$?ToDetailString@Value@v8@@QEBA?AV?$Local@VString@v8@@@2@XZ 000000018007c15c     node-opus.obj
 0004:00000168       $pdata$?ToObject@Value@v8@@QEBA?AV?$Local@VObject@v8@@@2@XZ 000000018007c168     node-opus.obj
 0004:00000174       $pdata$?ToInteger@Value@v8@@QEBA?AV?$Local@VInteger@v8@@@2@XZ 000000018007c174     node-opus.obj
 0004:00000180       $pdata$?ToUint32@Value@v8@@QEBA?AV?$Local@VUint32@v8@@@2@XZ 000000018007c180     node-opus.obj
 0004:0000018c       $pdata$?ToInt32@Value@v8@@QEBA?AV?$Local@VInt32@v8@@@2@XZ 000000018007c18c     node-opus.obj
 0004:00000198       $pdata$?AdjustAmountOfExternalAllocatedMemory@Isolate@v8@@QEAA_J_J@Z 000000018007c198     node-opus.obj
 0004:000001a4       $pdata$?GetEmbedderData@Context@v8@@QEAA?AV?$Local@VValue@v8@@@2@H@Z 000000018007c1a4     node-opus.obj
 0004:000001b0       $pdata$?SetAllowCodeGenerationFromStringsCallback@V8@v8@@SAXP6A_NV?$Local@VContext@v8@@@2@@Z@Z 000000018007c1b0     node-opus.obj
 0004:000001bc       $pdata$?IsDead@V8@v8@@SA_NXZ 000000018007c1bc     node-opus.obj
 0004:000001c8       $pdata$?AddMessageListener@V8@v8@@SA_NP6AXV?$Local@VMessage@v8@@@2@V?$Local@VValue@v8@@@2@@Z1@Z 000000018007c1c8     node-opus.obj
 0004:000001d4       $pdata$?RemoveMessageListeners@V8@v8@@SAXP6AXV?$Local@VMessage@v8@@@2@V?$Local@VValue@v8@@@2@@Z@Z 000000018007c1d4     node-opus.obj
 0004:000001e0       $pdata$?SetFailedAccessCheckCallbackFunction@V8@v8@@SAXP6AXV?$Local@VObject@v8@@@2@W4AccessType@2@V?$Local@VValue@v8@@@2@@Z@Z 000000018007c1e0     node-opus.obj
 0004:000001ec       $pdata$?SetCaptureStackTraceForUncaughtExceptions@V8@v8@@SAX_NHW4StackTraceOptions@StackTrace@2@@Z 000000018007c1ec     node-opus.obj
 0004:000001f8       $pdata$?SetFatalErrorHandler@V8@v8@@SAXP6AXPEBD0@Z@Z 000000018007c1f8     node-opus.obj
 0004:00000204       $pdata$?RemoveGCPrologueCallback@V8@v8@@SAXP6AXW4GCType@2@W4GCCallbackFlags@2@@Z@Z 000000018007c204     node-opus.obj
 0004:00000210       $pdata$?RemoveGCEpilogueCallback@V8@v8@@SAXP6AXW4GCType@2@W4GCCallbackFlags@2@@Z@Z 000000018007c210     node-opus.obj
 0004:0000021c       $pdata$?AddMemoryAllocationCallback@V8@v8@@SAXP6AXW4ObjectSpace@2@W4AllocationAction@2@H@Z01@Z 000000018007c21c     node-opus.obj
 0004:00000228       $pdata$?RemoveMemoryAllocationCallback@V8@v8@@SAXP6AXW4ObjectSpace@2@W4AllocationAction@2@H@Z@Z 000000018007c228     node-opus.obj
 0004:00000234       $pdata$?IsExecutionTerminating@V8@v8@@SA_NPEAVIsolate@2@@Z 000000018007c234     node-opus.obj
 0004:00000240       $pdata$?VisitExternalResources@V8@v8@@SAXPEAVExternalResourceVisitor@2@@Z 000000018007c240     node-opus.obj
 0004:0000024c       $pdata$?VisitHandlesWithClassIds@V8@v8@@SAXPEAVPersistentHandleVisitor@2@@Z 000000018007c24c     node-opus.obj
 0004:00000258       $pdata$??1ObjectWrap@node@@UEAA@XZ 000000018007c258     node-opus.obj
 0004:00000264       $pdata$?Wrap@ObjectWrap@node@@IEAAXV?$Local@VObject@v8@@@v8@@@Z 000000018007c264     node-opus.obj
 0004:00000270       $pdata$?Ref@ObjectWrap@node@@MEAAXXZ 000000018007c270     node-opus.obj
 0004:0000027c       $pdata$?Unref@ObjectWrap@node@@MEAAXXZ 000000018007c27c     node-opus.obj
 0004:00000288       $pdata$?WeakCallback@ObjectWrap@node@@CAXAEBV?$WeakCallbackData@VObject@v8@@VObjectWrap@node@@@v8@@@Z 000000018007c288     node-opus.obj
 0004:00000294       $pdata$??_GObjectWrap@node@@UEAAPEAXI@Z 000000018007c294     node-opus.obj
 0004:000002a0       $pdata$?FunctionCallbackWrapper@imp@Nan@@YAXAEBV?$FunctionCallbackInfo@VValue@v8@@@v8@@@Z 000000018007c2a0     node-opus.obj
 0004:000002ac       $pdata$?New@?$Factory@VFunctionTemplate@v8@@@imp@Nan@@SA?AV?$Local@VFunctionTemplate@v8@@@v8@@P6AXAEBV?$FunctionCallbackInfo@VValue@v8@@@3@@ZV?$Local@VValue@v8@@@5@V?$Local@VSignature@v8@@@5@@Z 000000018007c2ac     node-opus.obj
 0004:000002b8       $pdata$0$?New@?$Factory@VFunctionTemplate@v8@@@imp@Nan@@SA?AV?$Local@VFunctionTemplate@v8@@@v8@@P6AXAEBV?$FunctionCallbackInfo@VValue@v8@@@3@@ZV?$Local@VValue@v8@@@5@V?$Local@VSignature@v8@@@5@@Z 000000018007c2b8     node-opus.obj
 0004:000002c4       $pdata$1$?New@?$Factory@VFunctionTemplate@v8@@@imp@Nan@@SA?AV?$Local@VFunctionTemplate@v8@@@v8@@P6AXAEBV?$FunctionCallbackInfo@VValue@v8@@@3@@ZV?$Local@VValue@v8@@@5@V?$Local@VSignature@v8@@@5@@Z 000000018007c2c4     node-opus.obj
 0004:000002d0       $pdata$?Encode@OpusEncoder@@SAXAEBV?$FunctionCallbackInfo@VValue@v8@@@Nan@@@Z 000000018007c2d0     node-opus.obj
 0004:000002dc       $pdata$3$?Encode@OpusEncoder@@SAXAEBV?$FunctionCallbackInfo@VValue@v8@@@Nan@@@Z 000000018007c2dc     node-opus.obj
 0004:000002e8       $pdata$4$?Encode@OpusEncoder@@SAXAEBV?$FunctionCallbackInfo@VValue@v8@@@Nan@@@Z 000000018007c2e8     node-opus.obj
 0004:000002f4       $pdata$5$?Encode@OpusEncoder@@SAXAEBV?$FunctionCallbackInfo@VValue@v8@@@Nan@@@Z 000000018007c2f4     node-opus.obj
 0004:00000300       $pdata$?Decode@OpusEncoder@@SAXAEBV?$FunctionCallbackInfo@VValue@v8@@@Nan@@@Z 000000018007c300     node-opus.obj
 0004:0000030c       $pdata$1$?Decode@OpusEncoder@@SAXAEBV?$FunctionCallbackInfo@VValue@v8@@@Nan@@@Z 000000018007c30c     node-opus.obj
 0004:00000318       $pdata$3$?Decode@OpusEncoder@@SAXAEBV?$FunctionCallbackInfo@VValue@v8@@@Nan@@@Z 000000018007c318     node-opus.obj
 0004:00000324       $pdata$4$?Decode@OpusEncoder@@SAXAEBV?$FunctionCallbackInfo@VValue@v8@@@Nan@@@Z 000000018007c324     node-opus.obj
 0004:00000330       $pdata$?SetBitrate@OpusEncoder@@SAXAEBV?$FunctionCallbackInfo@VValue@v8@@@Nan@@@Z 000000018007c330     node-opus.obj
 0004:0000033c       $pdata$0$?SetBitrate@OpusEncoder@@SAXAEBV?$FunctionCallbackInfo@VValue@v8@@@Nan@@@Z 000000018007c33c     node-opus.obj
 0004:00000348       $pdata$1$?SetBitrate@OpusEncoder@@SAXAEBV?$FunctionCallbackInfo@VValue@v8@@@Nan@@@Z 000000018007c348     node-opus.obj
 0004:00000354       $pdata$?GetBitrate@OpusEncoder@@SAXAEBV?$FunctionCallbackInfo@VValue@v8@@@Nan@@@Z 000000018007c354     node-opus.obj
 0004:00000360       $pdata$?New@OpusEncoder@@SAXAEBV?$FunctionCallbackInfo@VValue@v8@@@Nan@@@Z 000000018007c360     node-opus.obj
 0004:0000036c       $pdata$3$?New@OpusEncoder@@SAXAEBV?$FunctionCallbackInfo@VValue@v8@@@Nan@@@Z 000000018007c36c     node-opus.obj
 0004:00000378       $pdata$4$?New@OpusEncoder@@SAXAEBV?$FunctionCallbackInfo@VValue@v8@@@Nan@@@Z 000000018007c378     node-opus.obj
 0004:00000384       $pdata$?Init@OpusEncoder@@SAXV?$Local@VObject@v8@@@v8@@@Z 000000018007c384     node-opus.obj
 0004:00000390       $pdata$??_GOpusEncoder@@UEAAPEAXI@Z 000000018007c390     node-opus.obj
 0004:0000039c       $pdata$?NodeInit@@YAXV?$Local@VObject@v8@@@v8@@@Z 000000018007c39c     node-opus.obj
 0004:000003a8       $pdata$??$Unwrap@VOpusEncoder@@@ObjectWrap@node@@SAPEAVOpusEncoder@@V?$Local@VObject@v8@@@v8@@@Z 000000018007c3a8     node-opus.obj
 0004:000003b4       $pdata$load_exe_hook       000000018007c3b4     win_delay_load_hook.obj
 0004:000003c0       $pdata$opus_decoder_get_size 000000018007c3c0     libopus:opus_decoder.obj
 0004:000003cc       $pdata$opus_decoder_init   000000018007c3cc     libopus:opus_decoder.obj
 0004:000003d8       $pdata$opus_decoder_create 000000018007c3d8     libopus:opus_decoder.obj
 0004:000003e4       $pdata$smooth_fade         000000018007c3e4     libopus:opus_decoder.obj
 0004:000003f0       $pdata$2$smooth_fade       000000018007c3f0     libopus:opus_decoder.obj
 0004:000003fc       $pdata$3$smooth_fade       000000018007c3fc     libopus:opus_decoder.obj
 0004:00000408       $pdata$opus_decode_frame   000000018007c408     libopus:opus_decoder.obj
 0004:00000414       $pdata$opus_decode_native  000000018007c414     libopus:opus_decoder.obj
 0004:00000420       $pdata$opus_decode         000000018007c420     libopus:opus_decoder.obj
 0004:0000042c       $pdata$opus_decode_float   000000018007c42c     libopus:opus_decoder.obj
 0004:00000438       $pdata$opus_decoder_ctl    000000018007c438     libopus:opus_decoder.obj
 0004:00000444       $pdata$opus_packet_get_nb_samples 000000018007c444     libopus:opus_decoder.obj
 0004:00000450       $pdata$celt_inner_prod_sse 000000018007c450     libopus:celt_encoder.obj
 0004:00000450       $pdata$celt_inner_prod_sse 000000018007c450     libopus:pitch.obj
 0004:00000450       $pdata$celt_inner_prod_sse 000000018007c450     libopus:opus_encoder.obj
 0004:00000450       $pdata$celt_inner_prod_sse 000000018007c450     libopus:vq.obj
 0004:0000045c       $pdata$opus_encoder_get_size 000000018007c45c     libopus:opus_encoder.obj
 0004:00000468       $pdata$opus_encoder_init   000000018007c468     libopus:opus_encoder.obj
 0004:00000474       $pdata$2$opus_encoder_init 000000018007c474     libopus:opus_encoder.obj
 0004:00000480       $pdata$4$opus_encoder_init 000000018007c480     libopus:opus_encoder.obj
 0004:0000048c       $pdata$5$opus_encoder_init 000000018007c48c     libopus:opus_encoder.obj
 0004:00000498       $pdata$silk_biquad_float   000000018007c498     libopus:opus_encoder.obj
 0004:000004a4       $pdata$5$silk_biquad_float 000000018007c4a4     libopus:opus_encoder.obj
 0004:000004b0       $pdata$6$silk_biquad_float 000000018007c4b0     libopus:opus_encoder.obj
 0004:000004bc       $pdata$hp_cutoff           000000018007c4bc     libopus:opus_encoder.obj
 0004:000004c8       $pdata$dc_reject           000000018007c4c8     libopus:opus_encoder.obj
 0004:000004d4       $pdata$5$dc_reject         000000018007c4d4     libopus:opus_encoder.obj
 0004:000004e0       $pdata$6$dc_reject         000000018007c4e0     libopus:opus_encoder.obj
 0004:000004ec       $pdata$stereo_fade         000000018007c4ec     libopus:opus_encoder.obj
 0004:000004f8       $pdata$0$stereo_fade       000000018007c4f8     libopus:opus_encoder.obj
 0004:00000504       $pdata$1$stereo_fade       000000018007c504     libopus:opus_encoder.obj
 0004:00000510       $pdata$gain_fade           000000018007c510     libopus:opus_encoder.obj
 0004:0000051c       $pdata$opus_encoder_create 000000018007c51c     libopus:opus_encoder.obj
 0004:00000528       $pdata$0$opus_encoder_create 000000018007c528     libopus:opus_encoder.obj
 0004:00000534       $pdata$1$opus_encoder_create 000000018007c534     libopus:opus_encoder.obj
 0004:00000540       $pdata$2$opus_encoder_create 000000018007c540     libopus:opus_encoder.obj
 0004:0000054c       $pdata$3$opus_encoder_create 000000018007c54c     libopus:opus_encoder.obj
 0004:00000558       $pdata$transient_boost     000000018007c558     libopus:opus_encoder.obj
 0004:00000564       $pdata$transient_viterbi   000000018007c564     libopus:opus_encoder.obj
 0004:00000570       $pdata$7$transient_viterbi 000000018007c570     libopus:opus_encoder.obj
 0004:0000057c       $pdata$12$transient_viterbi 000000018007c57c     libopus:opus_encoder.obj
 0004:00000588       $pdata$13$transient_viterbi 000000018007c588     libopus:opus_encoder.obj
 0004:00000594       $pdata$14$transient_viterbi 000000018007c594     libopus:opus_encoder.obj
 0004:000005a0       $pdata$15$transient_viterbi 000000018007c5a0     libopus:opus_encoder.obj
 0004:000005ac       $pdata$optimize_framesize  000000018007c5ac     libopus:opus_encoder.obj
 0004:000005b8       $pdata$downmix_float       000000018007c5b8     libopus:opus_encoder.obj
 0004:000005c4       $pdata$6$downmix_float     000000018007c5c4     libopus:opus_encoder.obj
 0004:000005d0       $pdata$7$downmix_float     000000018007c5d0     libopus:opus_encoder.obj
 0004:000005dc       $pdata$8$downmix_float     000000018007c5dc     libopus:opus_encoder.obj
 0004:000005e8       $pdata$downmix_int         000000018007c5e8     libopus:opus_encoder.obj
 0004:000005f4       $pdata$6$downmix_int       000000018007c5f4     libopus:opus_encoder.obj
 0004:00000600       $pdata$7$downmix_int       000000018007c600     libopus:opus_encoder.obj
 0004:0000060c       $pdata$8$downmix_int       000000018007c60c     libopus:opus_encoder.obj
 0004:00000618       $pdata$compute_frame_size  000000018007c618     libopus:opus_encoder.obj
 0004:00000624       $pdata$compute_stereo_width 000000018007c624     libopus:opus_encoder.obj
 0004:00000630       $pdata$7$compute_stereo_width 000000018007c630     libopus:opus_encoder.obj
 0004:0000063c       $pdata$8$compute_stereo_width 000000018007c63c     libopus:opus_encoder.obj
 0004:00000648       $pdata$9$compute_stereo_width 000000018007c648     libopus:opus_encoder.obj
 0004:00000654       $pdata$10$compute_stereo_width 000000018007c654     libopus:opus_encoder.obj
 0004:00000660       $pdata$opus_encode_native  000000018007c660     libopus:opus_encoder.obj
 0004:0000066c       $pdata$opus_encode         000000018007c66c     libopus:opus_encoder.obj
 0004:00000678       $pdata$opus_encode_float   000000018007c678     libopus:opus_encoder.obj
 0004:00000684       $pdata$opus_encoder_ctl    000000018007c684     libopus:opus_encoder.obj
 0004:00000690       $pdata$1$opus_encoder_ctl  000000018007c690     libopus:opus_encoder.obj
 0004:0000069c       $pdata$2$opus_encoder_ctl  000000018007c69c     libopus:opus_encoder.obj
 0004:000006a8       $pdata$opus_pcm_soft_clip  000000018007c6a8     libopus:opus.obj
 0004:000006b4       $pdata$0$opus_pcm_soft_clip 000000018007c6b4     libopus:opus.obj
 0004:000006c0       $pdata$11$opus_pcm_soft_clip 000000018007c6c0     libopus:opus.obj
 0004:000006cc       $pdata$12$opus_pcm_soft_clip 000000018007c6cc     libopus:opus.obj
 0004:000006d8       $pdata$13$opus_pcm_soft_clip 000000018007c6d8     libopus:opus.obj
 0004:000006e4       $pdata$opus_packet_parse_impl 000000018007c6e4     libopus:opus.obj
 0004:000006f0       $pdata$opus_packet_parse   000000018007c6f0     libopus:opus.obj
 0004:000006fc       $pdata$ec_dec_normalize    000000018007c6fc     libopus:entdec.obj
 0004:00000708       $pdata$1$ec_dec_normalize  000000018007c708     libopus:entdec.obj
 0004:00000714       $pdata$2$ec_dec_normalize  000000018007c714     libopus:entdec.obj
 0004:00000720       $pdata$ec_dec_bit_logp     000000018007c720     libopus:entdec.obj
 0004:0000072c       $pdata$ec_dec_uint         000000018007c72c     libopus:entdec.obj
 0004:00000738       $pdata$ec_dec_bits         000000018007c738     libopus:entdec.obj
 0004:00000744       $pdata$0$ec_dec_bits       000000018007c744     libopus:entdec.obj
 0004:00000750       $pdata$1$ec_dec_bits       000000018007c750     libopus:entdec.obj
 0004:0000075c       $pdata$celt_decoder_init   000000018007c75c     libopus:celt_decoder.obj
 0004:00000768       $pdata$opus_custom_decoder_init 000000018007c768     libopus:celt_decoder.obj
 0004:00000774       $pdata$deemphasis          000000018007c774     libopus:celt_decoder.obj
 0004:00000780       $pdata$celt_synthesis      000000018007c780     libopus:celt_decoder.obj
 0004:0000078c       $pdata$tf_decode           000000018007c78c     libopus:celt_decoder.obj
 0004:00000798       $pdata$celt_plc_pitch_search 000000018007c798     libopus:celt_decoder.obj
 0004:000007a4       $pdata$celt_decode_lost    000000018007c7a4     libopus:celt_decoder.obj
 0004:000007b0       $pdata$celt_decode_with_ec 000000018007c7b0     libopus:celt_decoder.obj
 0004:000007bc       $pdata$opus_custom_decoder_ctl 000000018007c7bc     libopus:celt_decoder.obj
 0004:000007c8       $pdata$silk_InitDecoder    000000018007c7c8     libopus:dec_API.obj
 0004:000007d4       $pdata$silk_Decode         000000018007c7d4     libopus:dec_API.obj
 0004:000007e0       $pdata$opus_repacketizer_create 000000018007c7e0     libopus:repacketizer.obj
 0004:000007ec       $pdata$opus_repacketizer_cat_impl 000000018007c7ec     libopus:repacketizer.obj
 0004:000007f8       $pdata$1$opus_repacketizer_cat_impl 000000018007c7f8     libopus:repacketizer.obj
 0004:00000804       $pdata$2$opus_repacketizer_cat_impl 000000018007c804     libopus:repacketizer.obj
 0004:00000810       $pdata$3$opus_repacketizer_cat_impl 000000018007c810     libopus:repacketizer.obj
 0004:0000081c       $pdata$4$opus_repacketizer_cat_impl 000000018007c81c     libopus:repacketizer.obj
 0004:00000828       $pdata$opus_repacketizer_out_range_impl 000000018007c828     libopus:repacketizer.obj
 0004:00000834       $pdata$6$opus_repacketizer_out_range_impl 000000018007c834     libopus:repacketizer.obj
 0004:00000840       $pdata$8$opus_repacketizer_out_range_impl 000000018007c840     libopus:repacketizer.obj
 0004:0000084c       $pdata$9$opus_repacketizer_out_range_impl 000000018007c84c     libopus:repacketizer.obj
 0004:00000858       $pdata$opus_repacketizer_out_range 000000018007c858     libopus:repacketizer.obj
 0004:00000864       $pdata$opus_repacketizer_out 000000018007c864     libopus:repacketizer.obj
 0004:00000870       $pdata$opus_packet_pad     000000018007c870     libopus:repacketizer.obj
 0004:0000087c       $pdata$1$opus_packet_pad   000000018007c87c     libopus:repacketizer.obj
 0004:00000888       $pdata$2$opus_packet_pad   000000018007c888     libopus:repacketizer.obj
 0004:00000894       $pdata$opus_packet_unpad   000000018007c894     libopus:repacketizer.obj
 0004:000008a0       $pdata$opus_multistream_packet_pad 000000018007c8a0     libopus:repacketizer.obj
 0004:000008ac       $pdata$2$opus_multistream_packet_pad 000000018007c8ac     libopus:repacketizer.obj
 0004:000008b8       $pdata$3$opus_multistream_packet_pad 000000018007c8b8     libopus:repacketizer.obj
 0004:000008c4       $pdata$4$opus_multistream_packet_pad 000000018007c8c4     libopus:repacketizer.obj
 0004:000008d0       $pdata$opus_multistream_packet_unpad 000000018007c8d0     libopus:repacketizer.obj
 0004:000008dc       $pdata$4$opus_multistream_packet_unpad 000000018007c8dc     libopus:repacketizer.obj
 0004:000008e8       $pdata$5$opus_multistream_packet_unpad 000000018007c8e8     libopus:repacketizer.obj
 0004:000008f4       $pdata$6$opus_multistream_packet_unpad 000000018007c8f4     libopus:repacketizer.obj
 0004:00000900       $pdata$opus_custom_encoder_init_arch 000000018007c900     libopus:celt_encoder.obj
 0004:0000090c       $pdata$celt_encoder_init   000000018007c90c     libopus:celt_encoder.obj
 0004:00000918       $pdata$transient_analysis  000000018007c918     libopus:celt_encoder.obj
 0004:00000924       $pdata$patch_transient_decision 000000018007c924     libopus:celt_encoder.obj
 0004:00000930       $pdata$compute_mdcts       000000018007c930     libopus:celt_encoder.obj
 0004:0000093c       $pdata$celt_preemphasis    000000018007c93c     libopus:celt_encoder.obj
 0004:00000948       $pdata$0$celt_preemphasis  000000018007c948     libopus:celt_encoder.obj
 0004:00000954       $pdata$1$celt_preemphasis  000000018007c954     libopus:celt_encoder.obj
 0004:00000960       $pdata$tf_analysis         000000018007c960     libopus:celt_encoder.obj
 0004:0000096c       $pdata$tf_encode           000000018007c96c     libopus:celt_encoder.obj
 0004:00000978       $pdata$alloc_trim_analysis 000000018007c978     libopus:celt_encoder.obj
 0004:00000984       $pdata$5$alloc_trim_analysis 000000018007c984     libopus:celt_encoder.obj
 0004:00000990       $pdata$8$alloc_trim_analysis 000000018007c990     libopus:celt_encoder.obj
 0004:0000099c       $pdata$13$alloc_trim_analysis 000000018007c99c     libopus:celt_encoder.obj
 0004:000009a8       $pdata$14$alloc_trim_analysis 000000018007c9a8     libopus:celt_encoder.obj
 0004:000009b4       $pdata$15$alloc_trim_analysis 000000018007c9b4     libopus:celt_encoder.obj
 0004:000009c0       $pdata$16$alloc_trim_analysis 000000018007c9c0     libopus:celt_encoder.obj
 0004:000009cc       $pdata$17$alloc_trim_analysis 000000018007c9cc     libopus:celt_encoder.obj
 0004:000009d8       $pdata$18$alloc_trim_analysis 000000018007c9d8     libopus:celt_encoder.obj
 0004:000009e4       $pdata$19$alloc_trim_analysis 000000018007c9e4     libopus:celt_encoder.obj
 0004:000009f0       $pdata$stereo_analysis     000000018007c9f0     libopus:celt_encoder.obj
 0004:000009fc       $pdata$dynalloc_analysis   000000018007c9fc     libopus:celt_encoder.obj
 0004:00000a08       $pdata$run_prefilter       000000018007ca08     libopus:celt_encoder.obj
 0004:00000a14       $pdata$compute_vbr         000000018007ca14     libopus:celt_encoder.obj
 0004:00000a20       $pdata$celt_encode_with_ec 000000018007ca20     libopus:celt_encoder.obj
 0004:00000a2c       $pdata$opus_custom_encoder_ctl 000000018007ca2c     libopus:celt_encoder.obj
 0004:00000a38       $pdata$1$opus_custom_encoder_ctl 000000018007ca38     libopus:celt_encoder.obj
 0004:00000a44       $pdata$2$opus_custom_encoder_ctl 000000018007ca44     libopus:celt_encoder.obj
 0004:00000a50       $pdata$silk_InitEncoder    000000018007ca50     libopus:enc_API.obj
 0004:00000a5c       $pdata$silk_Encode         000000018007ca5c     libopus:enc_API.obj
 0004:00000a68       $pdata$ec_enc_uint         000000018007ca68     libopus:entenc.obj
 0004:00000a74       $pdata$ec_enc_bits         000000018007ca74     libopus:entenc.obj
 0004:00000a80       $pdata$ec_enc_done         000000018007ca80     libopus:entenc.obj
 0004:00000a8c       $pdata$fast_atan2f         000000018007ca8c     libopus:analysis.obj
 0004:00000a98       $pdata$0$fast_atan2f       000000018007ca98     libopus:analysis.obj
 0004:00000aa4       $pdata$tonality_get_info   000000018007caa4     libopus:analysis.obj
 0004:00000ab0       $pdata$tonality_analysis   000000018007cab0     libopus:analysis.obj
 0004:00000abc       $pdata$run_analysis        000000018007cabc     libopus:analysis.obj
 0004:00000ac8       $pdata$2$run_analysis      000000018007cac8     libopus:analysis.obj
 0004:00000ad4       $pdata$3$run_analysis      000000018007cad4     libopus:analysis.obj
 0004:00000ae0       $pdata$dual_inner_prod     000000018007cae0     libopus:pitch.obj
 0004:00000ae0       $pdata$dual_inner_prod     000000018007cae0     libopus:bands.obj
 0004:00000aec       $pdata$0$dual_inner_prod   000000018007caec     libopus:bands.obj
 0004:00000aec       $pdata$0$dual_inner_prod   000000018007caec     libopus:pitch.obj
 0004:00000af8       $pdata$1$dual_inner_prod   000000018007caf8     libopus:bands.obj
 0004:00000af8       $pdata$1$dual_inner_prod   000000018007caf8     libopus:pitch.obj
 0004:00000b04       $pdata$compute_band_energies 000000018007cb04     libopus:bands.obj
 0004:00000b10       $pdata$normalise_bands     000000018007cb10     libopus:bands.obj
 0004:00000b1c       $pdata$denormalise_bands   000000018007cb1c     libopus:bands.obj
 0004:00000b28       $pdata$1$denormalise_bands 000000018007cb28     libopus:bands.obj
 0004:00000b34       $pdata$2$denormalise_bands 000000018007cb34     libopus:bands.obj
 0004:00000b40       $pdata$anti_collapse       000000018007cb40     libopus:bands.obj
 0004:00000b4c       $pdata$14$anti_collapse    000000018007cb4c     libopus:bands.obj
 0004:00000b58       $pdata$15$anti_collapse    000000018007cb58     libopus:bands.obj
 0004:00000b64       $pdata$intensity_stereo    000000018007cb64     libopus:bands.obj
 0004:00000b70       $pdata$stereo_merge        000000018007cb70     libopus:bands.obj
 0004:00000b7c       $pdata$1$stereo_merge      000000018007cb7c     libopus:bands.obj
 0004:00000b88       $pdata$2$stereo_merge      000000018007cb88     libopus:bands.obj
 0004:00000b94       $pdata$3$stereo_merge      000000018007cb94     libopus:bands.obj
 0004:00000ba0       $pdata$4$stereo_merge      000000018007cba0     libopus:bands.obj
 0004:00000bac       $pdata$spreading_decision  000000018007cbac     libopus:bands.obj
 0004:00000bb8       $pdata$1$spreading_decision 000000018007cbb8     libopus:bands.obj
 0004:00000bc4       $pdata$2$spreading_decision 000000018007cbc4     libopus:bands.obj
 0004:00000bd0       $pdata$deinterleave_hadamard 000000018007cbd0     libopus:bands.obj
 0004:00000bdc       $pdata$interleave_hadamard 000000018007cbdc     libopus:bands.obj
 0004:00000be8       $pdata$haar1               000000018007cbe8     libopus:bands.obj
 0004:00000bf4       $pdata$2$haar1             000000018007cbf4     libopus:bands.obj
 0004:00000c00       $pdata$3$haar1             000000018007cc00     libopus:bands.obj
 0004:00000c0c       $pdata$compute_theta       000000018007cc0c     libopus:bands.obj
 0004:00000c18       $pdata$quant_band_n1       000000018007cc18     libopus:bands.obj
 0004:00000c24       $pdata$quant_partition     000000018007cc24     libopus:bands.obj
 0004:00000c30       $pdata$1$quant_partition   000000018007cc30     libopus:bands.obj
 0004:00000c3c       $pdata$2$quant_partition   000000018007cc3c     libopus:bands.obj
 0004:00000c48       $pdata$4$quant_partition   000000018007cc48     libopus:bands.obj
 0004:00000c54       $pdata$5$quant_partition   000000018007cc54     libopus:bands.obj
 0004:00000c60       $pdata$quant_band          000000018007cc60     libopus:bands.obj
 0004:00000c6c       $pdata$quant_band_stereo   000000018007cc6c     libopus:bands.obj
 0004:00000c78       $pdata$quant_all_bands     000000018007cc78     libopus:bands.obj
 0004:00000c84       $pdata$comb_filter_const   000000018007cc84     libopus:celt.obj
 0004:00000c90       $pdata$comb_filter         000000018007cc90     libopus:celt.obj
 0004:00000c9c       $pdata$13$comb_filter      000000018007cc9c     libopus:celt.obj
 0004:00000ca8       $pdata$14$comb_filter      000000018007cca8     libopus:celt.obj
 0004:00000cb4       $pdata$15$comb_filter      000000018007ccb4     libopus:celt.obj
 0004:00000cc0       $pdata$16$comb_filter      000000018007ccc0     libopus:celt.obj
 0004:00000ccc       $pdata$17$comb_filter      000000018007cccc     libopus:celt.obj
 0004:00000cd8       $pdata$18$comb_filter      000000018007ccd8     libopus:celt.obj
 0004:00000ce4       $pdata$init_caps           000000018007cce4     libopus:celt.obj
 0004:00000cf0       $pdata$loss_distortion     000000018007ccf0     libopus:quant_bands.obj
 0004:00000cfc       $pdata$quant_coarse_energy_impl 000000018007ccfc     libopus:quant_bands.obj
 0004:00000d08       $pdata$11$quant_coarse_energy_impl 000000018007cd08     libopus:quant_bands.obj
 0004:00000d14       $pdata$12$quant_coarse_energy_impl 000000018007cd14     libopus:quant_bands.obj
 0004:00000d20       $pdata$quant_coarse_energy 000000018007cd20     libopus:quant_bands.obj
 0004:00000d2c       $pdata$quant_fine_energy   000000018007cd2c     libopus:quant_bands.obj
 0004:00000d38       $pdata$9$quant_fine_energy 000000018007cd38     libopus:quant_bands.obj
 0004:00000d44       $pdata$10$quant_fine_energy 000000018007cd44     libopus:quant_bands.obj
 0004:00000d50       $pdata$quant_energy_finalise 000000018007cd50     libopus:quant_bands.obj
 0004:00000d5c       $pdata$unquant_coarse_energy 000000018007cd5c     libopus:quant_bands.obj
 0004:00000d68       $pdata$2$unquant_coarse_energy 000000018007cd68     libopus:quant_bands.obj
 0004:00000d74       $pdata$3$unquant_coarse_energy 000000018007cd74     libopus:quant_bands.obj
 0004:00000d80       $pdata$unquant_fine_energy 000000018007cd80     libopus:quant_bands.obj
 0004:00000d8c       $pdata$3$unquant_fine_energy 000000018007cd8c     libopus:quant_bands.obj
 0004:00000d98       $pdata$4$unquant_fine_energy 000000018007cd98     libopus:quant_bands.obj
 0004:00000da4       $pdata$unquant_energy_finalise 000000018007cda4     libopus:quant_bands.obj
 0004:00000db0       $pdata$amp2Log2            000000018007cdb0     libopus:quant_bands.obj
 0004:00000dbc       $pdata$xcorr_kernel_sse    000000018007cdbc     libopus:pitch.obj
 0004:00000dc8       $pdata$find_best_pitch     000000018007cdc8     libopus:pitch.obj
 0004:00000dd4       $pdata$1$find_best_pitch   000000018007cdd4     libopus:pitch.obj
 0004:00000de0       $pdata$2$find_best_pitch   000000018007cde0     libopus:pitch.obj
 0004:00000dec       $pdata$celt_fir5           000000018007cdec     libopus:pitch.obj
 0004:00000df8       $pdata$0$celt_fir5         000000018007cdf8     libopus:pitch.obj
 0004:00000e04       $pdata$1$celt_fir5         000000018007ce04     libopus:pitch.obj
 0004:00000e10       $pdata$pitch_downsample    000000018007ce10     libopus:pitch.obj
 0004:00000e1c       $pdata$celt_pitch_xcorr    000000018007ce1c     libopus:pitch.obj
 0004:00000e28       $pdata$pitch_search        000000018007ce28     libopus:pitch.obj
 0004:00000e34       $pdata$remove_doubling     000000018007ce34     libopus:pitch.obj
 0004:00000e40       $pdata$_celt_lpc           000000018007ce40     libopus:celt_lpc.obj
 0004:00000e4c       $pdata$0$_celt_lpc         000000018007ce4c     libopus:celt_lpc.obj
 0004:00000e58       $pdata$3$_celt_lpc         000000018007ce58     libopus:celt_lpc.obj
 0004:00000e64       $pdata$4$_celt_lpc         000000018007ce64     libopus:celt_lpc.obj
 0004:00000e70       $pdata$5$_celt_lpc         000000018007ce70     libopus:celt_lpc.obj
 0004:00000e7c       $pdata$celt_fir_c          000000018007ce7c     libopus:celt_lpc.obj
 0004:00000e88       $pdata$celt_iir            000000018007ce88     libopus:celt_lpc.obj
 0004:00000e94       $pdata$_celt_autocorr      000000018007ce94     libopus:celt_lpc.obj
 0004:00000ea0       $pdata$exp_rotation1       000000018007cea0     libopus:vq.obj
 0004:00000eac       $pdata$0$exp_rotation1     000000018007ceac     libopus:vq.obj
 0004:00000eb8       $pdata$1$exp_rotation1     000000018007ceb8     libopus:vq.obj
 0004:00000ec4       $pdata$exp_rotation        000000018007cec4     libopus:vq.obj
 0004:00000ed0       $pdata$2$exp_rotation      000000018007ced0     libopus:vq.obj
 0004:00000edc       $pdata$3$exp_rotation      000000018007cedc     libopus:vq.obj
 0004:00000ee8       $pdata$4$exp_rotation      000000018007cee8     libopus:vq.obj
 0004:00000ef4       $pdata$5$exp_rotation      000000018007cef4     libopus:vq.obj
 0004:00000f00       $pdata$extract_collapse_mask 000000018007cf00     libopus:vq.obj
 0004:00000f0c       $pdata$alg_quant           000000018007cf0c     libopus:vq.obj
 0004:00000f18       $pdata$alg_unquant         000000018007cf18     libopus:vq.obj
 0004:00000f24       $pdata$renormalise_vector  000000018007cf24     libopus:vq.obj
 0004:00000f30       $pdata$stereo_itheta       000000018007cf30     libopus:vq.obj
 0004:00000f3c       $pdata$interp_bits2pulses  000000018007cf3c     libopus:rate.obj
 0004:00000f48       $pdata$compute_allocation  000000018007cf48     libopus:rate.obj
 0004:00000f54       $pdata$clt_mdct_forward    000000018007cf54     libopus:mdct.obj
 0004:00000f60       $pdata$clt_mdct_backward   000000018007cf60     libopus:mdct.obj
 0004:00000f6c       $pdata$1$clt_mdct_backward 000000018007cf6c     libopus:mdct.obj
 0004:00000f78       $pdata$4$clt_mdct_backward 000000018007cf78     libopus:mdct.obj
 0004:00000f84       $pdata$5$clt_mdct_backward 000000018007cf84     libopus:mdct.obj
 0004:00000f90       $pdata$6$clt_mdct_backward 000000018007cf90     libopus:mdct.obj
 0004:00000f9c       $pdata$7$clt_mdct_backward 000000018007cf9c     libopus:mdct.obj
 0004:00000fa8       $pdata$8$clt_mdct_backward 000000018007cfa8     libopus:mdct.obj
 0004:00000fb4       $pdata$9$clt_mdct_backward 000000018007cfb4     libopus:mdct.obj
 0004:00000fc0       $pdata$opus_custom_mode_create 000000018007cfc0     libopus:modes.obj
 0004:00000fcc       $pdata$silk_stereo_decode_pred 000000018007cfcc     libopus:stereo_decode_pred.obj
 0004:00000fd8       $pdata$silk_resampler_init 000000018007cfd8     libopus:resampler.obj
 0004:00000fe4       $pdata$silk_resampler      000000018007cfe4     libopus:resampler.obj
 0004:00000ff0       $pdata$silk_decode_pulses  000000018007cff0     libopus:decode_pulses.obj
 0004:00000ffc       $pdata$silk_decode_frame   000000018007cffc     libopus:decode_frame.obj
 0004:00001008       $pdata$silk_decode_indices 000000018007d008     libopus:decode_indices.obj
 0004:00001014       $pdata$silk_stereo_MS_to_LR 000000018007d014     libopus:stereo_MS_to_LR.obj
 0004:00001020       $pdata$silk_decoder_set_fs 000000018007d020     libopus:decoder_set_fs.obj
 0004:0000102c       $pdata$silk_control_SNR    000000018007d02c     libopus:control_SNR.obj
 0004:00001038       $pdata$0$silk_control_SNR  000000018007d038     libopus:control_SNR.obj
 0004:00001044       $pdata$1$silk_control_SNR  000000018007d044     libopus:control_SNR.obj
 0004:00001050       $pdata$silk_init_encoder   000000018007d050     libopus:init_encoder.obj
 0004:0000105c       $pdata$silk_encode_pulses  000000018007d05c     libopus:encode_pulses.obj
 0004:00001068       $pdata$silk_control_encoder 000000018007d068     libopus:control_codec.obj
 0004:00001074       $pdata$silk_setup_resamplers 000000018007d074     libopus:control_codec.obj
 0004:00001080       $pdata$silk_setup_fs       000000018007d080     libopus:control_codec.obj
 0004:0000108c       $pdata$silk_encode_frame_FLP 000000018007d08c     libopus:encode_frame_FLP.obj
 0004:00001098       $pdata$3$silk_encode_frame_FLP 000000018007d098     libopus:encode_frame_FLP.obj
 0004:000010a4       $pdata$13$silk_encode_frame_FLP 000000018007d0a4     libopus:encode_frame_FLP.obj
 0004:000010b0       $pdata$14$silk_encode_frame_FLP 000000018007d0b0     libopus:encode_frame_FLP.obj
 0004:000010bc       $pdata$15$silk_encode_frame_FLP 000000018007d0bc     libopus:encode_frame_FLP.obj
 0004:000010c8       $pdata$silk_LBRR_encode_FLP 000000018007d0c8     libopus:encode_frame_FLP.obj
 0004:000010d4       $pdata$0$silk_LBRR_encode_FLP 000000018007d0d4     libopus:encode_frame_FLP.obj
 0004:000010e0       $pdata$1$silk_LBRR_encode_FLP 000000018007d0e0     libopus:encode_frame_FLP.obj
 0004:000010ec       $pdata$silk_DIV32_varQ     000000018007d0ec     libopus:stereo_LR_to_MS.obj
 0004:000010ec       $pdata$silk_DIV32_varQ     000000018007d0ec     libopus:stereo_find_predictor.obj
 0004:000010f8       $pdata$silk_stereo_LR_to_MS 000000018007d0f8     libopus:stereo_LR_to_MS.obj
 0004:00001104       $pdata$silk_encode_indices 000000018007d104     libopus:encode_indices.obj
 0004:00001110       $pdata$2$silk_encode_indices 000000018007d110     libopus:encode_indices.obj
 0004:0000111c       $pdata$5$silk_encode_indices 000000018007d11c     libopus:encode_indices.obj
 0004:00001128       $pdata$6$silk_encode_indices 000000018007d128     libopus:encode_indices.obj
 0004:00001134       $pdata$7$silk_encode_indices 000000018007d134     libopus:encode_indices.obj
 0004:00001140       $pdata$8$silk_encode_indices 000000018007d140     libopus:encode_indices.obj
 0004:0000114c       $pdata$silk_stereo_encode_pred 000000018007d14c     libopus:stereo_encode_pred.obj
 0004:00001158       $pdata$silk_HP_variable_cutoff 000000018007d158     libopus:HP_variable_cutoff.obj
 0004:00001164       $pdata$2$silk_HP_variable_cutoff 000000018007d164     libopus:HP_variable_cutoff.obj
 0004:00001170       $pdata$3$silk_HP_variable_cutoff 000000018007d170     libopus:HP_variable_cutoff.obj
 0004:0000117c       $pdata$4$silk_HP_variable_cutoff 000000018007d17c     libopus:HP_variable_cutoff.obj
 0004:00001188       $pdata$5$silk_HP_variable_cutoff 000000018007d188     libopus:HP_variable_cutoff.obj
 0004:00001194       $pdata$tansig_approx       000000018007d194     libopus:mlp.obj
 0004:000011a0       $pdata$mlp_process         000000018007d1a0     libopus:mlp.obj
 0004:000011ac       $pdata$0$mlp_process       000000018007d1ac     libopus:mlp.obj
 0004:000011b8       $pdata$13$mlp_process      000000018007d1b8     libopus:mlp.obj
 0004:000011c4       $pdata$14$mlp_process      000000018007d1c4     libopus:mlp.obj
 0004:000011d0       $pdata$15$mlp_process      000000018007d1d0     libopus:mlp.obj
 0004:000011dc       $pdata$kf_bfly2            000000018007d1dc     libopus:kiss_fft.obj
 0004:000011e8       $pdata$0$kf_bfly2          000000018007d1e8     libopus:kiss_fft.obj
 0004:000011f4       $pdata$1$kf_bfly2          000000018007d1f4     libopus:kiss_fft.obj
 0004:00001200       $pdata$kf_bfly4            000000018007d200     libopus:kiss_fft.obj
 0004:0000120c       $pdata$10$kf_bfly4         000000018007d20c     libopus:kiss_fft.obj
 0004:00001218       $pdata$11$kf_bfly4         000000018007d218     libopus:kiss_fft.obj
 0004:00001224       $pdata$kf_bfly3            000000018007d224     libopus:kiss_fft.obj
 0004:00001230       $pdata$5$kf_bfly3          000000018007d230     libopus:kiss_fft.obj
 0004:0000123c       $pdata$6$kf_bfly3          000000018007d23c     libopus:kiss_fft.obj
 0004:00001248       $pdata$kf_bfly5            000000018007d248     libopus:kiss_fft.obj
 0004:00001254       $pdata$15$kf_bfly5         000000018007d254     libopus:kiss_fft.obj
 0004:00001260       $pdata$16$kf_bfly5         000000018007d260     libopus:kiss_fft.obj
 0004:0000126c       $pdata$opus_fft_impl       000000018007d26c     libopus:kiss_fft.obj
 0004:00001278       $pdata$2$opus_fft_impl     000000018007d278     libopus:kiss_fft.obj
 0004:00001284       $pdata$3$opus_fft_impl     000000018007d284     libopus:kiss_fft.obj
 0004:00001290       $pdata$opus_fft            000000018007d290     libopus:kiss_fft.obj
 0004:0000129c       $pdata$2$opus_fft          000000018007d29c     libopus:kiss_fft.obj
 0004:000012a8       $pdata$3$opus_fft          000000018007d2a8     libopus:kiss_fft.obj
 0004:000012b4       $pdata$ec_laplace_encode   000000018007d2b4     libopus:laplace.obj
 0004:000012c0       $pdata$1$ec_laplace_encode 000000018007d2c0     libopus:laplace.obj
 0004:000012cc       $pdata$3$ec_laplace_encode 000000018007d2cc     libopus:laplace.obj
 0004:000012d8       $pdata$4$ec_laplace_encode 000000018007d2d8     libopus:laplace.obj
 0004:000012e4       $pdata$5$ec_laplace_encode 000000018007d2e4     libopus:laplace.obj
 0004:000012f0       $pdata$ec_laplace_decode   000000018007d2f0     libopus:laplace.obj
 0004:000012fc       $pdata$icwrs               000000018007d2fc     libopus:cwrs.obj
 0004:00001308       $pdata$cwrsi               000000018007d308     libopus:cwrs.obj
 0004:00001314       $pdata$4$cwrsi             000000018007d314     libopus:cwrs.obj
 0004:00001320       $pdata$5$cwrsi             000000018007d320     libopus:cwrs.obj
 0004:0000132c       $pdata$decode_pulses       000000018007d32c     libopus:cwrs.obj
 0004:00001338       $pdata$silk_CNG_exc        000000018007d338     libopus:CNG.obj
 0004:00001344       $pdata$0$silk_CNG_exc      000000018007d344     libopus:CNG.obj
 0004:00001350       $pdata$1$silk_CNG_exc      000000018007d350     libopus:CNG.obj
 0004:0000135c       $pdata$silk_CNG            000000018007d35c     libopus:CNG.obj
 0004:00001368       $pdata$silk_PLC_update     000000018007d368     libopus:PLC.obj
 0004:00001374       $pdata$silk_PLC_conceal    000000018007d374     libopus:PLC.obj
 0004:00001380       $pdata$silk_PLC_glue_frames 000000018007d380     libopus:PLC.obj
 0004:0000138c       $pdata$silk_resampler_private_up2_HQ 000000018007d38c     libopus:resampler_private_up2_HQ.obj
 0004:00001398       $pdata$1$silk_resampler_private_up2_HQ 000000018007d398     libopus:resampler_private_up2_HQ.obj
 0004:000013a4       $pdata$2$silk_resampler_private_up2_HQ 000000018007d3a4     libopus:resampler_private_up2_HQ.obj
 0004:000013b0       $pdata$silk_resampler_private_IIR_FIR_INTERPOL 000000018007d3b0     libopus:resampler_private_IIR_FIR.obj
 0004:000013bc       $pdata$1$silk_resampler_private_IIR_FIR_INTERPOL 000000018007d3bc     libopus:resampler_private_IIR_FIR.obj
 0004:000013c8       $pdata$2$silk_resampler_private_IIR_FIR_INTERPOL 000000018007d3c8     libopus:resampler_private_IIR_FIR.obj
 0004:000013d4       $pdata$silk_resampler_private_IIR_FIR 000000018007d3d4     libopus:resampler_private_IIR_FIR.obj
 0004:000013e0       $pdata$silk_resampler_private_down_FIR_INTERPOL 000000018007d3e0     libopus:resampler_private_down_FIR.obj
 0004:000013ec       $pdata$0$silk_resampler_private_down_FIR_INTERPOL 000000018007d3ec     libopus:resampler_private_down_FIR.obj
 0004:000013f8       $pdata$2$silk_resampler_private_down_FIR_INTERPOL 000000018007d3f8     libopus:resampler_private_down_FIR.obj
 0004:00001404       $pdata$3$silk_resampler_private_down_FIR_INTERPOL 000000018007d404     libopus:resampler_private_down_FIR.obj
 0004:00001410       $pdata$silk_resampler_private_down_FIR 000000018007d410     libopus:resampler_private_down_FIR.obj
 0004:0000141c       $pdata$silk_encode_signs   000000018007d41c     libopus:code_signs.obj
 0004:00001428       $pdata$2$silk_encode_signs 000000018007d428     libopus:code_signs.obj
 0004:00001434       $pdata$3$silk_encode_signs 000000018007d434     libopus:code_signs.obj
 0004:00001440       $pdata$silk_decode_signs   000000018007d440     libopus:code_signs.obj
 0004:0000144c       $pdata$2$silk_decode_signs 000000018007d44c     libopus:code_signs.obj
 0004:00001458       $pdata$3$silk_decode_signs 000000018007d458     libopus:code_signs.obj
 0004:00001464       $pdata$decode_split        000000018007d464     libopus:shell_coder.obj
 0004:00001470       $pdata$0$decode_split      000000018007d470     libopus:shell_coder.obj
 0004:0000147c       $pdata$1$decode_split      000000018007d47c     libopus:shell_coder.obj
 0004:00001488       $pdata$silk_shell_encoder  000000018007d488     libopus:shell_coder.obj
 0004:00001494       $pdata$silk_shell_decoder  000000018007d494     libopus:shell_coder.obj
 0004:000014a0       $pdata$silk_decode_parameters 000000018007d4a0     libopus:decode_parameters.obj
 0004:000014ac       $pdata$1$silk_decode_parameters 000000018007d4ac     libopus:decode_parameters.obj
 0004:000014b8       $pdata$2$silk_decode_parameters 000000018007d4b8     libopus:decode_parameters.obj
 0004:000014c4       $pdata$silk_DIV32_varQ     000000018007d4c4     libopus:NSQ_del_dec.obj
 0004:000014c4       $pdata$silk_DIV32_varQ     000000018007d4c4     libopus:decode_core.obj
 0004:000014c4       $pdata$silk_DIV32_varQ     000000018007d4c4     libopus:NSQ.obj
 0004:000014d0       $pdata$silk_decode_core    000000018007d4d0     libopus:decode_core.obj
 0004:000014dc       $pdata$silk_VAD_GetSA_Q8_c 000000018007d4dc     libopus:VAD.obj
 0004:000014e8       $pdata$silk_VAD_GetNoiseLevels 000000018007d4e8     libopus:VAD.obj
 0004:000014f4       $pdata$warped_true2monic_coefs 000000018007d4f4     libopus:noise_shape_analysis_FLP.obj
 0004:00001500       $pdata$silk_noise_shape_analysis_FLP 000000018007d500     libopus:noise_shape_analysis_FLP.obj
 0004:0000150c       $pdata$7$silk_noise_shape_analysis_FLP 000000018007d50c     libopus:noise_shape_analysis_FLP.obj
 0004:00001518       $pdata$10$silk_noise_shape_analysis_FLP 000000018007d518     libopus:noise_shape_analysis_FLP.obj
 0004:00001524       $pdata$11$silk_noise_shape_analysis_FLP 000000018007d524     libopus:noise_shape_analysis_FLP.obj
 0004:00001530       $pdata$12$silk_noise_shape_analysis_FLP 000000018007d530     libopus:noise_shape_analysis_FLP.obj
 0004:0000153c       $pdata$13$silk_noise_shape_analysis_FLP 000000018007d53c     libopus:noise_shape_analysis_FLP.obj
 0004:00001548       $pdata$silk_NLSF2A_FLP     000000018007d548     libopus:wrappers_FLP.obj
 0004:00001554       $pdata$silk_NSQ_wrapper_FLP 000000018007d554     libopus:wrappers_FLP.obj
 0004:00001560       $pdata$silk_quant_LTP_gains_FLP 000000018007d560     libopus:wrappers_FLP.obj
 0004:0000156c       $pdata$silk_process_gains_FLP 000000018007d56c     libopus:process_gains_FLP.obj
 0004:00001578       $pdata$4$silk_process_gains_FLP 000000018007d578     libopus:process_gains_FLP.obj
 0004:00001584       $pdata$6$silk_process_gains_FLP 000000018007d584     libopus:process_gains_FLP.obj
 0004:00001590       $pdata$7$silk_process_gains_FLP 000000018007d590     libopus:process_gains_FLP.obj
 0004:0000159c       $pdata$8$silk_process_gains_FLP 000000018007d59c     libopus:process_gains_FLP.obj
 0004:000015a8       $pdata$9$silk_process_gains_FLP 000000018007d5a8     libopus:process_gains_FLP.obj
 0004:000015b4       $pdata$10$silk_process_gains_FLP 000000018007d5b4     libopus:process_gains_FLP.obj
 0004:000015c0       $pdata$silk_LP_interpolate_filter_taps 000000018007d5c0     libopus:LP_variable_cutoff.obj
 0004:000015cc       $pdata$0$silk_LP_interpolate_filter_taps 000000018007d5cc     libopus:LP_variable_cutoff.obj
 0004:000015d8       $pdata$2$silk_LP_interpolate_filter_taps 000000018007d5d8     libopus:LP_variable_cutoff.obj
 0004:000015e4       $pdata$3$silk_LP_interpolate_filter_taps 000000018007d5e4     libopus:LP_variable_cutoff.obj
 0004:000015f0       $pdata$silk_LP_variable_cutoff 000000018007d5f0     libopus:LP_variable_cutoff.obj
 0004:000015fc       $pdata$0$silk_LP_variable_cutoff 000000018007d5fc     libopus:LP_variable_cutoff.obj
 0004:00001608       $pdata$1$silk_LP_variable_cutoff 000000018007d608     libopus:LP_variable_cutoff.obj
 0004:00001614       $pdata$silk_gains_quant    000000018007d614     libopus:gain_quant.obj
 0004:00001620       $pdata$1$silk_gains_quant  000000018007d620     libopus:gain_quant.obj
 0004:0000162c       $pdata$2$silk_gains_quant  000000018007d62c     libopus:gain_quant.obj
 0004:00001638       $pdata$silk_gains_dequant  000000018007d638     libopus:gain_quant.obj
 0004:00001644       $pdata$silk_warped_LPC_analysis_filter_FLP 000000018007d644     libopus:prefilter_FLP.obj
 0004:00001650       $pdata$1$silk_warped_LPC_analysis_filter_FLP 000000018007d650     libopus:prefilter_FLP.obj
 0004:0000165c       $pdata$2$silk_warped_LPC_analysis_filter_FLP 000000018007d65c     libopus:prefilter_FLP.obj
 0004:00001668       $pdata$silk_prefilter_FLP  000000018007d668     libopus:prefilter_FLP.obj
 0004:00001674       $pdata$11$silk_prefilter_FLP 000000018007d674     libopus:prefilter_FLP.obj
 0004:00001680       $pdata$12$silk_prefilter_FLP 000000018007d680     libopus:prefilter_FLP.obj
 0004:0000168c       $pdata$silk_prefilt_FLP    000000018007d68c     libopus:prefilter_FLP.obj
 0004:00001698       $pdata$0$silk_prefilt_FLP  000000018007d698     libopus:prefilter_FLP.obj
 0004:000016a4       $pdata$1$silk_prefilt_FLP  000000018007d6a4     libopus:prefilter_FLP.obj
 0004:000016b0       $pdata$silk_find_pred_coefs_FLP 000000018007d6b0     libopus:find_pred_coefs_FLP.obj
 0004:000016bc       $pdata$0$silk_find_pred_coefs_FLP 000000018007d6bc     libopus:find_pred_coefs_FLP.obj
 0004:000016c8       $pdata$1$silk_find_pred_coefs_FLP 000000018007d6c8     libopus:find_pred_coefs_FLP.obj
 0004:000016d4       $pdata$silk_find_pitch_lags_FLP 000000018007d6d4     libopus:find_pitch_lags_FLP.obj
 0004:000016e0       $pdata$silk_stereo_quant_pred 000000018007d6e0     libopus:stereo_quant_pred.obj
 0004:000016ec       $pdata$silk_stereo_find_predictor 000000018007d6ec     libopus:stereo_find_predictor.obj
 0004:000016f8       $pdata$silk_NLSF2A         000000018007d6f8     libopus:NLSF2A.obj
 0004:00001704       $pdata$silk_sum_sqr_shift  000000018007d704     libopus:sum_sqr_shift.obj
 0004:00001710       $pdata$silk_LPC_inverse_pred_gain 000000018007d710     libopus:LPC_inv_pred_gain.obj
 0004:0000171c       $pdata$5$silk_LPC_inverse_pred_gain 000000018007d71c     libopus:LPC_inv_pred_gain.obj
 0004:00001728       $pdata$6$silk_LPC_inverse_pred_gain 000000018007d728     libopus:LPC_inv_pred_gain.obj
 0004:00001734       $pdata$silk_LPC_analysis_filter 000000018007d734     libopus:LPC_analysis_filter.obj
 0004:00001740       $pdata$2$silk_LPC_analysis_filter 000000018007d740     libopus:LPC_analysis_filter.obj
 0004:0000174c       $pdata$3$silk_LPC_analysis_filter 000000018007d74c     libopus:LPC_analysis_filter.obj
 0004:00001758       $pdata$silk_decode_pitch   000000018007d758     libopus:decode_pitch.obj
 0004:00001764       $pdata$silk_NLSF_decode    000000018007d764     libopus:NLSF_decode.obj
 0004:00001770       $pdata$0$silk_NLSF_decode  000000018007d770     libopus:NLSF_decode.obj
 0004:0000177c       $pdata$2$silk_NLSF_decode  000000018007d77c     libopus:NLSF_decode.obj
 0004:00001788       $pdata$3$silk_NLSF_decode  000000018007d788     libopus:NLSF_decode.obj
 0004:00001794       $pdata$4$silk_NLSF_decode  000000018007d794     libopus:NLSF_decode.obj
 0004:000017a0       $pdata$silk_ana_filt_bank_1 000000018007d7a0     libopus:ana_filt_bank_1.obj
 0004:000017ac       $pdata$2$silk_ana_filt_bank_1 000000018007d7ac     libopus:ana_filt_bank_1.obj
 0004:000017b8       $pdata$3$silk_ana_filt_bank_1 000000018007d7b8     libopus:ana_filt_bank_1.obj
 0004:000017c4       $pdata$silk_warped_autocorrelation_FLP 000000018007d7c4     libopus:warped_autocorrelation_FLP.obj
 0004:000017d0       $pdata$silk_apply_sine_window_FLP 000000018007d7d0     libopus:apply_sine_window_FLP.obj
 0004:000017dc       $pdata$silk_autocorrelation_FLP 000000018007d7dc     libopus:autocorrelation_FLP.obj
 0004:000017e8       $pdata$0$silk_autocorrelation_FLP 000000018007d7e8     libopus:autocorrelation_FLP.obj
 0004:000017f4       $pdata$1$silk_autocorrelation_FLP 000000018007d7f4     libopus:autocorrelation_FLP.obj
 0004:00001800       $pdata$silk_levinsondurbin_FLP 000000018007d800     libopus:levinsondurbin_FLP.obj
 0004:0000180c       $pdata$3$silk_levinsondurbin_FLP 000000018007d80c     libopus:levinsondurbin_FLP.obj
 0004:00001818       $pdata$4$silk_levinsondurbin_FLP 000000018007d818     libopus:levinsondurbin_FLP.obj
 0004:00001824       $pdata$silk_LPC_inverse_pred_gain_FLP 000000018007d824     libopus:LPC_inv_pred_gain_FLP.obj
 0004:00001830       $pdata$silk_NSQ_c          000000018007d830     libopus:NSQ.obj
 0004:0000183c       $pdata$silk_noise_shape_quantizer 000000018007d83c     libopus:NSQ.obj
 0004:00001848       $pdata$4$silk_noise_shape_quantizer 000000018007d848     libopus:NSQ.obj
 0004:00001854       $pdata$5$silk_noise_shape_quantizer 000000018007d854     libopus:NSQ.obj
 0004:00001860       $pdata$silk_nsq_scale_states 000000018007d860     libopus:NSQ.obj
 0004:0000186c       $pdata$silk_quant_LTP_gains 000000018007d86c     libopus:quant_LTP_gains.obj
 0004:00001878       $pdata$silk_process_NLSFs  000000018007d878     libopus:process_NLSFs.obj
 0004:00001884       $pdata$1$silk_process_NLSFs 000000018007d884     libopus:process_NLSFs.obj
 0004:00001890       $pdata$2$silk_process_NLSFs 000000018007d890     libopus:process_NLSFs.obj
 0004:0000189c       $pdata$silk_A2NLSF_init    000000018007d89c     libopus:A2NLSF.obj
 0004:000018a8       $pdata$0$silk_A2NLSF_init  000000018007d8a8     libopus:A2NLSF.obj
 0004:000018b4       $pdata$2$silk_A2NLSF_init  000000018007d8b4     libopus:A2NLSF.obj
 0004:000018c0       $pdata$4$silk_A2NLSF_init  000000018007d8c0     libopus:A2NLSF.obj
 0004:000018cc       $pdata$5$silk_A2NLSF_init  000000018007d8cc     libopus:A2NLSF.obj
 0004:000018d8       $pdata$6$silk_A2NLSF_init  000000018007d8d8     libopus:A2NLSF.obj
 0004:000018e4       $pdata$7$silk_A2NLSF_init  000000018007d8e4     libopus:A2NLSF.obj
 0004:000018f0       $pdata$8$silk_A2NLSF_init  000000018007d8f0     libopus:A2NLSF.obj
 0004:000018fc       $pdata$silk_A2NLSF         000000018007d8fc     libopus:A2NLSF.obj
 0004:00001908       $pdata$silk_NSQ_del_dec_c  000000018007d908     libopus:NSQ_del_dec.obj
 0004:00001914       $pdata$silk_noise_shape_quantizer_del_dec 000000018007d914     libopus:NSQ_del_dec.obj
 0004:00001920       $pdata$silk_nsq_del_dec_scale_states 000000018007d920     libopus:NSQ_del_dec.obj
 0004:0000192c       $pdata$silk_biquad_alt     000000018007d92c     libopus:biquad_alt.obj
 0004:00001938       $pdata$5$silk_biquad_alt   000000018007d938     libopus:biquad_alt.obj
 0004:00001944       $pdata$6$silk_biquad_alt   000000018007d944     libopus:biquad_alt.obj
 0004:00001950       $pdata$silk_find_LTP_FLP   000000018007d950     libopus:find_LTP_FLP.obj
 0004:0000195c       $pdata$0$silk_find_LTP_FLP 000000018007d95c     libopus:find_LTP_FLP.obj
 0004:00001968       $pdata$2$silk_find_LTP_FLP 000000018007d968     libopus:find_LTP_FLP.obj
 0004:00001974       $pdata$4$silk_find_LTP_FLP 000000018007d974     libopus:find_LTP_FLP.obj
 0004:00001980       $pdata$5$silk_find_LTP_FLP 000000018007d980     libopus:find_LTP_FLP.obj
 0004:0000198c       $pdata$6$silk_find_LTP_FLP 000000018007d98c     libopus:find_LTP_FLP.obj
 0004:00001998       $pdata$7$silk_find_LTP_FLP 000000018007d998     libopus:find_LTP_FLP.obj
 0004:000019a4       $pdata$silk_residual_energy_covar_FLP 000000018007d9a4     libopus:residual_energy_FLP.obj
 0004:000019b0       $pdata$silk_residual_energy_FLP 000000018007d9b0     libopus:residual_energy_FLP.obj
 0004:000019bc       $pdata$silk_find_LPC_FLP   000000018007d9bc     libopus:find_LPC_FLP.obj
 0004:000019c8       $pdata$3$silk_find_LPC_FLP 000000018007d9c8     libopus:find_LPC_FLP.obj
 0004:000019d4       $pdata$5$silk_find_LPC_FLP 000000018007d9d4     libopus:find_LPC_FLP.obj
 0004:000019e0       $pdata$6$silk_find_LPC_FLP 000000018007d9e0     libopus:find_LPC_FLP.obj
 0004:000019ec       $pdata$7$silk_find_LPC_FLP 000000018007d9ec     libopus:find_LPC_FLP.obj
 0004:000019f8       $pdata$silk_scale_copy_vector_FLP 000000018007d9f8     libopus:scale_copy_vector_FLP.obj
 0004:00001a04       $pdata$1$silk_scale_copy_vector_FLP 000000018007da04     libopus:scale_copy_vector_FLP.obj
 0004:00001a10       $pdata$2$silk_scale_copy_vector_FLP 000000018007da10     libopus:scale_copy_vector_FLP.obj
 0004:00001a1c       $pdata$3$silk_scale_copy_vector_FLP 000000018007da1c     libopus:scale_copy_vector_FLP.obj
 0004:00001a28       $pdata$4$silk_scale_copy_vector_FLP 000000018007da28     libopus:scale_copy_vector_FLP.obj
 0004:00001a34       $pdata$silk_LTP_analysis_filter_FLP 000000018007da34     libopus:LTP_analysis_filter_FLP.obj
 0004:00001a40       $pdata$5$silk_LTP_analysis_filter_FLP 000000018007da40     libopus:LTP_analysis_filter_FLP.obj
 0004:00001a4c       $pdata$6$silk_LTP_analysis_filter_FLP 000000018007da4c     libopus:LTP_analysis_filter_FLP.obj
 0004:00001a58       $pdata$silk_pitch_analysis_core_FLP 000000018007da58     libopus:pitch_analysis_core_FLP.obj
 0004:00001a64       $pdata$0$silk_pitch_analysis_core_FLP 000000018007da64     libopus:pitch_analysis_core_FLP.obj
 0004:00001a70       $pdata$4$silk_pitch_analysis_core_FLP 000000018007da70     libopus:pitch_analysis_core_FLP.obj
 0004:00001a7c       $pdata$6$silk_pitch_analysis_core_FLP 000000018007da7c     libopus:pitch_analysis_core_FLP.obj
 0004:00001a88       $pdata$7$silk_pitch_analysis_core_FLP 000000018007da88     libopus:pitch_analysis_core_FLP.obj
 0004:00001a94       $pdata$8$silk_pitch_analysis_core_FLP 000000018007da94     libopus:pitch_analysis_core_FLP.obj
 0004:00001aa0       $pdata$9$silk_pitch_analysis_core_FLP 000000018007daa0     libopus:pitch_analysis_core_FLP.obj
 0004:00001aac       $pdata$10$silk_pitch_analysis_core_FLP 000000018007daac     libopus:pitch_analysis_core_FLP.obj
 0004:00001ab8       $pdata$11$silk_pitch_analysis_core_FLP 000000018007dab8     libopus:pitch_analysis_core_FLP.obj
 0004:00001ac4       $pdata$silk_P_Ana_calc_corr_st3 000000018007dac4     libopus:pitch_analysis_core_FLP.obj
 0004:00001ad0       $pdata$1$silk_P_Ana_calc_corr_st3 000000018007dad0     libopus:pitch_analysis_core_FLP.obj
 0004:00001adc       $pdata$2$silk_P_Ana_calc_corr_st3 000000018007dadc     libopus:pitch_analysis_core_FLP.obj
 0004:00001ae8       $pdata$silk_P_Ana_calc_energy_st3 000000018007dae8     libopus:pitch_analysis_core_FLP.obj
 0004:00001af4       $pdata$2$silk_P_Ana_calc_energy_st3 000000018007daf4     libopus:pitch_analysis_core_FLP.obj
 0004:00001b00       $pdata$3$silk_P_Ana_calc_energy_st3 000000018007db00     libopus:pitch_analysis_core_FLP.obj
 0004:00001b0c       $pdata$silk_LPC_analysis_filter16_FLP 000000018007db0c     libopus:LPC_analysis_filter_FLP.obj
 0004:00001b18       $pdata$silk_LPC_analysis_filter12_FLP 000000018007db18     libopus:LPC_analysis_filter_FLP.obj
 0004:00001b24       $pdata$silk_LPC_analysis_filter10_FLP 000000018007db24     libopus:LPC_analysis_filter_FLP.obj
 0004:00001b30       $pdata$silk_LPC_analysis_filter8_FLP 000000018007db30     libopus:LPC_analysis_filter_FLP.obj
 0004:00001b3c       $pdata$silk_LPC_analysis_filter6_FLP 000000018007db3c     libopus:LPC_analysis_filter_FLP.obj
 0004:00001b48       $pdata$silk_schur_FLP      000000018007db48     libopus:schur_FLP.obj
 0004:00001b54       $pdata$0$silk_schur_FLP    000000018007db54     libopus:schur_FLP.obj
 0004:00001b60       $pdata$1$silk_schur_FLP    000000018007db60     libopus:schur_FLP.obj
 0004:00001b6c       $pdata$silk_k2a_FLP        000000018007db6c     libopus:k2a_FLP.obj
 0004:00001b78       $pdata$4$silk_k2a_FLP      000000018007db78     libopus:k2a_FLP.obj
 0004:00001b84       $pdata$5$silk_k2a_FLP      000000018007db84     libopus:k2a_FLP.obj
 0004:00001b90       $pdata$silk_inner_prod_aligned_scale 000000018007db90     libopus:inner_prod_aligned.obj
 0004:00001b9c       $pdata$silk_NLSF_stabilize 000000018007db9c     libopus:NLSF_stabilize.obj
 0004:00001ba8       $pdata$silk_NLSF_VQ_weights_laroia 000000018007dba8     libopus:NLSF_VQ_weights_laroia.obj
 0004:00001bb4       $pdata$2$silk_NLSF_VQ_weights_laroia 000000018007dbb4     libopus:NLSF_VQ_weights_laroia.obj
 0004:00001bc0       $pdata$3$silk_NLSF_VQ_weights_laroia 000000018007dbc0     libopus:NLSF_VQ_weights_laroia.obj
 0004:00001bcc       $pdata$silk_VQ_WMat_EC_c   000000018007dbcc     libopus:VQ_WMat_EC.obj
 0004:00001bd8       $pdata$5$silk_VQ_WMat_EC_c 000000018007dbd8     libopus:VQ_WMat_EC.obj
 0004:00001be4       $pdata$6$silk_VQ_WMat_EC_c 000000018007dbe4     libopus:VQ_WMat_EC.obj
 0004:00001bf0       $pdata$silk_NLSF_encode    000000018007dbf0     libopus:NLSF_encode.obj
 0004:00001bfc       $pdata$silk_SolveWithUpperTriangularFromLowerWdiagOnes_FLP 000000018007dbfc     libopus:solve_LS_FLP.obj
 0004:00001c08       $pdata$silk_SolveWithLowerTriangularWdiagOnes_FLP 000000018007dc08     libopus:solve_LS_FLP.obj
 0004:00001c14       $pdata$silk_LDL_FLP        000000018007dc14     libopus:solve_LS_FLP.obj
 0004:00001c20       $pdata$silk_corrVector_FLP 000000018007dc20     libopus:corrMatrix_FLP.obj
 0004:00001c2c       $pdata$silk_corrMatrix_FLP 000000018007dc2c     libopus:corrMatrix_FLP.obj
 0004:00001c38       $pdata$silk_burg_modified_FLP 000000018007dc38     libopus:burg_modified_FLP.obj
 0004:00001c44       $pdata$4$silk_burg_modified_FLP 000000018007dc44     libopus:burg_modified_FLP.obj
 0004:00001c50       $pdata$8$silk_burg_modified_FLP 000000018007dc50     libopus:burg_modified_FLP.obj
 0004:00001c5c       $pdata$9$silk_burg_modified_FLP 000000018007dc5c     libopus:burg_modified_FLP.obj
 0004:00001c68       $pdata$10$silk_burg_modified_FLP 000000018007dc68     libopus:burg_modified_FLP.obj
 0004:00001c74       $pdata$silk_insertion_sort_decreasing_FLP 000000018007dc74     libopus:sort_FLP.obj
 0004:00001c80       $pdata$1$silk_insertion_sort_decreasing_FLP 000000018007dc80     libopus:sort_FLP.obj
 0004:00001c8c       $pdata$2$silk_insertion_sort_decreasing_FLP 000000018007dc8c     libopus:sort_FLP.obj
 0004:00001c98       $pdata$silk_resampler_down2_3 000000018007dc98     libopus:resampler_down2_3.obj
 0004:00001ca4       $pdata$silk_insertion_sort_increasing 000000018007dca4     libopus:sort.obj
 0004:00001cb0       $pdata$1$silk_insertion_sort_increasing 000000018007dcb0     libopus:sort.obj
 0004:00001cbc       $pdata$2$silk_insertion_sort_increasing 000000018007dcbc     libopus:sort.obj
 0004:00001cc8       $pdata$silk_NLSF_del_dec_quant 000000018007dcc8     libopus:NLSF_del_dec_quant.obj
 0004:00001cd4       $pdata$silk_NLSF_VQ        000000018007dcd4     libopus:NLSF_VQ.obj
 0004:00001cec       $pdata$??0bad_alloc@std@@QEAA@AEBV01@@Z 000000018007dcec     libcpmt:xthrow.obj
 0004:00001cf8       $pdata$??_Gbad_alloc@std@@UEAAPEAXI@Z 000000018007dcf8     libcpmt:xthrow.obj
 0004:00001d1c       $pdata$_wassert            000000018007dd1c     LIBCMT:wassert.obj
 0004:00001d28       $pdata$swprintf            000000018007dd28     LIBCMT:wassert.obj
 0004:00001d34       $pdata$__onexitinit        000000018007dd34     LIBCMT:onexit.obj
 0004:00001d40       $pdata$_onexit             000000018007dd40     LIBCMT:onexit.obj
 0004:00001d4c       $pdata$atexit              000000018007dd4c     LIBCMT:onexit.obj
 0004:00001d58       $pdata$_purecall           000000018007dd58     LIBCMT:purevirt.obj
 0004:00001d64       $pdata$??2@YAPEAX_K@Z      000000018007dd64     LIBCMT:new.obj
 0004:00001d70       $pdata$??0_LocaleUpdate@@QEAA@PEAUlocaleinfo_struct@@@Z 000000018007dd70     LIBCMT:stricmp.obj
 0004:00001d7c       $pdata$_stricmp            000000018007dd7c     LIBCMT:stricmp.obj
 0004:00001d88       $pdata$_stricmp_l          000000018007dd88     LIBCMT:stricmp.obj
 0004:00001d94       $pdata$_CRT_INIT           000000018007dd94     LIBCMT:dllcrt0.obj
 0004:00001da0       $pdata$_DllMainCRTStartup  000000018007dda0     LIBCMT:dllcrt0.obj
 0004:00001dac       $pdata$__DllMainCRTStartup 000000018007ddac     LIBCMT:dllcrt0.obj
 0004:00001db8       $pdata$free                000000018007ddb8     LIBCMT:free.obj
 0004:00001dc4       $pdata$malloc              000000018007ddc4     LIBCMT:malloc.obj
 0004:00001dd0       $pdata$__raise_securityfailure 000000018007ddd0     LIBCMT:gs_report.obj
 0004:00001ddc       $pdata$__report_gsfailure  000000018007dddc     LIBCMT:gs_report.obj
 0004:00001de8       $pdata$__report_rangecheckfailure 000000018007dde8     LIBCMT:gs_report.obj
 0004:00001df4       $pdata$__report_securityfailure 000000018007ddf4     LIBCMT:gs_report.obj
 0004:00001e0c       $pdata$_CxxThrowException  000000018007de0c     LIBCMT:throw.obj
 0004:00001e18       $pdata$??_Gtype_info@@UEAAPEAXI@Z 000000018007de18     LIBCMT:typinfo.obj
 0004:00001e24       $pdata$??0exception@std@@QEAA@AEBV01@@Z 000000018007de24     LIBCMT:stdexcpt.obj
 0004:00001e30       $pdata$??4exception@std@@QEAAAEAV01@AEBV01@@Z 000000018007de30     LIBCMT:stdexcpt.obj
 0004:00001e3c       $pdata$??_Gexception@std@@UEAAPEAXI@Z 000000018007de3c     LIBCMT:stdexcpt.obj
 0004:00001e48       $pdata$?_Copy_str@exception@std@@AEAAXPEBD@Z 000000018007de48     LIBCMT:stdexcpt.obj
 0004:00001e54       $pdata$?_Tidy@exception@std@@AEAAXXZ 000000018007de54     LIBCMT:stdexcpt.obj
 0004:00001e60       $pdata$__isa_available_init 000000018007de60     LIBCMT:cpu_disp.obj
 0004:00001e6c       $pdata$_call_reportfault   000000018007de6c     LIBCMT:invarg.obj
 0004:00001e78       $pdata$_invalid_parameter  000000018007de78     LIBCMT:invarg.obj
 0004:00001e84       $pdata$_invalid_parameter_noinfo 000000018007de84     LIBCMT:invarg.obj
 0004:00001e90       $pdata$_invoke_watson      000000018007de90     LIBCMT:invarg.obj
 0004:00001e9c       $pdata$memcpy_s            000000018007de9c     LIBCMT:memcpy_s.obj
 0004:00001ea8       $pdata$wcscat_s            000000018007dea8     LIBCMT:wcscat_s.obj
 0004:00001eb4       $pdata$wcscpy_s            000000018007deb4     LIBCMT:wcscpy_s.obj
 0004:00001ec0       $pdata$wcsncat_s           000000018007dec0     LIBCMT:wcsncat_s.obj
 0004:00001ecc       $pdata$__crtCorExitProcess 000000018007decc     LIBCMT:crt0dat.obj
 0004:00001ed8       $pdata$__crtExitProcess    000000018007ded8     LIBCMT:crt0dat.obj
 0004:00001ee4       $pdata$__freeCrtMemory     000000018007dee4     LIBCMT:crt0dat.obj
 0004:00001ef0       $pdata$_amsg_exit          000000018007def0     LIBCMT:crt0dat.obj
 0004:00001efc       $pdata$_cinit              000000018007defc     LIBCMT:crt0dat.obj
 0004:00001f08       $pdata$_init_pointers      000000018007df08     LIBCMT:crt0dat.obj
 0004:00001f14       $pdata$_initterm           000000018007df14     LIBCMT:crt0dat.obj
 0004:00001f20       $pdata$_initterm_e         000000018007df20     LIBCMT:crt0dat.obj
 0004:00001f2c       $pdata$doexit              000000018007df2c     LIBCMT:crt0dat.obj
 0004:00001f38       $pdata$abort               000000018007df38     LIBCMT:abort.obj
 0004:00001f44       $pdata$_set_error_mode     000000018007df44     LIBCMT:errmode.obj
 0004:00001f50       $pdata$_itow_s             000000018007df50     LIBCMT:xtows.obj
 0004:00001f5c       $pdata$xtow_s              000000018007df5c     LIBCMT:xtows.obj
 0004:00001f68       $pdata$__initstdio         000000018007df68     LIBCMT:_file.obj
 0004:00001f74       $pdata$__endstdio          000000018007df74     LIBCMT:_file.obj
 0004:00001f80       $pdata$_lock_file          000000018007df80     LIBCMT:_file.obj
 0004:00001f8c       $pdata$_lock_file2         000000018007df8c     LIBCMT:_file.obj
 0004:00001f98       $pdata$_fflush_nolock      000000018007df98     LIBCMT:fflush.obj
 0004:00001fa4       $pdata$_flush              000000018007dfa4     LIBCMT:fflush.obj
 0004:00001fb0       $pdata$fflush              000000018007dfb0     LIBCMT:fflush.obj
 0004:00001fbc       $pdata$flsall              000000018007dfbc     LIBCMT:fflush.obj
 0004:00001fc8       $pdata$setvbuf             000000018007dfc8     LIBCMT:setvbuf.obj
 0004:00001fd4       $pdata$fwprintf            000000018007dfd4     LIBCMT:fwprintf.obj
 0004:00001fe0       $pdata$_vswprintf_c_l      000000018007dfe0     LIBCMT:vswprnc.obj
 0004:00001fec       $pdata$_vswprintf_helper   000000018007dfec     LIBCMT:vswprnc.obj
 0004:00001ff8       $pdata$raise               000000018007dff8     LIBCMT:winsig.obj
 0004:00002004       $pdata$__crtMessageBoxW    000000018007e004     LIBCMT:crtmboxw.obj
 0004:00002010       $pdata$__GSHandlerCheck    000000018007e010     LIBCMT:gshandler.obj
 0004:0000201c       $pdata$__GSHandlerCheckCommon 000000018007e01c     LIBCMT:gshandler.obj
 0004:00002028       $pdata$_FF_MSGBANNER       000000018007e028     LIBCMT:crt0msg.obj
 0004:00002034       $pdata$_NMSG_WRITE         000000018007e034     LIBCMT:crt0msg.obj
 0004:00002040       $pdata$_msize              000000018007e040     LIBCMT:msize.obj
 0004:0000204c       $pdata$_calloc_crt         000000018007e04c     LIBCMT:crtheap.obj
 0004:00002058       $pdata$_malloc_crt         000000018007e058     LIBCMT:crtheap.obj
 0004:00002064       $pdata$_realloc_crt        000000018007e064     LIBCMT:crtheap.obj
 0004:00002070       $pdata$__C_specific_handler 000000018007e070     LIBCMT:chandler.obj
 0004:0000207c       $pdata$_clrfp              000000018007e07c     LIBCMT:fpctrl.obj
 0004:00002088       $pdata$_ctrlfp             000000018007e088     LIBCMT:fpctrl.obj
 0004:00002094       $pdata$_set_statfp         000000018007e094     LIBCMT:fpctrl.obj
 0004:000020a0       $pdata$_statfp             000000018007e0a0     LIBCMT:fpctrl.obj
 0004:000020ac       $pdata$_call_matherr       000000018007e0ac     LIBCMT:libm_error.obj
 0004:000020b8       $pdata$_exception_enabled  000000018007e0b8     LIBCMT:libm_error.obj
 0004:000020c4       $pdata$_handle_error       000000018007e0c4     LIBCMT:libm_error.obj
 0004:000020d0       $pdata$_callnewh           000000018007e0d0     LIBCMT:handler.obj
 0004:000020dc       $pdata$__freetlocinfo      000000018007e0dc     LIBCMT:localref.obj
 0004:000020e8       $pdata$__updatetlocinfo    000000018007e0e8     LIBCMT:localref.obj
 0004:000020f4       $pdata$_updatetlocinfoEx_nolock 000000018007e0f4     LIBCMT:localref.obj
 0004:00002100       $pdata$__initmbctable      000000018007e100     LIBCMT:mbctype.obj
 0004:0000210c       $pdata$?getSystemCP@@YAHH@Z 000000018007e10c     LIBCMT:mbctype.obj
 0004:00002118       $pdata$?setSBCS@@YAXPEAUthreadmbcinfostruct@@@Z 000000018007e118     LIBCMT:mbctype.obj
 0004:00002124       $pdata$?setSBUpLow@@YAXPEAUthreadmbcinfostruct@@@Z 000000018007e124     LIBCMT:mbctype.obj
 0004:00002130       $pdata$__updatetmbcinfo    000000018007e130     LIBCMT:mbctype.obj
 0004:0000213c       $pdata$_setmbcp            000000018007e13c     LIBCMT:mbctype.obj
 0004:00002148       $pdata$_setmbcp_nolock     000000018007e148     LIBCMT:mbctype.obj
 0004:00002154       $pdata$_tolower_l          000000018007e154     LIBCMT:tolower.obj
 0004:00002160       $pdata$_freefls            000000018007e160     LIBCMT:tidtable.obj
 0004:0000216c       $pdata$_freeptd            000000018007e16c     LIBCMT:tidtable.obj
 0004:00002178       $pdata$_getptd             000000018007e178     LIBCMT:tidtable.obj
 0004:00002184       $pdata$_getptd_noexit      000000018007e184     LIBCMT:tidtable.obj
 0004:00002190       $pdata$_initptd            000000018007e190     LIBCMT:tidtable.obj
 0004:0000219c       $pdata$_mtinit             000000018007e19c     LIBCMT:tidtable.obj
 0004:000021a8       $pdata$_mtterm             000000018007e1a8     LIBCMT:tidtable.obj
 0004:000021b4       $pdata$__doserrno          000000018007e1b4     LIBCMT:dosmap.obj
 0004:000021c0       $pdata$_dosmaperr          000000018007e1c0     LIBCMT:dosmap.obj
 0004:000021cc       $pdata$_errno              000000018007e1cc     LIBCMT:dosmap.obj
 0004:000021d8       $pdata$_locterm            000000018007e1d8     LIBCMT:wsetloca.obj
 0004:000021e4       $pdata$_XcptFilter         000000018007e1e4     LIBCMT:winxfltr.obj
 0004:000021f0       $pdata$_heap_init          000000018007e1f0     LIBCMT:heapinit.obj
 0004:000021fc       $pdata$_ioinit             000000018007e1fc     LIBCMT:ioinit.obj
 0004:00002208       $pdata$_ioterm             000000018007e208     LIBCMT:ioinit.obj
 0004:00002214       $pdata$_setargv            000000018007e214     LIBCMT:stdargv.obj
 0004:00002220       $pdata$parse_cmdline       000000018007e220     LIBCMT:stdargv.obj
 0004:0000222c       $pdata$_setenvp            000000018007e22c     LIBCMT:stdenvp.obj
 0004:00002238       $pdata$__security_init_cookie 000000018007e238     LIBCMT:gs_support.obj
 0004:00002244       $pdata$__crtGetEnvironmentStringsA 000000018007e244     LIBCMT:a_env.obj
 0004:00002250       $pdata$__crtCaptureCurrentContext 000000018007e250     LIBCMT:winapisupp.obj
 0004:0000225c       $pdata$__crtCapturePreviousContext 000000018007e25c     LIBCMT:winapisupp.obj
 0004:00002268       $pdata$__crtInitializeCriticalSectionEx 000000018007e268     LIBCMT:winapisupp.obj
 0004:00002274       $pdata$__crtIsPackagedApp  000000018007e274     LIBCMT:winapisupp.obj
 0004:00002280       $pdata$__crtLoadWinApiPointers 000000018007e280     LIBCMT:winapisupp.obj
 0004:0000228c       $pdata$__crtTerminateProcess 000000018007e28c     LIBCMT:winapisupp.obj
 0004:00002298       $pdata$__crtUnhandledException 000000018007e298     LIBCMT:winapisupp.obj
 0004:000022a4       $pdata$_RTC_Initialize     000000018007e2a4     LIBCMT:initsect.obj
 0004:000022b0       $pdata$_RTC_Terminate      000000018007e2b0     LIBCMT:initsect.obj
 0004:000022bc       $pdata$__DestructExceptionObject 000000018007e2bc     LIBCMT:frame.obj
 0004:000022c8       $pdata$?terminate@@YAXXZ   000000018007e2c8     LIBCMT:hooks.obj
 0004:000022d4       $pdata$_initp_eh_hooks     000000018007e2d4     LIBCMT:hooks.obj
 0004:000022ec       $pdata$?_Type_info_dtor@type_info@@CAXPEAV1@@Z 000000018007e2ec     LIBCMT:typname.obj
 0004:000022f8       $pdata$_cfltcvt            000000018007e2f8     LIBCMT:cvt.obj
 0004:00002304       $pdata$_cfltcvt_l          000000018007e304     LIBCMT:cvt.obj
 0004:00002310       $pdata$_cftoa_l            000000018007e310     LIBCMT:cvt.obj
 0004:0000231c       $pdata$_cftoe2_l           000000018007e31c     LIBCMT:cvt.obj
 0004:00002328       $pdata$_cftoe_l            000000018007e328     LIBCMT:cvt.obj
 0004:00002334       $pdata$_cftof2_l           000000018007e334     LIBCMT:cvt.obj
 0004:00002340       $pdata$_cftof_l            000000018007e340     LIBCMT:cvt.obj
 0004:0000234c       $pdata$_cftog_l            000000018007e34c     LIBCMT:cvt.obj
 0004:00002358       $pdata$_cropzeros_l        000000018007e358     LIBCMT:cvt.obj
 0004:00002364       $pdata$_fassign_l          000000018007e364     LIBCMT:cvt.obj
 0004:00002370       $pdata$_forcdecpt_l        000000018007e370     LIBCMT:cvt.obj
 0004:0000237c       $pdata$_initp_misc_cfltcvt_tab 000000018007e37c     LIBCMT:cmiscdat.obj
 0004:00002388       $pdata$strcpy_s            000000018007e388     LIBCMT:strcpy_s.obj
 0004:000023a0       $pdata$_lock               000000018007e3a0     LIBCMT:mlock.obj
 0004:000023ac       $pdata$_mtdeletelocks      000000018007e3ac     LIBCMT:mlock.obj
 0004:000023b8       $pdata$_mtinitlocknum      000000018007e3b8     LIBCMT:mlock.obj
 0004:000023c4       $pdata$_mtinitlocks        000000018007e3c4     LIBCMT:mlock.obj
 0004:000023d0       $pdata$_IsNonwritableInCurrentImage 000000018007e3d0     LIBCMT:pesect.obj
 0004:000023dc       $pdata$_ftbuf              000000018007e3dc     LIBCMT:_sftbuf.obj
 0004:000023e8       $pdata$_stbuf              000000018007e3e8     LIBCMT:_sftbuf.obj
 0004:000023f4       $pdata$_fcloseall          000000018007e3f4     LIBCMT:closeall.obj
 0004:00002400       $pdata$_fileno             000000018007e400     LIBCMT:fileno.obj
 0004:0000240c       $pdata$_commit             000000018007e40c     LIBCMT:commit.obj
 0004:00002418       $pdata$_write              000000018007e418     LIBCMT:write.obj
 0004:00002424       $pdata$_write_nolock       000000018007e424     LIBCMT:write.obj
 0004:00002430       $pdata$_freebuf            000000018007e430     LIBCMT:_freebuf.obj
 0004:0000243c       $pdata$_woutput_l          000000018007e43c     LIBCMT:woutput.obj
 0004:00002448       $pdata$write_char          000000018007e448     LIBCMT:woutput.obj
 0004:00002454       $pdata$write_multi_char    000000018007e454     LIBCMT:woutput.obj
 0004:00002460       $pdata$write_string        000000018007e460     LIBCMT:woutput.obj
 0004:0000246c       $pdata$_flsbuf             000000018007e46c     LIBCMT:_flsbuf.obj
 0004:00002478       $pdata$wcsncpy_s           000000018007e478     LIBCMT:wcsncpy_s.obj
 0004:00002484       $pdata$realloc             000000018007e484     LIBCMT:realloc.obj
 0004:00002490       $pdata$_calloc_impl        000000018007e490     LIBCMT:calloc_impl.obj
 0004:000024cc       $pdata$GetTableIndexFromLocaleName 000000018007e4cc     LIBCMT:winapinls.obj
 0004:000024d8       $pdata$__crtDownlevelLocaleNameToLCID 000000018007e4d8     LIBCMT:winapinls.obj
 0004:000024e4       $pdata$__crtLCMapStringEx  000000018007e4e4     LIBCMT:winapinls.obj
 0004:000024fc       $pdata$_raise_exc          000000018007e4fc     LIBCMT:fpexcept.obj
 0004:00002508       $pdata$_raise_exc_ex       000000018007e508     LIBCMT:fpexcept.obj
 0004:00002514       $pdata$_set_errno_from_matherr 000000018007e514     LIBCMT:fpexcept.obj
 0004:00002520       $pdata$__free_lconv_mon    000000018007e520     LIBCMT:initmon.obj
 0004:0000252c       $pdata$__free_lconv_num    000000018007e52c     LIBCMT:initnum.obj
 0004:00002538       $pdata$__free_lc_time      000000018007e538     LIBCMT:inittime.obj
 0004:00002544       $pdata$?__crtLCMapStringA_stat@@YAHPEAUlocaleinfo_struct@@PEB_WKPEBDHPEADHHH@Z 000000018007e544     LIBCMT:a_map.obj
 0004:00002550       $pdata$__crtLCMapStringA   000000018007e550     LIBCMT:a_map.obj
 0004:0000255c       $pdata$?__crtGetStringTypeA_stat@@YAHPEAUlocaleinfo_struct@@KPEBDHPEAGHH@Z 000000018007e55c     LIBCMT:a_str.obj
 0004:00002568       $pdata$__crtGetStringTypeA 000000018007e568     LIBCMT:a_str.obj
 0004:00002574       $pdata$_isctype_l          000000018007e574     LIBCMT:isctype.obj
 0004:00002580       $pdata$_isleadbyte_l       000000018007e580     LIBCMT:_wctype.obj
 0004:0000258c       $pdata$isleadbyte          000000018007e58c     LIBCMT:_wctype.obj
 0004:000025a4       $pdata$?x_ismbbtype_l@@YAHPEAUlocaleinfo_struct@@IHH@Z 000000018007e5a4     LIBCMT:ismbbyte.obj
 0004:000025bc       $pdata$isdigit             000000018007e5bc     LIBCMT:_ctype.obj
 0004:000025c8       $pdata$strrchr             000000018007e5c8     LIBCMT:strrchr.obj
 0004:000025d4       $pdata$_fptostr            000000018007e5d4     LIBCMT:_fptostr.obj
 0004:000025e0       $pdata$__crt_atoflt_l      000000018007e5e0     LIBCMT:atodbl.obj
 0004:000025ec       $pdata$_atodbl_l           000000018007e5ec     LIBCMT:atodbl.obj
 0004:000025f8       $pdata$__dtold             000000018007e5f8     LIBCMT:cfout.obj
 0004:00002604       $pdata$_fltout2            000000018007e604     LIBCMT:cfout.obj
 0004:00002610       $pdata$_isatty             000000018007e610     LIBCMT:isatty.obj
 0004:0000261c       $pdata$_fclose_nolock      000000018007e61c     LIBCMT:fclose.obj
 0004:00002628       $pdata$fclose              000000018007e628     LIBCMT:fclose.obj
 0004:00002634       $pdata$__lock_fhandle      000000018007e634     LIBCMT:osfinfo.obj
 0004:00002640       $pdata$_free_osfhnd        000000018007e640     LIBCMT:osfinfo.obj
 0004:0000264c       $pdata$_get_osfhandle      000000018007e64c     LIBCMT:osfinfo.obj
 0004:00002658       $pdata$_lseeki64           000000018007e658     LIBCMT:lseeki64.obj
 0004:00002664       $pdata$_lseeki64_nolock    000000018007e664     LIBCMT:lseeki64.obj
 0004:00002670       $pdata$_mbtowc_l           000000018007e670     LIBCMT:mbtowc.obj
 0004:0000267c       $pdata$_putwch_nolock      000000018007e67c     LIBCMT:putwch.obj
 0004:00002694       $pdata$_fputwc_nolock      000000018007e694     LIBCMT:fputwc.obj
 0004:000026a0       $pdata$_getbuf             000000018007e6a0     LIBCMT:_getbuf.obj
 0004:000026ac       $pdata$_ld12tod            000000018007e6ac     LIBCMT:intrncvt.obj
 0004:000026b8       $pdata$_ld12tof            000000018007e6b8     LIBCMT:intrncvt.obj
 0004:000026c4       $pdata$__strgtold12_l      000000018007e6c4     LIBCMT:strgtold.obj
 0004:000026d0       $pdata$$I10_OUTPUT         000000018007e6d0     LIBCMT:x10fout.obj
 0004:000026dc       $pdata$_close              000000018007e6dc     LIBCMT:close.obj
 0004:000026e8       $pdata$_close_nolock       000000018007e6e8     LIBCMT:close.obj
 0004:000026f4       $pdata$__termconout        000000018007e6f4     LIBCMT:initcon.obj
 0004:00002700       $pdata$__initconout        000000018007e700     LIBCMT:initcon.obj
 0004:0000270c       $pdata$_wctomb_s_l         000000018007e70c     LIBCMT:wctomb.obj
 0004:00002718       $pdata$wctomb_s            000000018007e718     LIBCMT:wctomb.obj
 0004:00002724       $pdata$_flswbuf            000000018007e724     LIBCMT:_flswbuf.obj
 0004:00002730       $pdata$__mtold12           000000018007e730     LIBCMT:mantold.obj
 0004:0000273c       $pdata$__delayLoadHelper2  000000018007e73c     DelayImp:delayhlp.obj
 0004:00002748       $pdata$atan2               000000018007e748     LIBCMT:atan2.obj
 0004:0000276c       $pdata$floor               000000018007e76c     LIBCMT:floor.obj
 0004:0000279c       $pdata$sqrt                000000018007e79c     LIBCMT:sqrt.obj
 0004:000027a8       $pdata$__fma3_lib_init     000000018007e7a8     LIBCMT:fma3_available.obj
 0004:000027e4       $pdata$_sincos_special     000000018007e7e4     LIBCMT:sincos_special.obj
 0004:000027f0       $pdata$_exp_special        000000018007e7f0     LIBCMT:exp_special.obj
 0004:000027fc       $pdata$_log10_special      000000018007e7fc     LIBCMT:log_special.obj
 0004:00002808       $pdata$_log_special        000000018007e808     LIBCMT:log_special.obj
 0004:00002814       $pdata$_log_special_common 000000018007e814     LIBCMT:log_special.obj
 0004:00002820       $pdata$_pow_special        000000018007e820     LIBCMT:pow_special.obj
 0004:0000282c       $pdata$_onexit$fin$0       000000018007e82c     LIBCMT:onexit.obj
 0004:00002838       $pdata$_CRT_INIT$fin$0     000000018007e838     LIBCMT:dllcrt0.obj
 0004:00002844       $pdata$__DllMainCRTStartup$filt$0 000000018007e844     LIBCMT:dllcrt0.obj
 0004:00002850       $pdata$doexit$fin$0        000000018007e850     LIBCMT:crt0dat.obj
 0004:0000285c       $pdata$flsall$fin$0        000000018007e85c     LIBCMT:fflush.obj
 0004:00002868       $pdata$flsall$fin$1        000000018007e868     LIBCMT:fflush.obj
 0004:00002874       $pdata$setvbuf$fin$0       000000018007e874     LIBCMT:setvbuf.obj
 0004:00002880       $pdata$fwprintf$fin$0      000000018007e880     LIBCMT:fwprintf.obj
 0004:0000288c       $pdata$raise$fin$0         000000018007e88c     LIBCMT:winsig.obj
 0004:00002898       $pdata$_ctrlfp$filt$0      000000018007e898     LIBCMT:fpctrl.obj
 0004:000028a4       $pdata$_locterm$fin$0      000000018007e8a4     LIBCMT:localref.obj
 0004:000028a4       $pdata$__updatetlocinfo$fin$0 000000018007e8a4     LIBCMT:localref.obj
 0004:000028b0       $pdata$_setmbcp$fin$0      000000018007e8b0     LIBCMT:mbctype.obj
 0004:000028b0       $pdata$__updatetmbcinfo$fin$0 000000018007e8b0     LIBCMT:mbctype.obj
 0004:000028bc       $pdata$_freefls$fin$1      000000018007e8bc     LIBCMT:tidtable.obj
 0004:000028bc       $pdata$_initptd$fin$1      000000018007e8bc     LIBCMT:tidtable.obj
 0004:000028c8       $pdata$_freefls$fin$0      000000018007e8c8     LIBCMT:tidtable.obj
 0004:000028c8       $pdata$_initptd$fin$0      000000018007e8c8     LIBCMT:tidtable.obj
 0004:000028d4       $pdata$_ioinit$fin$0       000000018007e8d4     LIBCMT:ioinit.obj
 0004:000028e0       $pdata$__DestructExceptionObject$filt$0 000000018007e8e0     LIBCMT:frame.obj
 0004:000028ec       $pdata$?fin$0@?0??_Type_info_dtor@type_info@@CAXPEAV1@@Z@4HA 000000018007e8ec     LIBCMT:typname.obj
 0004:000028f8       $pdata$_mtinitlocknum$fin$0 000000018007e8f8     LIBCMT:mlock.obj
 0004:00002904       $pdata$_IsNonwritableInCurrentImage$filt$0 000000018007e904     LIBCMT:pesect.obj
 0004:00002910       $pdata$_fcloseall$fin$0    000000018007e910     LIBCMT:closeall.obj
 0004:0000291c       $pdata$_lseeki64$fin$0     000000018007e91c     LIBCMT:write.obj
 0004:0000291c       $pdata$_write$fin$0        000000018007e91c     LIBCMT:write.obj
 0004:00002928       $pdata$fflush$fin$0        000000018007e928     LIBCMT:fclose.obj
 0004:00002928       $pdata$fclose$fin$0        000000018007e928     LIBCMT:fclose.obj
 0004:00002934       $pdata$__lock_fhandle$fin$0 000000018007e934     LIBCMT:osfinfo.obj
 0004:00002940       $pdata$_close$fin$0        000000018007e940     LIBCMT:close.obj
 0004:00002940       $pdata$_commit$fin$0       000000018007e940     LIBCMT:close.obj
 0005:00000060       $R000000                   000000018007f060     * linker generated manifest res *

 Exports

  ordinal    name

        1    ??0Allocator@ArrayBuffer@v8@@QEAA@AEBV012@@Z (public: __cdecl v8::ArrayBuffer::Allocator::Allocator(class v8::ArrayBuffer::Allocator const &))
        2    ??0Allocator@ArrayBuffer@v8@@QEAA@XZ (public: __cdecl v8::ArrayBuffer::Allocator::Allocator(void))
        3    ??0CachedData@ScriptCompiler@v8@@QEAA@XZ (public: __cdecl v8::ScriptCompiler::CachedData::CachedData(void))
        4    ??0Contents@ArrayBuffer@v8@@QEAA@XZ (public: __cdecl v8::ArrayBuffer::Contents::Contents(void))
        5    ??0Contents@SharedArrayBuffer@v8@@QEAA@XZ (public: __cdecl v8::SharedArrayBuffer::Contents::Contents(void))
        6    ??0ExtensionConfiguration@v8@@QEAA@HQEAPEBD@Z (public: __cdecl v8::ExtensionConfiguration::ExtensionConfiguration(int,char const * * const))
        7    ??0ExtensionConfiguration@v8@@QEAA@XZ (public: __cdecl v8::ExtensionConfiguration::ExtensionConfiguration(void))
        8    ??0ExternalOneByteStringResource@String@v8@@IEAA@XZ (protected: __cdecl v8::String::ExternalOneByteStringResource::ExternalOneByteStringResource(void))
        9    ??0ExternalOneByteStringResourceImpl@v8@@QEAA@PEBD_K@Z (public: __cdecl v8::ExternalOneByteStringResourceImpl::ExternalOneByteStringResourceImpl(char const *,unsigned __int64))
       10    ??0ExternalOneByteStringResourceImpl@v8@@QEAA@XZ (public: __cdecl v8::ExternalOneByteStringResourceImpl::ExternalOneByteStringResourceImpl(void))
       11    ??0ExternalResourceVisitor@v8@@QEAA@AEBV01@@Z (public: __cdecl v8::ExternalResourceVisitor::ExternalResourceVisitor(class v8::ExternalResourceVisitor const &))
       12    ??0ExternalResourceVisitor@v8@@QEAA@XZ (public: __cdecl v8::ExternalResourceVisitor::ExternalResourceVisitor(void))
       13    ??0ExternalSourceStream@ScriptCompiler@v8@@QEAA@AEBV012@@Z (public: __cdecl v8::ScriptCompiler::ExternalSourceStream::ExternalSourceStream(class v8::ScriptCompiler::ExternalSourceStream const &))
       14    ??0ExternalSourceStream@ScriptCompiler@v8@@QEAA@XZ (public: __cdecl v8::ScriptCompiler::ExternalSourceStream::ExternalSourceStream(void))
       15    ??0ExternalStringResource@String@v8@@IEAA@XZ (protected: __cdecl v8::String::ExternalStringResource::ExternalStringResource(void))
       16    ??0ExternalStringResourceBase@String@v8@@IEAA@XZ (protected: __cdecl v8::String::ExternalStringResourceBase::ExternalStringResourceBase(void))
       17    ??0HandleScope@v8@@IEAA@XZ (protected: __cdecl v8::HandleScope::HandleScope(void))
       18    ??0Locker@v8@@QEAA@PEAVIsolate@1@@Z (public: __cdecl v8::Locker::Locker(class v8::Isolate *))
       19    ??0PersistentHandleVisitor@v8@@QEAA@AEBV01@@Z (public: __cdecl v8::PersistentHandleVisitor::PersistentHandleVisitor(class v8::PersistentHandleVisitor const &))
       20    ??0PersistentHandleVisitor@v8@@QEAA@XZ (public: __cdecl v8::PersistentHandleVisitor::PersistentHandleVisitor(void))
       21    ??0Scope@Isolate@v8@@QEAA@PEAV12@@Z (public: __cdecl v8::Isolate::Scope::Scope(class v8::Isolate *))
       22    ??0Unlocker@v8@@QEAA@PEAVIsolate@1@@Z (public: __cdecl v8::Unlocker::Unlocker(class v8::Isolate *))
       23    ??1Allocator@ArrayBuffer@v8@@UEAA@XZ (public: virtual __cdecl v8::ArrayBuffer::Allocator::~Allocator(void))
       24    ??1EscapableHandleScope@v8@@QEAA@XZ (public: __cdecl v8::EscapableHandleScope::~EscapableHandleScope(void))
       25    ??1Extension@v8@@UEAA@XZ (public: virtual __cdecl v8::Extension::~Extension(void))
       26    ??1ExternalOneByteStringResource@String@v8@@UEAA@XZ (public: virtual __cdecl v8::String::ExternalOneByteStringResource::~ExternalOneByteStringResource(void))
       27    ??1ExternalOneByteStringResourceImpl@v8@@UEAA@XZ (public: virtual __cdecl v8::ExternalOneByteStringResourceImpl::~ExternalOneByteStringResourceImpl(void))
       28    ??1ExternalResourceVisitor@v8@@UEAA@XZ (public: virtual __cdecl v8::ExternalResourceVisitor::~ExternalResourceVisitor(void))
       29    ??1ExternalSourceStream@ScriptCompiler@v8@@UEAA@XZ (public: virtual __cdecl v8::ScriptCompiler::ExternalSourceStream::~ExternalSourceStream(void))
       30    ??1ExternalStringResource@String@v8@@UEAA@XZ (public: virtual __cdecl v8::String::ExternalStringResource::~ExternalStringResource(void))
       31    ??1ExternalStringResourceBase@String@v8@@UEAA@XZ (public: virtual __cdecl v8::String::ExternalStringResourceBase::~ExternalStringResourceBase(void))
       32    ??1PersistentHandleVisitor@v8@@UEAA@XZ (public: virtual __cdecl v8::PersistentHandleVisitor::~PersistentHandleVisitor(void))
       33    ??1Scope@Isolate@v8@@QEAA@XZ (public: __cdecl v8::Isolate::Scope::~Scope(void))
       34    ??4AccessorSignature@v8@@QEAAAEAV01@AEBV01@@Z (public: class v8::AccessorSignature & __cdecl v8::AccessorSignature::operator=(class v8::AccessorSignature const &))
       35    ??4Allocator@ArrayBuffer@v8@@QEAAAEAV012@AEBV012@@Z (public: class v8::ArrayBuffer::Allocator & __cdecl v8::ArrayBuffer::Allocator::operator=(class v8::ArrayBuffer::Allocator const &))
       36    ??4Array@v8@@QEAAAEAV01@AEBV01@@Z (public: class v8::Array & __cdecl v8::Array::operator=(class v8::Array const &))
       37    ??4ArrayBuffer@v8@@QEAAAEAV01@AEBV01@@Z (public: class v8::ArrayBuffer & __cdecl v8::ArrayBuffer::operator=(class v8::ArrayBuffer const &))
       38    ??4ArrayBufferView@v8@@QEAAAEAV01@AEBV01@@Z (public: class v8::ArrayBufferView & __cdecl v8::ArrayBufferView::operator=(class v8::ArrayBufferView const &))
       39    ??4Boolean@v8@@QEAAAEAV01@AEBV01@@Z (public: class v8::Boolean & __cdecl v8::Boolean::operator=(class v8::Boolean const &))
       40    ??4BooleanObject@v8@@QEAAAEAV01@AEBV01@@Z (public: class v8::BooleanObject & __cdecl v8::BooleanObject::operator=(class v8::BooleanObject const &))
       41    ??4Contents@ArrayBuffer@v8@@QEAAAEAV012@AEBV012@@Z (public: class v8::ArrayBuffer::Contents & __cdecl v8::ArrayBuffer::Contents::operator=(class v8::ArrayBuffer::Contents const &))
       42    ??4Contents@SharedArrayBuffer@v8@@QEAAAEAV012@AEBV012@@Z (public: class v8::SharedArrayBuffer::Contents & __cdecl v8::SharedArrayBuffer::Contents::operator=(class v8::SharedArrayBuffer::Contents const &))
       43    ??4Context@v8@@QEAAAEAV01@AEBV01@@Z (public: class v8::Context & __cdecl v8::Context::operator=(class v8::Context const &))
       44    ??4Data@v8@@QEAAAEAV01@AEBV01@@Z (public: class v8::Data & __cdecl v8::Data::operator=(class v8::Data const &))
       45    ??4DataView@v8@@QEAAAEAV01@AEBV01@@Z (public: class v8::DataView & __cdecl v8::DataView::operator=(class v8::DataView const &))
       46    ??4Date@v8@@QEAAAEAV01@AEBV01@@Z (public: class v8::Date & __cdecl v8::Date::operator=(class v8::Date const &))
       47    ??4Exception@v8@@QEAAAEAV01@AEBV01@@Z (public: class v8::Exception & __cdecl v8::Exception::operator=(class v8::Exception const &))
       48    ??4External@v8@@QEAAAEAV01@AEBV01@@Z (public: class v8::External & __cdecl v8::External::operator=(class v8::External const &))
       49    ??4ExternalResourceVisitor@v8@@QEAAAEAV01@AEBV01@@Z (public: class v8::ExternalResourceVisitor & __cdecl v8::ExternalResourceVisitor::operator=(class v8::ExternalResourceVisitor const &))
       50    ??4ExternalSourceStream@ScriptCompiler@v8@@QEAAAEAV012@AEBV012@@Z (public: class v8::ScriptCompiler::ExternalSourceStream & __cdecl v8::ScriptCompiler::ExternalSourceStream::operator=(class v8::ScriptCompiler::ExternalSourceStream const &))
       51    ??4Float32Array@v8@@QEAAAEAV01@AEBV01@@Z (public: class v8::Float32Array & __cdecl v8::Float32Array::operator=(class v8::Float32Array const &))
       52    ??4Float64Array@v8@@QEAAAEAV01@AEBV01@@Z (public: class v8::Float64Array & __cdecl v8::Float64Array::operator=(class v8::Float64Array const &))
       53    ??4Function@v8@@QEAAAEAV01@AEBV01@@Z (public: class v8::Function & __cdecl v8::Function::operator=(class v8::Function const &))
       54    ??4FunctionTemplate@v8@@QEAAAEAV01@AEBV01@@Z (public: class v8::FunctionTemplate & __cdecl v8::FunctionTemplate::operator=(class v8::FunctionTemplate const &))
       55    ??4HeapObjectStatistics@v8@@QEAAAEAV01@AEBV01@@Z (public: class v8::HeapObjectStatistics & __cdecl v8::HeapObjectStatistics::operator=(class v8::HeapObjectStatistics const &))
       56    ??4HeapSpaceStatistics@v8@@QEAAAEAV01@AEBV01@@Z (public: class v8::HeapSpaceStatistics & __cdecl v8::HeapSpaceStatistics::operator=(class v8::HeapSpaceStatistics const &))
       57    ??4HeapStatistics@v8@@QEAAAEAV01@AEBV01@@Z (public: class v8::HeapStatistics & __cdecl v8::HeapStatistics::operator=(class v8::HeapStatistics const &))
       58    ??4Int16Array@v8@@QEAAAEAV01@AEBV01@@Z (public: class v8::Int16Array & __cdecl v8::Int16Array::operator=(class v8::Int16Array const &))
       59    ??4Int32@v8@@QEAAAEAV01@AEBV01@@Z (public: class v8::Int32 & __cdecl v8::Int32::operator=(class v8::Int32 const &))
       60    ??4Int32Array@v8@@QEAAAEAV01@AEBV01@@Z (public: class v8::Int32Array & __cdecl v8::Int32Array::operator=(class v8::Int32Array const &))
       61    ??4Int8Array@v8@@QEAAAEAV01@AEBV01@@Z (public: class v8::Int8Array & __cdecl v8::Int8Array::operator=(class v8::Int8Array const &))
       62    ??4Integer@v8@@QEAAAEAV01@AEBV01@@Z (public: class v8::Integer & __cdecl v8::Integer::operator=(class v8::Integer const &))
       63    ??4JSON@v8@@QEAAAEAV01@AEBV01@@Z (public: class v8::JSON & __cdecl v8::JSON::operator=(class v8::JSON const &))
       64    ??4Map@v8@@QEAAAEAV01@AEBV01@@Z (public: class v8::Map & __cdecl v8::Map::operator=(class v8::Map const &))
       65    ??4Message@v8@@QEAAAEAV01@AEBV01@@Z (public: class v8::Message & __cdecl v8::Message::operator=(class v8::Message const &))
       66    ??4Name@v8@@QEAAAEAV01@AEBV01@@Z (public: class v8::Name & __cdecl v8::Name::operator=(class v8::Name const &))
       67    ??4NativeWeakMap@v8@@QEAAAEAV01@AEBV01@@Z (public: class v8::NativeWeakMap & __cdecl v8::NativeWeakMap::operator=(class v8::NativeWeakMap const &))
       68    ??4Number@v8@@QEAAAEAV01@AEBV01@@Z (public: class v8::Number & __cdecl v8::Number::operator=(class v8::Number const &))
       69    ??4NumberObject@v8@@QEAAAEAV01@AEBV01@@Z (public: class v8::NumberObject & __cdecl v8::NumberObject::operator=(class v8::NumberObject const &))
       70    ??4Object@v8@@QEAAAEAV01@AEBV01@@Z (public: class v8::Object & __cdecl v8::Object::operator=(class v8::Object const &))
       71    ??4ObjectTemplate@v8@@QEAAAEAV01@AEBV01@@Z (public: class v8::ObjectTemplate & __cdecl v8::ObjectTemplate::operator=(class v8::ObjectTemplate const &))
       72    ??4PersistentHandleVisitor@v8@@QEAAAEAV01@AEBV01@@Z (public: class v8::PersistentHandleVisitor & __cdecl v8::PersistentHandleVisitor::operator=(class v8::PersistentHandleVisitor const &))
       73    ??4Primitive@v8@@QEAAAEAV01@AEBV01@@Z (public: class v8::Primitive & __cdecl v8::Primitive::operator=(class v8::Primitive const &))
       74    ??4Promise@v8@@QEAAAEAV01@AEBV01@@Z (public: class v8::Promise & __cdecl v8::Promise::operator=(class v8::Promise const &))
       75    ??4RegExp@v8@@QEAAAEAV01@AEBV01@@Z (public: class v8::RegExp & __cdecl v8::RegExp::operator=(class v8::RegExp const &))
       76    ??4Resolver@Promise@v8@@QEAAAEAV012@AEBV012@@Z (public: class v8::Promise::Resolver & __cdecl v8::Promise::Resolver::operator=(class v8::Promise::Resolver const &))
       77    ??4ResourceConstraints@v8@@QEAAAEAV01@AEBV01@@Z (public: class v8::ResourceConstraints & __cdecl v8::ResourceConstraints::operator=(class v8::ResourceConstraints const &))
       78    ??4Script@v8@@QEAAAEAV01@AEBV01@@Z (public: class v8::Script & __cdecl v8::Script::operator=(class v8::Script const &))
       79    ??4ScriptCompiler@v8@@QEAAAEAV01@AEBV01@@Z (public: class v8::ScriptCompiler & __cdecl v8::ScriptCompiler::operator=(class v8::ScriptCompiler const &))
       80    ??4Set@v8@@QEAAAEAV01@AEBV01@@Z (public: class v8::Set & __cdecl v8::Set::operator=(class v8::Set const &))
       81    ??4SharedArrayBuffer@v8@@QEAAAEAV01@AEBV01@@Z (public: class v8::SharedArrayBuffer & __cdecl v8::SharedArrayBuffer::operator=(class v8::SharedArrayBuffer const &))
       82    ??4Signature@v8@@QEAAAEAV01@AEBV01@@Z (public: class v8::Signature & __cdecl v8::Signature::operator=(class v8::Signature const &))
       83    ??4StackFrame@v8@@QEAAAEAV01@AEBV01@@Z (public: class v8::StackFrame & __cdecl v8::StackFrame::operator=(class v8::StackFrame const &))
       84    ??4StackTrace@v8@@QEAAAEAV01@AEBV01@@Z (public: class v8::StackTrace & __cdecl v8::StackTrace::operator=(class v8::StackTrace const &))
       85    ??4StartupData@v8@@QEAAAEAV01@AEBV01@@Z (public: class v8::StartupData & __cdecl v8::StartupData::operator=(class v8::StartupData const &))
       86    ??4String@v8@@QEAAAEAV01@AEBV01@@Z (public: class v8::String & __cdecl v8::String::operator=(class v8::String const &))
       87    ??4StringObject@v8@@QEAAAEAV01@AEBV01@@Z (public: class v8::StringObject & __cdecl v8::StringObject::operator=(class v8::StringObject const &))
       88    ??4Symbol@v8@@QEAAAEAV01@AEBV01@@Z (public: class v8::Symbol & __cdecl v8::Symbol::operator=(class v8::Symbol const &))
       89    ??4SymbolObject@v8@@QEAAAEAV01@AEBV01@@Z (public: class v8::SymbolObject & __cdecl v8::SymbolObject::operator=(class v8::SymbolObject const &))
       90    ??4Template@v8@@QEAAAEAV01@AEBV01@@Z (public: class v8::Template & __cdecl v8::Template::operator=(class v8::Template const &))
       91    ??4TypeSwitch@v8@@QEAAAEAV01@AEBV01@@Z (public: class v8::TypeSwitch & __cdecl v8::TypeSwitch::operator=(class v8::TypeSwitch const &))
       92    ??4TypedArray@v8@@QEAAAEAV01@AEBV01@@Z (public: class v8::TypedArray & __cdecl v8::TypedArray::operator=(class v8::TypedArray const &))
       93    ??4Uint16Array@v8@@QEAAAEAV01@AEBV01@@Z (public: class v8::Uint16Array & __cdecl v8::Uint16Array::operator=(class v8::Uint16Array const &))
       94    ??4Uint32@v8@@QEAAAEAV01@AEBV01@@Z (public: class v8::Uint32 & __cdecl v8::Uint32::operator=(class v8::Uint32 const &))
       95    ??4Uint32Array@v8@@QEAAAEAV01@AEBV01@@Z (public: class v8::Uint32Array & __cdecl v8::Uint32Array::operator=(class v8::Uint32Array const &))
       96    ??4Uint8Array@v8@@QEAAAEAV01@AEBV01@@Z (public: class v8::Uint8Array & __cdecl v8::Uint8Array::operator=(class v8::Uint8Array const &))
       97    ??4Uint8ClampedArray@v8@@QEAAAEAV01@AEBV01@@Z (public: class v8::Uint8ClampedArray & __cdecl v8::Uint8ClampedArray::operator=(class v8::Uint8ClampedArray const &))
       98    ??4UnboundScript@v8@@QEAAAEAV01@AEBV01@@Z (public: class v8::UnboundScript & __cdecl v8::UnboundScript::operator=(class v8::UnboundScript const &))
       99    ??4Unlocker@v8@@QEAAAEAV01@AEBV01@@Z (public: class v8::Unlocker & __cdecl v8::Unlocker::operator=(class v8::Unlocker const &))
      100    ??4V8@v8@@QEAAAEAV01@AEBV01@@Z (public: class v8::V8 & __cdecl v8::V8::operator=(class v8::V8 const &))
      101    ??4Value@v8@@QEAAAEAV01@AEBV01@@Z (public: class v8::Value & __cdecl v8::Value::operator=(class v8::Value const &))
      102    ??DUtf8Value@String@v8@@QEAAPEADXZ (public: char * __cdecl v8::String::Utf8Value::operator*(void))
      103    ??DUtf8Value@String@v8@@QEBAPEBDXZ (public: char const * __cdecl v8::String::Utf8Value::operator*(void)const )
      104    ??DValue@String@v8@@QEAAPEAGXZ (public: unsigned short * __cdecl v8::String::Value::operator*(void))
      105    ??DValue@String@v8@@QEBAPEBGXZ (public: unsigned short const * __cdecl v8::String::Value::operator*(void)const )
      106    ??_7Allocator@ArrayBuffer@v8@@6B@ (const v8::ArrayBuffer::Allocator::`vftable')
      107    ??_7Extension@v8@@6B@ (const v8::Extension::`vftable')
      108    ??_7ExternalOneByteStringResource@String@v8@@6B@ (const v8::String::ExternalOneByteStringResource::`vftable')
      109    ??_7ExternalOneByteStringResourceImpl@v8@@6B@ (const v8::ExternalOneByteStringResourceImpl::`vftable')
      110    ??_7ExternalResourceVisitor@v8@@6B@ (const v8::ExternalResourceVisitor::`vftable')
      111    ??_7ExternalSourceStream@ScriptCompiler@v8@@6B@ (const v8::ScriptCompiler::ExternalSourceStream::`vftable')
      112    ??_7ExternalStringResource@String@v8@@6B@ (const v8::String::ExternalStringResource::`vftable')
      113    ??_7ExternalStringResourceBase@String@v8@@6B@ (const v8::String::ExternalStringResourceBase::`vftable')
      114    ??_7PersistentHandleVisitor@v8@@6B@ (const v8::PersistentHandleVisitor::`vftable')
      115    ?AddMemoryAllocationCallback@V8@v8@@SAXP6AXW4ObjectSpace@2@W4AllocationAction@2@H@Z01@Z (public: static void __cdecl v8::V8::AddMemoryAllocationCallback(void (__cdecl*)(enum v8::ObjectSpace,enum v8::AllocationAction,int),enum v8::ObjectSpace,enum v8::AllocationAction))
      116    ?AddMessageListener@V8@v8@@SA_NP6AXV?$Local@VMessage@v8@@@2@V?$Local@VValue@v8@@@2@@Z1@Z (public: static bool __cdecl v8::V8::AddMessageListener(void (__cdecl*)(class v8::Local<class v8::Message>,class v8::Local<class v8::Value>),class v8::Local<class v8::Value>))
      117    ?AdjustAmountOfExternalAllocatedMemory@Isolate@v8@@QEAA_J_J@Z (public: __int64 __cdecl v8::Isolate::AdjustAmountOfExternalAllocatedMemory(__int64))
      118    ?ByteLength@Contents@ArrayBuffer@v8@@QEBA_KXZ (public: unsigned __int64 __cdecl v8::ArrayBuffer::Contents::ByteLength(void)const )
      119    ?ByteLength@Contents@SharedArrayBuffer@v8@@QEBA_KXZ (public: unsigned __int64 __cdecl v8::SharedArrayBuffer::Contents::ByteLength(void)const )
      120    ?CancelTerminateExecution@V8@v8@@SAXPEAVIsolate@2@@Z (public: static void __cdecl v8::V8::CancelTerminateExecution(class v8::Isolate *))
      121    ?Cast@Array@v8@@SAPEAV12@PEAVValue@2@@Z (public: static class v8::Array * __cdecl v8::Array::Cast(class v8::Value *))
      122    ?Cast@ArrayBuffer@v8@@SAPEAV12@PEAVValue@2@@Z (public: static class v8::ArrayBuffer * __cdecl v8::ArrayBuffer::Cast(class v8::Value *))
      123    ?Cast@ArrayBufferView@v8@@SAPEAV12@PEAVValue@2@@Z (public: static class v8::ArrayBufferView * __cdecl v8::ArrayBufferView::Cast(class v8::Value *))
      124    ?Cast@Boolean@v8@@SAPEAV12@PEAVValue@2@@Z (public: static class v8::Boolean * __cdecl v8::Boolean::Cast(class v8::Value *))
      125    ?Cast@BooleanObject@v8@@SAPEAV12@PEAVValue@2@@Z (public: static class v8::BooleanObject * __cdecl v8::BooleanObject::Cast(class v8::Value *))
      126    ?Cast@DataView@v8@@SAPEAV12@PEAVValue@2@@Z (public: static class v8::DataView * __cdecl v8::DataView::Cast(class v8::Value *))
      127    ?Cast@Date@v8@@SAPEAV12@PEAVValue@2@@Z (public: static class v8::Date * __cdecl v8::Date::Cast(class v8::Value *))
      128    ?Cast@External@v8@@SAPEAV12@PEAVValue@2@@Z (public: static class v8::External * __cdecl v8::External::Cast(class v8::Value *))
      129    ?Cast@Float32Array@v8@@SAPEAV12@PEAVValue@2@@Z (public: static class v8::Float32Array * __cdecl v8::Float32Array::Cast(class v8::Value *))
      130    ?Cast@Float64Array@v8@@SAPEAV12@PEAVValue@2@@Z (public: static class v8::Float64Array * __cdecl v8::Float64Array::Cast(class v8::Value *))
      131    ?Cast@Function@v8@@SAPEAV12@PEAVValue@2@@Z (public: static class v8::Function * __cdecl v8::Function::Cast(class v8::Value *))
      132    ?Cast@Int16Array@v8@@SAPEAV12@PEAVValue@2@@Z (public: static class v8::Int16Array * __cdecl v8::Int16Array::Cast(class v8::Value *))
      133    ?Cast@Int32@v8@@SAPEAV12@PEAVValue@2@@Z (public: static class v8::Int32 * __cdecl v8::Int32::Cast(class v8::Value *))
      134    ?Cast@Int32Array@v8@@SAPEAV12@PEAVValue@2@@Z (public: static class v8::Int32Array * __cdecl v8::Int32Array::Cast(class v8::Value *))
      135    ?Cast@Int8Array@v8@@SAPEAV12@PEAVValue@2@@Z (public: static class v8::Int8Array * __cdecl v8::Int8Array::Cast(class v8::Value *))
      136    ?Cast@Integer@v8@@SAPEAV12@PEAVValue@2@@Z (public: static class v8::Integer * __cdecl v8::Integer::Cast(class v8::Value *))
      137    ?Cast@Map@v8@@SAPEAV12@PEAVValue@2@@Z (public: static class v8::Map * __cdecl v8::Map::Cast(class v8::Value *))
      138    ?Cast@Name@v8@@SAPEAV12@PEAVValue@2@@Z (public: static class v8::Name * __cdecl v8::Name::Cast(class v8::Value *))
      139    ?Cast@Number@v8@@SAPEAV12@PEAVValue@2@@Z (public: static class v8::Number * __cdecl v8::Number::Cast(class v8::Value *))
      140    ?Cast@NumberObject@v8@@SAPEAV12@PEAVValue@2@@Z (public: static class v8::NumberObject * __cdecl v8::NumberObject::Cast(class v8::Value *))
      141    ?Cast@Object@v8@@SAPEAV12@PEAVValue@2@@Z (public: static class v8::Object * __cdecl v8::Object::Cast(class v8::Value *))
      142    ?Cast@Promise@v8@@SAPEAV12@PEAVValue@2@@Z (public: static class v8::Promise * __cdecl v8::Promise::Cast(class v8::Value *))
      143    ?Cast@RegExp@v8@@SAPEAV12@PEAVValue@2@@Z (public: static class v8::RegExp * __cdecl v8::RegExp::Cast(class v8::Value *))
      144    ?Cast@Resolver@Promise@v8@@SAPEAV123@PEAVValue@3@@Z (public: static class v8::Promise::Resolver * __cdecl v8::Promise::Resolver::Cast(class v8::Value *))
      145    ?Cast@Set@v8@@SAPEAV12@PEAVValue@2@@Z (public: static class v8::Set * __cdecl v8::Set::Cast(class v8::Value *))
      146    ?Cast@SharedArrayBuffer@v8@@SAPEAV12@PEAVValue@2@@Z (public: static class v8::SharedArrayBuffer * __cdecl v8::SharedArrayBuffer::Cast(class v8::Value *))
      147    ?Cast@String@v8@@SAPEAV12@PEAVValue@2@@Z (public: static class v8::String * __cdecl v8::String::Cast(class v8::Value *))
      148    ?Cast@StringObject@v8@@SAPEAV12@PEAVValue@2@@Z (public: static class v8::StringObject * __cdecl v8::StringObject::Cast(class v8::Value *))
      149    ?Cast@Symbol@v8@@SAPEAV12@PEAVValue@2@@Z (public: static class v8::Symbol * __cdecl v8::Symbol::Cast(class v8::Value *))
      150    ?Cast@SymbolObject@v8@@SAPEAV12@PEAVValue@2@@Z (public: static class v8::SymbolObject * __cdecl v8::SymbolObject::Cast(class v8::Value *))
      151    ?Cast@TypedArray@v8@@SAPEAV12@PEAVValue@2@@Z (public: static class v8::TypedArray * __cdecl v8::TypedArray::Cast(class v8::Value *))
      152    ?Cast@Uint16Array@v8@@SAPEAV12@PEAVValue@2@@Z (public: static class v8::Uint16Array * __cdecl v8::Uint16Array::Cast(class v8::Value *))
      153    ?Cast@Uint32@v8@@SAPEAV12@PEAVValue@2@@Z (public: static class v8::Uint32 * __cdecl v8::Uint32::Cast(class v8::Value *))
      154    ?Cast@Uint32Array@v8@@SAPEAV12@PEAVValue@2@@Z (public: static class v8::Uint32Array * __cdecl v8::Uint32Array::Cast(class v8::Value *))
      155    ?Cast@Uint8Array@v8@@SAPEAV12@PEAVValue@2@@Z (public: static class v8::Uint8Array * __cdecl v8::Uint8Array::Cast(class v8::Value *))
      156    ?Cast@Uint8ClampedArray@v8@@SAPEAV12@PEAVValue@2@@Z (public: static class v8::Uint8ClampedArray * __cdecl v8::Uint8ClampedArray::Cast(class v8::Value *))
      157    ?Data@Contents@ArrayBuffer@v8@@QEBAPEAXXZ (public: void * __cdecl v8::ArrayBuffer::Contents::Data(void)const )
      158    ?Data@Contents@SharedArrayBuffer@v8@@QEBAPEAXXZ (public: void * __cdecl v8::SharedArrayBuffer::Contents::Data(void)const )
      159    ?Dispose@ExternalStringResourceBase@String@v8@@MEAAXXZ (protected: virtual void __cdecl v8::String::ExternalStringResourceBase::Dispose(void))
      160    ?Empty@String@v8@@SA?AV?$Local@VString@v8@@@2@PEAVIsolate@2@@Z (public: static class v8::Local<class v8::String> __cdecl v8::String::Empty(class v8::Isolate *))
      161    ?GetAlignedPointerFromEmbedderData@Context@v8@@QEAAPEAXH@Z (public: void * __cdecl v8::Context::GetAlignedPointerFromEmbedderData(int))
      162    ?GetAlignedPointerFromInternalField@Object@v8@@QEAAPEAXH@Z (public: void * __cdecl v8::Object::GetAlignedPointerFromInternalField(int))
      163    ?GetAlignedPointerFromInternalField@Object@v8@@SAPEAXAEBV?$PersistentBase@VObject@v8@@@2@H@Z (public: static void * __cdecl v8::Object::GetAlignedPointerFromInternalField(class v8::PersistentBase<class v8::Object> const &,int))
      164    ?GetData@Isolate@v8@@QEAAPEAXI@Z (public: void * __cdecl v8::Isolate::GetData(unsigned int))
      165    ?GetEmbedderData@Context@v8@@QEAA?AV?$Local@VValue@v8@@@2@H@Z (public: class v8::Local<class v8::Value> __cdecl v8::Context::GetEmbedderData(int))
      166    ?GetExternalStringResource@String@v8@@QEBAPEAVExternalStringResource@12@XZ (public: class v8::String::ExternalStringResource * __cdecl v8::String::GetExternalStringResource(void)const )
      167    ?GetExternalStringResourceBase@String@v8@@QEBAPEAVExternalStringResourceBase@12@PEAW4Encoding@12@@Z (public: class v8::String::ExternalStringResourceBase * __cdecl v8::String::GetExternalStringResourceBase(enum v8::String::Encoding *)const )
      168    ?GetId@Script@v8@@QEAAHXZ (public: int __cdecl v8::Script::GetId(void))
      169    ?GetInternalField@Object@v8@@QEAA?AV?$Local@VValue@v8@@@2@H@Z (public: class v8::Local<class v8::Value> __cdecl v8::Object::GetInternalField(int))
      170    ?GetIsolate@HandleScope@v8@@QEBAPEAVIsolate@2@XZ (public: class v8::Isolate * __cdecl v8::HandleScope::GetIsolate(void)const )
      171    ?GetNativeFunctionTemplate@Extension@v8@@UEAA?AV?$Local@VFunctionTemplate@v8@@@2@PEAVIsolate@2@V?$Local@VString@v8@@@2@@Z (public: virtual class v8::Local<class v8::FunctionTemplate> __cdecl v8::Extension::GetNativeFunctionTemplate(class v8::Isolate *,class v8::Local<class v8::String>))
      172    ?GetNumberOfDataSlots@Isolate@v8@@SAIXZ (public: static unsigned int __cdecl v8::Isolate::GetNumberOfDataSlots(void))
      173    ?InternalFieldCount@Object@v8@@SAHAEBV?$PersistentBase@VObject@v8@@@2@@Z (public: static int __cdecl v8::Object::InternalFieldCount(class v8::PersistentBase<class v8::Object> const &))
      174    ?IsDead@V8@v8@@SA_NXZ (public: static bool __cdecl v8::V8::IsDead(void))
      175    ?IsExecutionTerminating@V8@v8@@SA_NPEAVIsolate@2@@Z (public: static bool __cdecl v8::V8::IsExecutionTerminating(class v8::Isolate *))
      176    ?IsNull@Value@v8@@QEBA_NXZ (public: bool __cdecl v8::Value::IsNull(void)const )
      177    ?IsString@Value@v8@@QEBA_NXZ (public: bool __cdecl v8::Value::IsString(void)const )
      178    ?IsUndefined@Value@v8@@QEBA_NXZ (public: bool __cdecl v8::Value::IsUndefined(void)const )
      179    ?JSStackComparableAddress@TryCatch@v8@@SAPEAXPEAV12@@Z (public: static void * __cdecl v8::TryCatch::JSStackComparableAddress(class v8::TryCatch *))
      180    ?New@Boolean@v8@@SA?AV?$Local@VBoolean@v8@@@2@PEAVIsolate@2@_N@Z (public: static class v8::Local<class v8::Boolean> __cdecl v8::Boolean::New(class v8::Isolate *,bool))
      181    ?NewInstance@Function@v8@@QEBA?AV?$MaybeLocal@VObject@v8@@@2@V?$Local@VContext@v8@@@2@@Z (public: class v8::MaybeLocal<class v8::Object> __cdecl v8::Function::NewInstance(class v8::Local<class v8::Context>)const )
      182    ?QuickIsNull@Value@v8@@AEBA_NXZ (private: bool __cdecl v8::Value::QuickIsNull(void)const )
      183    ?QuickIsString@Value@v8@@AEBA_NXZ (private: bool __cdecl v8::Value::QuickIsString(void)const )
      184    ?QuickIsUndefined@Value@v8@@AEBA_NXZ (private: bool __cdecl v8::Value::QuickIsUndefined(void)const )
      185    ?RemoveGCEpilogueCallback@V8@v8@@SAXP6AXW4GCType@2@W4GCCallbackFlags@2@@Z@Z (public: static void __cdecl v8::V8::RemoveGCEpilogueCallback(void (__cdecl*)(enum v8::GCType,enum v8::GCCallbackFlags)))
      186    ?RemoveGCPrologueCallback@V8@v8@@SAXP6AXW4GCType@2@W4GCCallbackFlags@2@@Z@Z (public: static void __cdecl v8::V8::RemoveGCPrologueCallback(void (__cdecl*)(enum v8::GCType,enum v8::GCCallbackFlags)))
      187    ?RemoveMemoryAllocationCallback@V8@v8@@SAXP6AXW4ObjectSpace@2@W4AllocationAction@2@H@Z@Z (public: static void __cdecl v8::V8::RemoveMemoryAllocationCallback(void (__cdecl*)(enum v8::ObjectSpace,enum v8::AllocationAction,int)))
      188    ?RemoveMessageListeners@V8@v8@@SAXP6AXV?$Local@VMessage@v8@@@2@V?$Local@VValue@v8@@@2@@Z@Z (public: static void __cdecl v8::V8::RemoveMessageListeners(void (__cdecl*)(class v8::Local<class v8::Message>,class v8::Local<class v8::Value>)))
      189    ?Set@Template@v8@@QEAAXPEAVIsolate@2@PEBDV?$Local@VData@v8@@@2@@Z (public: void __cdecl v8::Template::Set(class v8::Isolate *,char const *,class v8::Local<class v8::Data>))
      190    ?SetAllowCodeGenerationFromStringsCallback@V8@v8@@SAXP6A_NV?$Local@VContext@v8@@@2@@Z@Z (public: static void __cdecl v8::V8::SetAllowCodeGenerationFromStringsCallback(bool (__cdecl*)(class v8::Local<class v8::Context>)))
      191    ?SetCaptureStackTraceForUncaughtExceptions@V8@v8@@SAX_NHW4StackTraceOptions@StackTrace@2@@Z (public: static void __cdecl v8::V8::SetCaptureStackTraceForUncaughtExceptions(bool,int,enum v8::StackTrace::StackTraceOptions))
      192    ?SetData@Isolate@v8@@QEAAXIPEAX@Z (public: void __cdecl v8::Isolate::SetData(unsigned int,void *))
      193    ?SetFailedAccessCheckCallbackFunction@V8@v8@@SAXP6AXV?$Local@VObject@v8@@@2@W4AccessType@2@V?$Local@VValue@v8@@@2@@Z@Z (public: static void __cdecl v8::V8::SetFailedAccessCheckCallbackFunction(void (__cdecl*)(class v8::Local<class v8::Object>,enum v8::AccessType,class v8::Local<class v8::Value>)))
      194    ?SetFatalErrorHandler@V8@v8@@SAXP6AXPEBD0@Z@Z (public: static void __cdecl v8::V8::SetFatalErrorHandler(void (__cdecl*)(char const *,char const *)))
      195    ?SetIndexedPropertyHandler@ObjectTemplate@v8@@QEAAXP6AXIAEBV?$PropertyCallbackInfo@VValue@v8@@@2@@ZP6AXIV?$Local@VValue@v8@@@2@0@ZP6AXIAEBV?$PropertyCallbackInfo@VInteger@v8@@@2@@ZP6AXIAEBV?$PropertyCallbackInfo@VBoolean@v8@@@2@@ZP6AXAEBV?$PropertyCallbackInfo@VArray@v8@@@2@@Z2@Z (public: void __cdecl v8::ObjectTemplate::SetIndexedPropertyHandler(void (__cdecl*)(unsigned int,class v8::PropertyCallbackInfo<class v8::Value> const &),void (__cdecl*)(unsigned int,class v8::Local<class v8::Value>,class v8::PropertyCallbackInfo<class v8::Value> const &),void (__cdecl*)(unsigned int,class v8::PropertyCallbackInfo<class v8::Integer> const &),void (__cdecl*)(unsigned int,class v8::PropertyCallbackInfo<class v8::Boolean> const &),void (__cdecl*)(class v8::PropertyCallbackInfo<class v8::Array> const &),class v8::Local<class v8::Value>))
      196    ?TerminateExecution@V8@v8@@SAXPEAVIsolate@2@@Z (public: static void __cdecl v8::V8::TerminateExecution(class v8::Isolate *))
      197    ?ToBoolean@Value@v8@@QEBA?AV?$Local@VBoolean@v8@@@2@XZ (public: class v8::Local<class v8::Boolean> __cdecl v8::Value::ToBoolean(void)const )
      198    ?ToDetailString@Value@v8@@QEBA?AV?$Local@VString@v8@@@2@XZ (public: class v8::Local<class v8::String> __cdecl v8::Value::ToDetailString(void)const )
      199    ?ToInt32@Value@v8@@QEBA?AV?$Local@VInt32@v8@@@2@XZ (public: class v8::Local<class v8::Int32> __cdecl v8::Value::ToInt32(void)const )
      200    ?ToInteger@Value@v8@@QEBA?AV?$Local@VInteger@v8@@@2@XZ (public: class v8::Local<class v8::Integer> __cdecl v8::Value::ToInteger(void)const )
      201    ?ToNumber@Value@v8@@QEBA?AV?$Local@VNumber@v8@@@2@XZ (public: class v8::Local<class v8::Number> __cdecl v8::Value::ToNumber(void)const )
      202    ?ToObject@Value@v8@@QEBA?AV?$Local@VObject@v8@@@2@XZ (public: class v8::Local<class v8::Object> __cdecl v8::Value::ToObject(void)const )
      203    ?ToString@Value@v8@@QEBA?AV?$Local@VString@v8@@@2@XZ (public: class v8::Local<class v8::String> __cdecl v8::Value::ToString(void)const )
      204    ?ToUint32@Value@v8@@QEBA?AV?$Local@VUint32@v8@@@2@XZ (public: class v8::Local<class v8::Uint32> __cdecl v8::Value::ToUint32(void)const )
      205    ?VisitExternalResources@V8@v8@@SAXPEAVExternalResourceVisitor@2@@Z (public: static void __cdecl v8::V8::VisitExternalResources(class v8::ExternalResourceVisitor *))
      206    ?VisitExternalString@ExternalResourceVisitor@v8@@UEAAXV?$Local@VString@v8@@@2@@Z (public: virtual void __cdecl v8::ExternalResourceVisitor::VisitExternalString(class v8::Local<class v8::String>))
      207    ?VisitHandlesForPartialDependence@V8@v8@@SAXPEAVIsolate@2@PEAVPersistentHandleVisitor@2@@Z (public: static void __cdecl v8::V8::VisitHandlesForPartialDependence(class v8::Isolate *,class v8::PersistentHandleVisitor *))
      208    ?VisitHandlesWithClassIds@V8@v8@@SAXPEAVIsolate@2@PEAVPersistentHandleVisitor@2@@Z (public: static void __cdecl v8::V8::VisitHandlesWithClassIds(class v8::Isolate *,class v8::PersistentHandleVisitor *))
      209    ?VisitHandlesWithClassIds@V8@v8@@SAXPEAVPersistentHandleVisitor@2@@Z (public: static void __cdecl v8::V8::VisitHandlesWithClassIds(class v8::PersistentHandleVisitor *))
      210    ?VisitPersistentHandle@PersistentHandleVisitor@v8@@UEAAXPEAV?$Persistent@VValue@v8@@V?$NonCopyablePersistentTraits@VValue@v8@@@2@@2@G@Z (public: virtual void __cdecl v8::PersistentHandleVisitor::VisitPersistentHandle(class v8::Persistent<class v8::Value,class v8::NonCopyablePersistentTraits<class v8::Value> > *,unsigned short))
      211    ?auto_enable@Extension@v8@@QEAA_NXZ (public: bool __cdecl v8::Extension::auto_enable(void))
      212    ?begin@ExtensionConfiguration@v8@@QEBAPEAPEBDXZ (public: char const * * __cdecl v8::ExtensionConfiguration::begin(void)const )
      213    ?code_range_size@ResourceConstraints@v8@@QEBA_KXZ (public: unsigned __int64 __cdecl v8::ResourceConstraints::code_range_size(void)const )
      214    ?data@ExternalOneByteStringResourceImpl@v8@@UEBAPEBDXZ (public: virtual char const * __cdecl v8::ExternalOneByteStringResourceImpl::data(void)const )
      215    ?dependencies@Extension@v8@@QEAAPEAPEBDXZ (public: char const * * __cdecl v8::Extension::dependencies(void))
      216    ?dependency_count@Extension@v8@@QEAAHXZ (public: int __cdecl v8::Extension::dependency_count(void))
      217    ?end@ExtensionConfiguration@v8@@QEBAPEAPEBDXZ (public: char const * * __cdecl v8::ExtensionConfiguration::end(void)const )
      218    ?heap_size_limit@HeapStatistics@v8@@QEAA_KXZ (public: unsigned __int64 __cdecl v8::HeapStatistics::heap_size_limit(void))
      219    ?impl@StreamedSource@ScriptCompiler@v8@@QEBAPEAU1internal@3@XZ (public: struct v8::internal::StreamedSource * __cdecl v8::ScriptCompiler::StreamedSource::impl(void)const )
      220    ?kInternalFieldCount@ArrayBuffer@v8@@2HB (public: static int const v8::ArrayBuffer::kInternalFieldCount)
      221    ?kInternalFieldCount@ArrayBufferView@v8@@2HB (public: static int const v8::ArrayBufferView::kInternalFieldCount)
      222    ?kInternalFieldCount@SharedArrayBuffer@v8@@2HB (public: static int const v8::SharedArrayBuffer::kInternalFieldCount)
      223    ?kMaxLength@String@v8@@2HB (public: static int const v8::String::kMaxLength)
      224    ?kNoColumnInfo@Message@v8@@2HB (public: static int const v8::Message::kNoColumnInfo)
      225    ?kNoLineNumberInfo@Message@v8@@2HB (public: static int const v8::Message::kNoLineNumberInfo)
      226    ?kNoScriptId@UnboundScript@v8@@2HB (public: static int const v8::UnboundScript::kNoScriptId)
      227    ?kNoScriptIdInfo@Message@v8@@2HB (public: static int const v8::Message::kNoScriptIdInfo)
      228    ?length@ExternalOneByteStringResourceImpl@v8@@UEBA_KXZ (public: virtual unsigned __int64 __cdecl v8::ExternalOneByteStringResourceImpl::length(void)const )
      229    ?length@Utf8Value@String@v8@@QEBAHXZ (public: int __cdecl v8::String::Utf8Value::length(void)const )
      230    ?length@Value@String@v8@@QEBAHXZ (public: int __cdecl v8::String::Value::length(void)const )
      231    ?max_available_threads@ResourceConstraints@v8@@QEBAHXZ (public: int __cdecl v8::ResourceConstraints::max_available_threads(void)const )
      232    ?max_executable_size@ResourceConstraints@v8@@QEBAHXZ (public: int __cdecl v8::ResourceConstraints::max_executable_size(void)const )
      233    ?max_old_space_size@ResourceConstraints@v8@@QEBAHXZ (public: int __cdecl v8::ResourceConstraints::max_old_space_size(void)const )
      234    ?max_semi_space_size@ResourceConstraints@v8@@QEBAHXZ (public: int __cdecl v8::ResourceConstraints::max_semi_space_size(void)const )
      235    ?name@Extension@v8@@QEBAPEBDXZ (public: char const * __cdecl v8::Extension::name(void)const )
      236    ?object_count@HeapObjectStatistics@v8@@QEAA_KXZ (public: unsigned __int64 __cdecl v8::HeapObjectStatistics::object_count(void))
      237    ?object_size@HeapObjectStatistics@v8@@QEAA_KXZ (public: unsigned __int64 __cdecl v8::HeapObjectStatistics::object_size(void))
      238    ?object_sub_type@HeapObjectStatistics@v8@@QEAAPEBDXZ (public: char const * __cdecl v8::HeapObjectStatistics::object_sub_type(void))
      239    ?object_type@HeapObjectStatistics@v8@@QEAAPEBDXZ (public: char const * __cdecl v8::HeapObjectStatistics::object_type(void))
      240    ?physical_space_size@HeapSpaceStatistics@v8@@QEAA_KXZ (public: unsigned __int64 __cdecl v8::HeapSpaceStatistics::physical_space_size(void))
      241    ?set_auto_enable@Extension@v8@@QEAAX_N@Z (public: void __cdecl v8::Extension::set_auto_enable(bool))
      242    ?set_code_range_size@ResourceConstraints@v8@@QEAAX_K@Z (public: void __cdecl v8::ResourceConstraints::set_code_range_size(unsigned __int64))
      243    ?set_max_available_threads@ResourceConstraints@v8@@QEAAXH@Z (public: void __cdecl v8::ResourceConstraints::set_max_available_threads(int))
      244    ?set_max_executable_size@ResourceConstraints@v8@@QEAAXH@Z (public: void __cdecl v8::ResourceConstraints::set_max_executable_size(int))
      245    ?set_max_old_space_size@ResourceConstraints@v8@@QEAAXH@Z (public: void __cdecl v8::ResourceConstraints::set_max_old_space_size(int))
      246    ?set_max_semi_space_size@ResourceConstraints@v8@@QEAAXH@Z (public: void __cdecl v8::ResourceConstraints::set_max_semi_space_size(int))
      247    ?set_stack_limit@ResourceConstraints@v8@@QEAAXPEAI@Z (public: void __cdecl v8::ResourceConstraints::set_stack_limit(unsigned int *))
      248    ?source@Extension@v8@@QEBAPEBVExternalOneByteStringResource@String@2@XZ (public: class v8::String::ExternalOneByteStringResource const * __cdecl v8::Extension::source(void)const )
      249    ?source_length@Extension@v8@@QEBA_KXZ (public: unsigned __int64 __cdecl v8::Extension::source_length(void)const )
      250    ?space_available_size@HeapSpaceStatistics@v8@@QEAA_KXZ (public: unsigned __int64 __cdecl v8::HeapSpaceStatistics::space_available_size(void))
      251    ?space_name@HeapSpaceStatistics@v8@@QEAAPEBDXZ (public: char const * __cdecl v8::HeapSpaceStatistics::space_name(void))
      252    ?space_size@HeapSpaceStatistics@v8@@QEAA_KXZ (public: unsigned __int64 __cdecl v8::HeapSpaceStatistics::space_size(void))
      253    ?space_used_size@HeapSpaceStatistics@v8@@QEAA_KXZ (public: unsigned __int64 __cdecl v8::HeapSpaceStatistics::space_used_size(void))
      254    ?stack_limit@ResourceConstraints@v8@@QEBAPEAIXZ (public: unsigned int * __cdecl v8::ResourceConstraints::stack_limit(void)const )
      255    ?total_available_size@HeapStatistics@v8@@QEAA_KXZ (public: unsigned __int64 __cdecl v8::HeapStatistics::total_available_size(void))
      256    ?total_heap_size@HeapStatistics@v8@@QEAA_KXZ (public: unsigned __int64 __cdecl v8::HeapStatistics::total_heap_size(void))
      257    ?total_heap_size_executable@HeapStatistics@v8@@QEAA_KXZ (public: unsigned __int64 __cdecl v8::HeapStatistics::total_heap_size_executable(void))
      258    ?total_physical_size@HeapStatistics@v8@@QEAA_KXZ (public: unsigned __int64 __cdecl v8::HeapStatistics::total_physical_size(void))
      259    ?used_heap_size@HeapStatistics@v8@@QEAA_KXZ (public: unsigned __int64 __cdecl v8::HeapStatistics::used_heap_size(void))
      260    _register_node_opus_
      261    opus_decode
      262    opus_decode_float
      263    opus_decoder_create
      264    opus_decoder_ctl
      265    opus_decoder_destroy
      266    opus_decoder_get_nb_samples
      267    opus_decoder_get_size
      268    opus_decoder_init
      269    opus_encode
      270    opus_encode_float
      271    opus_encoder_create
      272    opus_encoder_ctl
      273    opus_encoder_destroy
      274    opus_encoder_get_size
      275    opus_encoder_init
      276    opus_get_version_string
      277    opus_multistream_packet_pad
      278    opus_multistream_packet_unpad
      279    opus_packet_get_bandwidth
      280    opus_packet_get_nb_channels
      281    opus_packet_get_nb_frames
      282    opus_packet_get_nb_samples
      283    opus_packet_get_samples_per_frame
      284    opus_packet_pad
      285    opus_packet_parse
      286    opus_packet_unpad
      287    opus_pcm_soft_clip
      288    opus_repacketizer_cat
      289    opus_repacketizer_create
      290    opus_repacketizer_destroy
      291    opus_repacketizer_get_nb_frames
      292    opus_repacketizer_get_size
      293    opus_repacketizer_init
      294    opus_repacketizer_out
      295    opus_repacketizer_out_range
      296    opus_strerror
